libvmime.so.0 libvmime0 #MINVER#
 _Z17outputInvalidCharIN5vmime7utility12outputStreamEPvEvRT_T0_@Base 0.9.1-3~
 _ZN5vmime10exceptions12no_expeditorC1ERKNS_9exceptionE@Base 0.9.1-3~
 _ZN5vmime10exceptions12no_expeditorC2ERKNS_9exceptionE@Base 0.9.1-3~
 _ZN5vmime10exceptions12no_expeditorD0Ev@Base 0.9.1-3~
 _ZN5vmime10exceptions12no_expeditorD1Ev@Base 0.9.1-3~
 _ZN5vmime10exceptions12no_expeditorD2Ev@Base 0.9.1-3~
 _ZN5vmime10exceptions12no_recipientC1ERKNS_9exceptionE@Base 0.9.1-3~
 _ZN5vmime10exceptions12no_recipientC2ERKNS_9exceptionE@Base 0.9.1-3~
 _ZN5vmime10exceptions12no_recipientD0Ev@Base 0.9.1-3~
 _ZN5vmime10exceptions12no_recipientD1Ev@Base 0.9.1-3~
 _ZN5vmime10exceptions12no_recipientD2Ev@Base 0.9.1-3~
 _ZN5vmime10exceptions12no_such_partC1ERKNS_9exceptionE@Base 0.9.1-3~
 _ZN5vmime10exceptions12no_such_partC2ERKNS_9exceptionE@Base 0.9.1-3~
 _ZN5vmime10exceptions12no_such_partD0Ev@Base 0.9.1-3~
 _ZN5vmime10exceptions12no_such_partD1Ev@Base 0.9.1-3~
 _ZN5vmime10exceptions12no_such_partD2Ev@Base 0.9.1-3~
 _ZN5vmime10exceptions12system_errorC1ERKNSt7__cxx1112basic_stringIcSt11char_traitsIcESaIcEEERKNS_9exceptionE@Base 0.9.1-3~
 _ZN5vmime10exceptions12system_errorC2ERKNSt7__cxx1112basic_stringIcSt11char_traitsIcESaIcEEERKNS_9exceptionE@Base 0.9.1-3~
 _ZN5vmime10exceptions12system_errorD0Ev@Base 0.9.1-3~
 _ZN5vmime10exceptions12system_errorD1Ev@Base 0.9.1-3~
 _ZN5vmime10exceptions12system_errorD2Ev@Base 0.9.1-3~
 _ZN5vmime10exceptions13command_errorC1ERKNSt7__cxx1112basic_stringIcSt11char_traitsIcESaIcEEES9_S9_RKNS_9exceptionE@Base 0.9.1-3~
 _ZN5vmime10exceptions13command_errorC2ERKNSt7__cxx1112basic_stringIcSt11char_traitsIcESaIcEEES9_S9_RKNS_9exceptionE@Base 0.9.1-3~
 _ZN5vmime10exceptions13command_errorD0Ev@Base 0.9.1-3~
 _ZN5vmime10exceptions13command_errorD1Ev@Base 0.9.1-3~
 _ZN5vmime10exceptions13command_errorD2Ev@Base 0.9.1-3~
 _ZN5vmime10exceptions13illegal_stateC1ERKNSt7__cxx1112basic_stringIcSt11char_traitsIcESaIcEEERKNS_9exceptionE@Base 0.9.1-3~
 _ZN5vmime10exceptions13illegal_stateC2ERKNSt7__cxx1112basic_stringIcSt11char_traitsIcESaIcEEERKNS_9exceptionE@Base 0.9.1-3~
 _ZN5vmime10exceptions13illegal_stateD0Ev@Base 0.9.1-3~
 _ZN5vmime10exceptions13illegal_stateD1Ev@Base 0.9.1-3~
 _ZN5vmime10exceptions13illegal_stateD2Ev@Base 0.9.1-3~
 _ZN5vmime10exceptions13malformed_urlC1ERKNSt7__cxx1112basic_stringIcSt11char_traitsIcESaIcEEERKNS_9exceptionE@Base 0.9.1-3~
 _ZN5vmime10exceptions13malformed_urlC2ERKNSt7__cxx1112basic_stringIcSt11char_traitsIcESaIcEEERKNS_9exceptionE@Base 0.9.1-3~
 _ZN5vmime10exceptions13malformed_urlD0Ev@Base 0.9.1-3~
 _ZN5vmime10exceptions13malformed_urlD1Ev@Base 0.9.1-3~
 _ZN5vmime10exceptions13malformed_urlD2Ev@Base 0.9.1-3~
 _ZN5vmime10exceptions13net_exceptionC1ERKNSt7__cxx1112basic_stringIcSt11char_traitsIcESaIcEEERKNS_9exceptionE@Base 0.9.1-3~
 _ZN5vmime10exceptions13net_exceptionC2ERKNSt7__cxx1112basic_stringIcSt11char_traitsIcESaIcEEERKNS_9exceptionE@Base 0.9.1-3~
 _ZN5vmime10exceptions13net_exceptionD0Ev@Base 0.9.1-3~
 _ZN5vmime10exceptions13net_exceptionD1Ev@Base 0.9.1-3~
 _ZN5vmime10exceptions13net_exceptionD2Ev@Base 0.9.1-3~
 _ZN5vmime10exceptions13no_such_fieldC1ERKNS_9exceptionE@Base 0.9.1-3~
 _ZN5vmime10exceptions13no_such_fieldC2ERKNS_9exceptionE@Base 0.9.1-3~
 _ZN5vmime10exceptions13no_such_fieldD0Ev@Base 0.9.1-3~
 _ZN5vmime10exceptions13no_such_fieldD1Ev@Base 0.9.1-3~
 _ZN5vmime10exceptions13no_such_fieldD2Ev@Base 0.9.1-3~
 _ZN5vmime10exceptions13not_connectedC1ERKNS_9exceptionE@Base 0.9.1-3~
 _ZN5vmime10exceptions13not_connectedC2ERKNS_9exceptionE@Base 0.9.1-3~
 _ZN5vmime10exceptions13not_connectedD0Ev@Base 0.9.1-3~
 _ZN5vmime10exceptions13not_connectedD1Ev@Base 0.9.1-3~
 _ZN5vmime10exceptions13not_connectedD2Ev@Base 0.9.1-3~
 _ZN5vmime10exceptions13tls_exceptionC1ERKNSt7__cxx1112basic_stringIcSt11char_traitsIcESaIcEEERKNS_9exceptionE@Base 0.9.1-3~
 _ZN5vmime10exceptions13tls_exceptionC2ERKNSt7__cxx1112basic_stringIcSt11char_traitsIcESaIcEEERKNS_9exceptionE@Base 0.9.1-3~
 _ZN5vmime10exceptions13tls_exceptionD0Ev@Base 0.9.1-3~
 _ZN5vmime10exceptions13tls_exceptionD1Ev@Base 0.9.1-3~
 _ZN5vmime10exceptions13tls_exceptionD2Ev@Base 0.9.1-3~
 _ZN5vmime10exceptions14bad_field_typeC1ERKNS_9exceptionE@Base 0.9.1-3~
 _ZN5vmime10exceptions14bad_field_typeC2ERKNS_9exceptionE@Base 0.9.1-3~
 _ZN5vmime10exceptions14bad_field_typeD0Ev@Base 0.9.1-3~
 _ZN5vmime10exceptions14bad_field_typeD1Ev@Base 0.9.1-3~
 _ZN5vmime10exceptions14bad_field_typeD2Ev@Base 0.9.1-3~
 _ZN5vmime10exceptions14file_not_foundC1ERKNS_7utility4pathERKNS_9exceptionE@Base 0.9.1-3~
 _ZN5vmime10exceptions14file_not_foundC2ERKNS_7utility4pathERKNS_9exceptionE@Base 0.9.1-3~
 _ZN5vmime10exceptions14file_not_foundD0Ev@Base 0.9.1-3~
 _ZN5vmime10exceptions14file_not_foundD1Ev@Base 0.9.1-3~
 _ZN5vmime10exceptions14file_not_foundD2Ev@Base 0.9.1-3~
 _ZN5vmime10exceptions14sasl_exceptionC1ERKNSt7__cxx1112basic_stringIcSt11char_traitsIcESaIcEEERKNS_9exceptionE@Base 0.9.1-3~
 _ZN5vmime10exceptions14sasl_exceptionC2ERKNSt7__cxx1112basic_stringIcSt11char_traitsIcESaIcEEERKNS_9exceptionE@Base 0.9.1-3~
 _ZN5vmime10exceptions14sasl_exceptionD0Ev@Base 0.9.1-3~
 _ZN5vmime10exceptions14sasl_exceptionD1Ev@Base 0.9.1-3~
 _ZN5vmime10exceptions14sasl_exceptionD2Ev@Base 0.9.1-3~
 _ZN5vmime10exceptions15no_object_foundC1ERKNS_9exceptionE@Base 0.9.1-3~
 _ZN5vmime10exceptions15no_object_foundC2ERKNS_9exceptionE@Base 0.9.1-3~
 _ZN5vmime10exceptions15no_object_foundD0Ev@Base 0.9.1-3~
 _ZN5vmime10exceptions15no_object_foundD1Ev@Base 0.9.1-3~
 _ZN5vmime10exceptions15no_object_foundD2Ev@Base 0.9.1-3~
 _ZN5vmime10exceptions15no_such_addressC1ERKNS_9exceptionE@Base 0.9.1-3~
 _ZN5vmime10exceptions15no_such_addressC2ERKNS_9exceptionE@Base 0.9.1-3~
 _ZN5vmime10exceptions15no_such_addressD0Ev@Base 0.9.1-3~
 _ZN5vmime10exceptions15no_such_addressD1Ev@Base 0.9.1-3~
 _ZN5vmime10exceptions15no_such_addressD2Ev@Base 0.9.1-3~
 _ZN5vmime10exceptions15no_such_mailboxC1ERKNS_9exceptionE@Base 0.9.1-3~
 _ZN5vmime10exceptions15no_such_mailboxC2ERKNS_9exceptionE@Base 0.9.1-3~
 _ZN5vmime10exceptions15no_such_mailboxD0Ev@Base 0.9.1-3~
 _ZN5vmime10exceptions15no_such_mailboxD1Ev@Base 0.9.1-3~
 _ZN5vmime10exceptions15no_such_mailboxD2Ev@Base 0.9.1-3~
 _ZN5vmime10exceptions15not_a_directoryC1ERKNS_7utility4pathERKNS_9exceptionE@Base 0.9.1-3~
 _ZN5vmime10exceptions15not_a_directoryC2ERKNS_7utility4pathERKNS_9exceptionE@Base 0.9.1-3~
 _ZN5vmime10exceptions15not_a_directoryD0Ev@Base 0.9.1-3~
 _ZN5vmime10exceptions15not_a_directoryD1Ev@Base 0.9.1-3~
 _ZN5vmime10exceptions15not_a_directoryD2Ev@Base 0.9.1-3~
 _ZN5vmime10exceptions15open_file_errorC1ERKNS_9exceptionE@Base 0.9.1-3~
 _ZN5vmime10exceptions15open_file_errorC2ERKNS_9exceptionE@Base 0.9.1-3~
 _ZN5vmime10exceptions15open_file_errorD0Ev@Base 0.9.1-3~
 _ZN5vmime10exceptions15open_file_errorD1Ev@Base 0.9.1-3~
 _ZN5vmime10exceptions15open_file_errorD2Ev@Base 0.9.1-3~
 _ZN5vmime10exceptions16connection_errorC1ERKNSt7__cxx1112basic_stringIcSt11char_traitsIcESaIcEEERKNS_9exceptionE@Base 0.9.1-3~
 _ZN5vmime10exceptions16connection_errorC2ERKNSt7__cxx1112basic_stringIcSt11char_traitsIcESaIcEEERKNS_9exceptionE@Base 0.9.1-3~
 _ZN5vmime10exceptions16connection_errorD0Ev@Base 0.9.1-3~
 _ZN5vmime10exceptions16connection_errorD1Ev@Base 0.9.1-3~
 _ZN5vmime10exceptions16connection_errorD2Ev@Base 0.9.1-3~
 _ZN5vmime10exceptions16folder_not_foundC1ERKNS_9exceptionE@Base 0.9.1-3~
 _ZN5vmime10exceptions16folder_not_foundC2ERKNS_9exceptionE@Base 0.9.1-3~
 _ZN5vmime10exceptions16folder_not_foundD0Ev@Base 0.9.1-3~
 _ZN5vmime10exceptions16folder_not_foundD1Ev@Base 0.9.1-3~
 _ZN5vmime10exceptions16folder_not_foundD2Ev@Base 0.9.1-3~
 _ZN5vmime10exceptions16invalid_argumentC1ERKNS_9exceptionE@Base 0.9.1-3~
 _ZN5vmime10exceptions16invalid_argumentC2ERKNS_9exceptionE@Base 0.9.1-3~
 _ZN5vmime10exceptions16invalid_argumentD0Ev@Base 0.9.1-3~
 _ZN5vmime10exceptions16invalid_argumentD1Ev@Base 0.9.1-3~
 _ZN5vmime10exceptions16invalid_argumentD2Ev@Base 0.9.1-3~
 _ZN5vmime10exceptions16invalid_responseC1ERKNSt7__cxx1112basic_stringIcSt11char_traitsIcESaIcEEES9_RKNS_9exceptionE@Base 0.9.1-3~
 _ZN5vmime10exceptions16invalid_responseC2ERKNSt7__cxx1112basic_stringIcSt11char_traitsIcESaIcEEES9_RKNS_9exceptionE@Base 0.9.1-3~
 _ZN5vmime10exceptions16invalid_responseD0Ev@Base 0.9.1-3~
 _ZN5vmime10exceptions16invalid_responseD1Ev@Base 0.9.1-3~
 _ZN5vmime10exceptions16invalid_responseD2Ev@Base 0.9.1-3~
 _ZN5vmime10exceptions16no_such_propertyC1ERKNSt7__cxx1112basic_stringIcSt11char_traitsIcESaIcEEERKNS_9exceptionE@Base 0.9.1-3~
 _ZN5vmime10exceptions16no_such_propertyC2ERKNSt7__cxx1112basic_stringIcSt11char_traitsIcESaIcEEERKNS_9exceptionE@Base 0.9.1-3~
 _ZN5vmime10exceptions16no_such_propertyD0Ev@Base 0.9.1-3~
 _ZN5vmime10exceptions16no_such_propertyD1Ev@Base 0.9.1-3~
 _ZN5vmime10exceptions16no_such_propertyD2Ev@Base 0.9.1-3~
 _ZN5vmime10exceptions16socket_exceptionC1ERKNSt7__cxx1112basic_stringIcSt11char_traitsIcESaIcEEERKNS_9exceptionE@Base 0.9.1-3~
 _ZN5vmime10exceptions16socket_exceptionC2ERKNSt7__cxx1112basic_stringIcSt11char_traitsIcESaIcEEERKNS_9exceptionE@Base 0.9.1-3~
 _ZN5vmime10exceptions16socket_exceptionD0Ev@Base 0.9.1-3~
 _ZN5vmime10exceptions16socket_exceptionD1Ev@Base 0.9.1-3~
 _ZN5vmime10exceptions16socket_exceptionD2Ev@Base 0.9.1-3~
 _ZN5vmime10exceptions16unfetched_objectC1ERKNS_9exceptionE@Base 0.9.1-3~
 _ZN5vmime10exceptions16unfetched_objectC2ERKNS_9exceptionE@Base 0.9.1-3~
 _ZN5vmime10exceptions16unfetched_objectD0Ev@Base 0.9.1-3~
 _ZN5vmime10exceptions16unfetched_objectD1Ev@Base 0.9.1-3~
 _ZN5vmime10exceptions16unfetched_objectD2Ev@Base 0.9.1-3~
 _ZN5vmime10exceptions17already_connectedC1ERKNS_9exceptionE@Base 0.9.1-3~
 _ZN5vmime10exceptions17already_connectedC2ERKNS_9exceptionE@Base 0.9.1-3~
 _ZN5vmime10exceptions17already_connectedD0Ev@Base 0.9.1-3~
 _ZN5vmime10exceptions17already_connectedD1Ev@Base 0.9.1-3~
 _ZN5vmime10exceptions17already_connectedD2Ev@Base 0.9.1-3~
 _ZN5vmime10exceptions17illegal_operationC1ERKNSt7__cxx1112basic_stringIcSt11char_traitsIcESaIcEEERKNS_9exceptionE@Base 0.9.1-3~
 _ZN5vmime10exceptions17illegal_operationC2ERKNSt7__cxx1112basic_stringIcSt11char_traitsIcESaIcEEERKNS_9exceptionE@Base 0.9.1-3~
 _ZN5vmime10exceptions17illegal_operationD0Ev@Base 0.9.1-3~
 _ZN5vmime10exceptions17illegal_operationD1Ev@Base 0.9.1-3~
 _ZN5vmime10exceptions17illegal_operationD2Ev@Base 0.9.1-3~
 _ZN5vmime10exceptions17message_not_foundC1ERKNS_9exceptionE@Base 0.9.1-3~
 _ZN5vmime10exceptions17message_not_foundC2ERKNS_9exceptionE@Base 0.9.1-3~
 _ZN5vmime10exceptions17message_not_foundD0Ev@Base 0.9.1-3~
 _ZN5vmime10exceptions17message_not_foundD1Ev@Base 0.9.1-3~
 _ZN5vmime10exceptions17message_not_foundD2Ev@Base 0.9.1-3~
 _ZN5vmime10exceptions17no_such_mechanismC1ERKNSt7__cxx1112basic_stringIcSt11char_traitsIcESaIcEEERKNS_9exceptionE@Base 0.9.1-3~
 _ZN5vmime10exceptions17no_such_mechanismC2ERKNSt7__cxx1112basic_stringIcSt11char_traitsIcESaIcEEERKNS_9exceptionE@Base 0.9.1-3~
 _ZN5vmime10exceptions17no_such_mechanismD0Ev@Base 0.9.1-3~
 _ZN5vmime10exceptions17no_such_mechanismD1Ev@Base 0.9.1-3~
 _ZN5vmime10exceptions17no_such_mechanismD2Ev@Base 0.9.1-3~
 _ZN5vmime10exceptions17no_such_parameterC1ERKNSt7__cxx1112basic_stringIcSt11char_traitsIcESaIcEEERKNS_9exceptionE@Base 0.9.1-3~
 _ZN5vmime10exceptions17no_such_parameterC2ERKNSt7__cxx1112basic_stringIcSt11char_traitsIcESaIcEEERKNS_9exceptionE@Base 0.9.1-3~
 _ZN5vmime10exceptions17no_such_parameterD0Ev@Base 0.9.1-3~
 _ZN5vmime10exceptions17no_such_parameterD1Ev@Base 0.9.1-3~
 _ZN5vmime10exceptions17no_such_parameterD2Ev@Base 0.9.1-3~
 _ZN5vmime10exceptions18charset_conv_errorC1ERKNSt7__cxx1112basic_stringIcSt11char_traitsIcESaIcEEERKNS_9exceptionE@Base 0.9.1-3~
 _ZN5vmime10exceptions18charset_conv_errorC2ERKNSt7__cxx1112basic_stringIcSt11char_traitsIcESaIcEEERKNS_9exceptionE@Base 0.9.1-3~
 _ZN5vmime10exceptions18charset_conv_errorD0Ev@Base 0.9.1-3~
 _ZN5vmime10exceptions18charset_conv_errorD1Ev@Base 0.9.1-3~
 _ZN5vmime10exceptions18charset_conv_errorD2Ev@Base 0.9.1-3~
 _ZN5vmime10exceptions18no_such_message_idC1ERKNS_9exceptionE@Base 0.9.1-3~
 _ZN5vmime10exceptions18no_such_message_idC2ERKNS_9exceptionE@Base 0.9.1-3~
 _ZN5vmime10exceptions18no_such_message_idD0Ev@Base 0.9.1-3~
 _ZN5vmime10exceptions18no_such_message_idD1Ev@Base 0.9.1-3~
 _ZN5vmime10exceptions18no_such_message_idD2Ev@Base 0.9.1-3~
 _ZN5vmime10exceptions18unsupported_optionC1ERKNS_9exceptionE@Base 0.9.1-3~
 _ZN5vmime10exceptions18unsupported_optionC2ERKNS_9exceptionE@Base 0.9.1-3~
 _ZN5vmime10exceptions18unsupported_optionD0Ev@Base 0.9.1-3~
 _ZN5vmime10exceptions18unsupported_optionD1Ev@Base 0.9.1-3~
 _ZN5vmime10exceptions18unsupported_optionD2Ev@Base 0.9.1-3~
 _ZN5vmime10exceptions19invalid_folder_nameC1ERKNSt7__cxx1112basic_stringIcSt11char_traitsIcESaIcEEERKNS_9exceptionE@Base 0.9.1-3~
 _ZN5vmime10exceptions19invalid_folder_nameC2ERKNSt7__cxx1112basic_stringIcSt11char_traitsIcESaIcEEERKNS_9exceptionE@Base 0.9.1-3~
 _ZN5vmime10exceptions19invalid_folder_nameD0Ev@Base 0.9.1-3~
 _ZN5vmime10exceptions19invalid_folder_nameD1Ev@Base 0.9.1-3~
 _ZN5vmime10exceptions19invalid_folder_nameD2Ev@Base 0.9.1-3~
 _ZN5vmime10exceptions19no_auth_informationC1ERKNS_9exceptionE@Base 0.9.1-3~
 _ZN5vmime10exceptions19no_auth_informationC2ERKNS_9exceptionE@Base 0.9.1-3~
 _ZN5vmime10exceptions19no_auth_informationD0Ev@Base 0.9.1-3~
 _ZN5vmime10exceptions19no_auth_informationD1Ev@Base 0.9.1-3~
 _ZN5vmime10exceptions19no_auth_informationD2Ev@Base 0.9.1-3~
 _ZN5vmime10exceptions19no_platform_handlerC1ERKNS_9exceptionE@Base 0.9.1-3~
 _ZN5vmime10exceptions19no_platform_handlerC2ERKNS_9exceptionE@Base 0.9.1-3~
 _ZN5vmime10exceptions19no_platform_handlerD0Ev@Base 0.9.1-3~
 _ZN5vmime10exceptions19no_platform_handlerD1Ev@Base 0.9.1-3~
 _ZN5vmime10exceptions19no_platform_handlerD2Ev@Base 0.9.1-3~
 _ZN5vmime10exceptions19operation_cancelledC1ERKNS_9exceptionE@Base 0.9.1-3~
 _ZN5vmime10exceptions19operation_cancelledC2ERKNS_9exceptionE@Base 0.9.1-3~
 _ZN5vmime10exceptions19operation_cancelledD0Ev@Base 0.9.1-3~
 _ZN5vmime10exceptions19operation_cancelledD1Ev@Base 0.9.1-3~
 _ZN5vmime10exceptions19operation_cancelledD2Ev@Base 0.9.1-3~
 _ZN5vmime10exceptions19operation_timed_outC1ERKNS_9exceptionE@Base 0.9.1-3~
 _ZN5vmime10exceptions19operation_timed_outC2ERKNS_9exceptionE@Base 0.9.1-3~
 _ZN5vmime10exceptions19operation_timed_outD0Ev@Base 0.9.1-3~
 _ZN5vmime10exceptions19operation_timed_outD1Ev@Base 0.9.1-3~
 _ZN5vmime10exceptions19operation_timed_outD2Ev@Base 0.9.1-3~
 _ZN5vmime10exceptions20authentication_errorC1ERKNSt7__cxx1112basic_stringIcSt11char_traitsIcESaIcEEERKNS_9exceptionE@Base 0.9.1-3~
 _ZN5vmime10exceptions20authentication_errorC2ERKNSt7__cxx1112basic_stringIcSt11char_traitsIcESaIcEEERKNS_9exceptionE@Base 0.9.1-3~
 _ZN5vmime10exceptions20authentication_errorD0Ev@Base 0.9.1-3~
 _ZN5vmime10exceptions20authentication_errorD1Ev@Base 0.9.1-3~
 _ZN5vmime10exceptions20authentication_errorD2Ev@Base 0.9.1-3~
 _ZN5vmime10exceptions20filesystem_exceptionC1ERKNSt7__cxx1112basic_stringIcSt11char_traitsIcESaIcEEERKNS_7utility4pathERKNS_9exceptionE@Base 0.9.1-3~
 _ZN5vmime10exceptions20filesystem_exceptionC2ERKNSt7__cxx1112basic_stringIcSt11char_traitsIcESaIcEEERKNS_7utility4pathERKNS_9exceptionE@Base 0.9.1-3~
 _ZN5vmime10exceptions20filesystem_exceptionD0Ev@Base 0.9.1-3~
 _ZN5vmime10exceptions20filesystem_exceptionD1Ev@Base 0.9.1-3~
 _ZN5vmime10exceptions20filesystem_exceptionD2Ev@Base 0.9.1-3~
 _ZN5vmime10exceptions20no_encoder_availableC1ERKNSt7__cxx1112basic_stringIcSt11char_traitsIcESaIcEEERKNS_9exceptionE@Base 0.9.1-3~
 _ZN5vmime10exceptions20no_encoder_availableC2ERKNSt7__cxx1112basic_stringIcSt11char_traitsIcESaIcEEERKNS_9exceptionE@Base 0.9.1-3~
 _ZN5vmime10exceptions20no_encoder_availableD0Ev@Base 0.9.1-3~
 _ZN5vmime10exceptions20no_encoder_availableD1Ev@Base 0.9.1-3~
 _ZN5vmime10exceptions20no_encoder_availableD2Ev@Base 0.9.1-3~
 _ZN5vmime10exceptions20no_factory_availableC1ERKNS_9exceptionE@Base 0.9.1-3~
 _ZN5vmime10exceptions20no_factory_availableC2ERKNS_9exceptionE@Base 0.9.1-3~
 _ZN5vmime10exceptions20no_factory_availableD0Ev@Base 0.9.1-3~
 _ZN5vmime10exceptions20no_factory_availableD1Ev@Base 0.9.1-3~
 _ZN5vmime10exceptions20no_factory_availableD2Ev@Base 0.9.1-3~
 _ZN5vmime10exceptions20no_service_availableC1ERKNSt7__cxx1112basic_stringIcSt11char_traitsIcESaIcEEERKNS_9exceptionE@Base 0.9.1-3~
 _ZN5vmime10exceptions20no_service_availableC2ERKNSt7__cxx1112basic_stringIcSt11char_traitsIcESaIcEEERKNS_9exceptionE@Base 0.9.1-3~
 _ZN5vmime10exceptions20no_service_availableD0Ev@Base 0.9.1-3~
 _ZN5vmime10exceptions20no_service_availableD1Ev@Base 0.9.1-3~
 _ZN5vmime10exceptions20no_service_availableD2Ev@Base 0.9.1-3~
 _ZN5vmime10exceptions21certificate_exceptionC1ERKNSt7__cxx1112basic_stringIcSt11char_traitsIcESaIcEEERKNS_9exceptionE@Base 0.9.1-3~
 _ZN5vmime10exceptions21certificate_exceptionC2ERKNSt7__cxx1112basic_stringIcSt11char_traitsIcESaIcEEERKNS_9exceptionE@Base 0.9.1-3~
 _ZN5vmime10exceptions21certificate_exceptionD0Ev@Base 0.9.1-3~
 _ZN5vmime10exceptions21certificate_exceptionD1Ev@Base 0.9.1-3~
 _ZN5vmime10exceptions21certificate_exceptionD2Ev@Base 0.9.1-3~
 _ZN5vmime10exceptions21invalid_property_typeC1ERKNS_9exceptionE@Base 0.9.1-3~
 _ZN5vmime10exceptions21invalid_property_typeC2ERKNS_9exceptionE@Base 0.9.1-3~
 _ZN5vmime10exceptions21invalid_property_typeD0Ev@Base 0.9.1-3~
 _ZN5vmime10exceptions21invalid_property_typeD1Ev@Base 0.9.1-3~
 _ZN5vmime10exceptions21invalid_property_typeD2Ev@Base 0.9.1-3~
 _ZN5vmime10exceptions23operation_not_supportedC1ERKNS_9exceptionE@Base 0.9.1-3~
 _ZN5vmime10exceptions23operation_not_supportedC2ERKNS_9exceptionE@Base 0.9.1-3~
 _ZN5vmime10exceptions23operation_not_supportedD0Ev@Base 0.9.1-3~
 _ZN5vmime10exceptions23operation_not_supportedD1Ev@Base 0.9.1-3~
 _ZN5vmime10exceptions23operation_not_supportedD2Ev@Base 0.9.1-3~
 _ZN5vmime10exceptions24authentication_exceptionC1ERKNSt7__cxx1112basic_stringIcSt11char_traitsIcESaIcEEERKNS_9exceptionE@Base 0.9.1-3~
 _ZN5vmime10exceptions24authentication_exceptionC2ERKNSt7__cxx1112basic_stringIcSt11char_traitsIcESaIcEEERKNS_9exceptionE@Base 0.9.1-3~
 _ZN5vmime10exceptions24authentication_exceptionD0Ev@Base 0.9.1-3~
 _ZN5vmime10exceptions24authentication_exceptionD1Ev@Base 0.9.1-3~
 _ZN5vmime10exceptions24authentication_exceptionD2Ev@Base 0.9.1-3~
 _ZN5vmime10exceptions25connection_greeting_errorC1ERKNSt7__cxx1112basic_stringIcSt11char_traitsIcESaIcEEERKNS_9exceptionE@Base 0.9.1-3~
 _ZN5vmime10exceptions25connection_greeting_errorC2ERKNSt7__cxx1112basic_stringIcSt11char_traitsIcESaIcEEERKNS_9exceptionE@Base 0.9.1-3~
 _ZN5vmime10exceptions25connection_greeting_errorD0Ev@Base 0.9.1-3~
 _ZN5vmime10exceptions25connection_greeting_errorD1Ev@Base 0.9.1-3~
 _ZN5vmime10exceptions25connection_greeting_errorD2Ev@Base 0.9.1-3~
 _ZN5vmime10exceptions27partial_fetch_not_supportedC1ERKNS_9exceptionE@Base 0.9.1-3~
 _ZN5vmime10exceptions27partial_fetch_not_supportedC2ERKNS_9exceptionE@Base 0.9.1-3~
 _ZN5vmime10exceptions27partial_fetch_not_supportedD0Ev@Base 0.9.1-3~
 _ZN5vmime10exceptions27partial_fetch_not_supportedD1Ev@Base 0.9.1-3~
 _ZN5vmime10exceptions27partial_fetch_not_supportedD2Ev@Base 0.9.1-3~
 _ZN5vmime10exceptions28unsupported_certificate_typeC1ERKNSt7__cxx1112basic_stringIcSt11char_traitsIcESaIcEEERKNS_9exceptionE@Base 0.9.1-3~
 _ZN5vmime10exceptions28unsupported_certificate_typeC2ERKNSt7__cxx1112basic_stringIcSt11char_traitsIcESaIcEEERKNS_9exceptionE@Base 0.9.1-3~
 _ZN5vmime10exceptions28unsupported_certificate_typeD0Ev@Base 0.9.1-3~
 _ZN5vmime10exceptions28unsupported_certificate_typeD1Ev@Base 0.9.1-3~
 _ZN5vmime10exceptions28unsupported_certificate_typeD2Ev@Base 0.9.1-3~
 _ZN5vmime10exceptions29no_digest_algorithm_availableC1ERKNSt7__cxx1112basic_stringIcSt11char_traitsIcESaIcEEERKNS_9exceptionE@Base 0.9.1-3~
 _ZN5vmime10exceptions29no_digest_algorithm_availableC2ERKNSt7__cxx1112basic_stringIcSt11char_traitsIcESaIcEEERKNS_9exceptionE@Base 0.9.1-3~
 _ZN5vmime10exceptions29no_digest_algorithm_availableD0Ev@Base 0.9.1-3~
 _ZN5vmime10exceptions29no_digest_algorithm_availableD1Ev@Base 0.9.1-3~
 _ZN5vmime10exceptions29no_digest_algorithm_availableD2Ev@Base 0.9.1-3~
 _ZN5vmime10exceptions34certificate_verification_exceptionC1ERKNSt7__cxx1112basic_stringIcSt11char_traitsIcESaIcEEERKNS_9exceptionE@Base 0.9.1-3~
 _ZN5vmime10exceptions34certificate_verification_exceptionC2ERKNSt7__cxx1112basic_stringIcSt11char_traitsIcESaIcEEERKNS_9exceptionE@Base 0.9.1-3~
 _ZN5vmime10exceptions34certificate_verification_exceptionD0Ev@Base 0.9.1-3~
 _ZN5vmime10exceptions34certificate_verification_exceptionD1Ev@Base 0.9.1-3~
 _ZN5vmime10exceptions34certificate_verification_exceptionD2Ev@Base 0.9.1-3~
 _ZN5vmime10libversionB5cxx11Ev@Base 0.9.1-3~
 _ZN5vmime10mediaTypes10IMAGE_JPEGE@Base 0.9.1-3~
 _ZN5vmime10mediaTypes10TEXT_PLAINE@Base 0.9.1-3~
 _ZN5vmime10mediaTypes10VIDEO_MPEGE@Base 0.9.1-3~
 _ZN5vmime10mediaTypes11APPLICATIONE@Base 0.9.1-3~
 _ZN5vmime10mediaTypes11AUDIO_BASICE@Base 0.9.1-3~
 _ZN5vmime10mediaTypes13TEXT_ENRICHEDE@Base 0.9.1-3~
 _ZN5vmime10mediaTypes13TEXT_RICHTEXTE@Base 0.9.1-3~
 _ZN5vmime10mediaTypes14MESSAGE_RFC822E@Base 0.9.1-3~
 _ZN5vmime10mediaTypes14TEXT_DIRECTORYE@Base 0.9.1-3~
 _ZN5vmime10mediaTypes15MESSAGE_PARTIALE@Base 0.9.1-3~
 _ZN5vmime10mediaTypes15MULTIPART_MIXEDE@Base 0.9.1-3~
 _ZN5vmime10mediaTypes16MULTIPART_DIGESTE@Base 0.9.1-3~
 _ZN5vmime10mediaTypes16MULTIPART_REPORTE@Base 0.9.1-3~
 _ZN5vmime10mediaTypes17MULTIPART_RELATEDE@Base 0.9.1-3~
 _ZN5vmime10mediaTypes18MULTIPART_PARALLELE@Base 0.9.1-3~
 _ZN5vmime10mediaTypes19TEXT_RFC822_HEADERSE@Base 0.9.1-3~
 _ZN5vmime10mediaTypes21MESSAGE_EXTERNAL_BODYE@Base 0.9.1-3~
 _ZN5vmime10mediaTypes21MULTIPART_ALTERNATIVEE@Base 0.9.1-3~
 _ZN5vmime10mediaTypes24APPLICATION_OCTET_STREAME@Base 0.9.1-3~
 _ZN5vmime10mediaTypes32MESSAGE_DISPOSITION_NOTIFICATIONE@Base 0.9.1-3~
 _ZN5vmime10mediaTypes4TEXTE@Base 0.9.1-3~
 _ZN5vmime10mediaTypes5AUDIOE@Base 0.9.1-3~
 _ZN5vmime10mediaTypes5IMAGEE@Base 0.9.1-3~
 _ZN5vmime10mediaTypes5VIDEOE@Base 0.9.1-3~
 _ZN5vmime10mediaTypes7MESSAGEE@Base 0.9.1-3~
 _ZN5vmime10mediaTypes9IMAGE_GIFE@Base 0.9.1-3~
 _ZN5vmime10mediaTypes9MULTIPARTE@Base 0.9.1-3~
 _ZN5vmime10mediaTypes9TEXT_HTMLE@Base 0.9.1-3~
 _ZN5vmime11NULL_STRINGB5cxx11E@Base 0.9.1-3~
 _ZN5vmime11addressList12getAddressAtEi@Base 0.9.1-3~
 _ZN5vmime11addressList13appendAddressENS_7utility3refINS_7addressEEE@Base 0.9.1-3~
 _ZN5vmime11addressList13removeAddressENS_7utility3refINS_7addressEEE@Base 0.9.1-3~
 _ZN5vmime11addressList13removeAddressEi@Base 0.9.1-3~
 _ZN5vmime11addressList14getAddressListEv@Base 0.9.1-3~
 _ZN5vmime11addressList18insertAddressAfterENS_7utility3refINS_7addressEEES4_@Base 0.9.1-3~
 _ZN5vmime11addressList18insertAddressAfterEiNS_7utility3refINS_7addressEEE@Base 0.9.1-3~
 _ZN5vmime11addressList18removeAllAddressesEv@Base 0.9.1-3~
 _ZN5vmime11addressList19insertAddressBeforeENS_7utility3refINS_7addressEEES4_@Base 0.9.1-3~
 _ZN5vmime11addressList19insertAddressBeforeEiNS_7utility3refINS_7addressEEE@Base 0.9.1-3~
 _ZN5vmime11addressList5parseERKNSt7__cxx1112basic_stringIcSt11char_traitsIcESaIcEEEmmPm@Base 0.9.1-3~
 _ZN5vmime11addressList8copyFromERKNS_9componentE@Base 0.9.1-3~
 _ZN5vmime11addressListC1ERKS0_@Base 0.9.1-3~
 _ZN5vmime11addressListC1Ev@Base 0.9.1-3~
 _ZN5vmime11addressListC2ERKS0_@Base 0.9.1-3~
 _ZN5vmime11addressListC2Ev@Base 0.9.1-3~
 _ZN5vmime11addressListD0Ev@Base 0.9.1-3~
 _ZN5vmime11addressListD1Ev@Base 0.9.1-3~
 _ZN5vmime11addressListD2Ev@Base 0.9.1-3~
 _ZN5vmime11addressListaSERKNS_11mailboxListE@Base 0.9.1-3~
 _ZN5vmime11addressListaSERKS0_@Base 0.9.1-3~
 _ZN5vmime11copy_vectorISt6vectorINS_7utility3refINS_11headerFieldEEESaIS5_EES1_INS3_IKNS_9componentEEESaISA_EEEEvRKT_RT0_@Base 0.9.1-3~
 _ZN5vmime11copy_vectorISt6vectorINS_7utility3refINS_4wordEEESaIS5_EES1_INS3_IKNS_9componentEEESaISA_EEEEvRKT_RT0_@Base 0.9.1-3~
 _ZN5vmime11copy_vectorISt6vectorINS_7utility3refINS_4wordEEESaIS5_EES7_EEvRKT_RT0_@Base 0.9.1-3~
 _ZN5vmime11copy_vectorISt6vectorINS_7utility3refINS_7addressEEESaIS5_EES1_INS3_IKNS_9componentEEESaISA_EEEEvRKT_RT0_@Base 0.9.1-3~
 _ZN5vmime11copy_vectorISt6vectorINS_7utility3refINS_7mailboxEEESaIS5_EES1_INS3_IKNS_9componentEEESaISA_EEEEvRKT_RT0_@Base 0.9.1-3~
 _ZN5vmime11copy_vectorISt6vectorINS_7utility3refINS_8bodyPartEEESaIS5_EES1_INS3_IKNS_9componentEEESaISA_EEEEvRKT_RT0_@Base 0.9.1-3~
 _ZN5vmime11copy_vectorISt6vectorINS_7utility3refINS_9messageIdEEESaIS5_EES1_INS3_IKNS_9componentEEESaISA_EEEEvRKT_RT0_@Base 0.9.1-3~
 _ZN5vmime11disposition11addModifierERKNSt7__cxx1112basic_stringIcSt11char_traitsIcESaIcEEE@Base 0.9.1-3~
 _ZN5vmime11disposition13setActionModeERKNSt7__cxx1112basic_stringIcSt11char_traitsIcESaIcEEE@Base 0.9.1-3~
 _ZN5vmime11disposition14removeModifierERKNSt7__cxx1112basic_stringIcSt11char_traitsIcESaIcEEE@Base 0.9.1-3~
 _ZN5vmime11disposition14setSendingModeERKNSt7__cxx1112basic_stringIcSt11char_traitsIcESaIcEEE@Base 0.9.1-3~
 _ZN5vmime11disposition18removeAllModifiersEv@Base 0.9.1-3~
 _ZN5vmime11disposition5parseERKNSt7__cxx1112basic_stringIcSt11char_traitsIcESaIcEEEmmPm@Base 0.9.1-3~
 _ZN5vmime11disposition7setTypeERKNSt7__cxx1112basic_stringIcSt11char_traitsIcESaIcEEE@Base 0.9.1-3~
 _ZN5vmime11disposition8copyFromERKNS_9componentE@Base 0.9.1-3~
 _ZN5vmime11dispositionC1ERKNSt7__cxx1112basic_stringIcSt11char_traitsIcESaIcEEES8_S8_S8_@Base 0.9.1-3~
 _ZN5vmime11dispositionC1Ev@Base 0.9.1-3~
 _ZN5vmime11dispositionC2ERKNSt7__cxx1112basic_stringIcSt11char_traitsIcESaIcEEES8_S8_S8_@Base 0.9.1-3~
 _ZN5vmime11dispositionC2Ev@Base 0.9.1-3~
 _ZN5vmime11dispositionD0Ev@Base 0.9.1-3~
 _ZN5vmime11dispositionD1Ev@Base 0.9.1-3~
 _ZN5vmime11dispositionD2Ev@Base 0.9.1-3~
 _ZN5vmime11dispositionaSERKS0_@Base 0.9.1-3~
 _ZN5vmime11headerField13setValueConstENS_7utility3refIKNS_16headerFieldValueEEE@Base 0.9.1-3~
 _ZN5vmime11headerField5parseERKNSt7__cxx1112basic_stringIcSt11char_traitsIcESaIcEEEmmPm@Base 0.9.1-3~
 _ZN5vmime11headerField7setNameERKNSt7__cxx1112basic_stringIcSt11char_traitsIcESaIcEEE@Base 0.9.1-3~
 _ZN5vmime11headerField8copyFromERKNS_9componentE@Base 0.9.1-3~
 _ZN5vmime11headerField8getValueEv@Base 0.9.1-3~
 _ZN5vmime11headerField8setValueENS_7utility3refINS_16headerFieldValueEEE@Base 0.9.1-3~
 _ZN5vmime11headerField8setValueERKNS_16headerFieldValueE@Base 0.9.1-3~
 _ZN5vmime11headerField8setValueERKNSt7__cxx1112basic_stringIcSt11char_traitsIcESaIcEEE@Base 0.9.1-3~
 _ZN5vmime11headerField9parseNextERKNSt7__cxx1112basic_stringIcSt11char_traitsIcESaIcEEEmmPm@Base 0.9.1-3~
 _ZN5vmime11headerFieldC1ERKNSt7__cxx1112basic_stringIcSt11char_traitsIcESaIcEEE@Base 0.9.1-3~
 _ZN5vmime11headerFieldC1Ev@Base 0.9.1-3~
 _ZN5vmime11headerFieldC2ERKNSt7__cxx1112basic_stringIcSt11char_traitsIcESaIcEEE@Base 0.9.1-3~
 _ZN5vmime11headerFieldC2Ev@Base 0.9.1-3~
 _ZN5vmime11headerFieldD0Ev@Base 0.9.1-3~
 _ZN5vmime11headerFieldD1Ev@Base 0.9.1-3~
 _ZN5vmime11headerFieldD2Ev@Base 0.9.1-3~
 _ZN5vmime11headerFieldaSERKS0_@Base 0.9.1-3~
 _ZN5vmime11mailboxList12getMailboxAtEi@Base 0.9.1-3~
 _ZN5vmime11mailboxList13appendMailboxENS_7utility3refINS_7mailboxEEE@Base 0.9.1-3~
 _ZN5vmime11mailboxList13removeMailboxENS_7utility3refINS_7mailboxEEE@Base 0.9.1-3~
 _ZN5vmime11mailboxList13removeMailboxEi@Base 0.9.1-3~
 _ZN5vmime11mailboxList14getMailboxListEv@Base 0.9.1-3~
 _ZN5vmime11mailboxList18insertMailboxAfterENS_7utility3refINS_7mailboxEEES4_@Base 0.9.1-3~
 _ZN5vmime11mailboxList18insertMailboxAfterEiNS_7utility3refINS_7mailboxEEE@Base 0.9.1-3~
 _ZN5vmime11mailboxList18removeAllMailboxesEv@Base 0.9.1-3~
 _ZN5vmime11mailboxList19insertMailboxBeforeENS_7utility3refINS_7mailboxEEES4_@Base 0.9.1-3~
 _ZN5vmime11mailboxList19insertMailboxBeforeEiNS_7utility3refINS_7mailboxEEE@Base 0.9.1-3~
 _ZN5vmime11mailboxList5parseERKNSt7__cxx1112basic_stringIcSt11char_traitsIcESaIcEEEmmPm@Base 0.9.1-3~
 _ZN5vmime11mailboxList8copyFromERKNS_9componentE@Base 0.9.1-3~
 _ZN5vmime11mailboxListC1ERKS0_@Base 0.9.1-3~
 _ZN5vmime11mailboxListC1Ev@Base 0.9.1-3~
 _ZN5vmime11mailboxListC2ERKS0_@Base 0.9.1-3~
 _ZN5vmime11mailboxListC2Ev@Base 0.9.1-3~
 _ZN5vmime11mailboxListD0Ev@Base 0.9.1-3~
 _ZN5vmime11mailboxListD1Ev@Base 0.9.1-3~
 _ZN5vmime11mailboxListD2Ev@Base 0.9.1-3~
 _ZN5vmime11mailboxListaSERKS0_@Base 0.9.1-3~
 _ZN5vmime11propertySet12findOrCreateERKNSt7__cxx1112basic_stringIcSt11char_traitsIcESaIcEEE@Base 0.9.1-3~
 _ZN5vmime11propertySet13setFromStringERKNSt7__cxx1112basic_stringIcSt11char_traitsIcESaIcEEE@Base 0.9.1-3~
 _ZN5vmime11propertySet13valueToStringINSt7__cxx1112basic_stringIcSt11char_traitsIcESaIcEEEEES7_RKT_@Base 0.9.1-3~
 _ZN5vmime11propertySet13valueToStringIbEENSt7__cxx1112basic_stringIcSt11char_traitsIcESaIcEEERKT_@Base 0.9.1-3~
 _ZN5vmime11propertySet14removePropertyERKNSt7__cxx1112basic_stringIcSt11char_traitsIcESaIcEEE@Base 0.9.1-3~
 _ZN5vmime11propertySet15getPropertyListEv@Base 0.9.1-3~
 _ZN5vmime11propertySet15valueFromStringINSt7__cxx1112basic_stringIcSt11char_traitsIcESaIcEEEEET_RKS7_@Base 0.9.1-3~
 _ZN5vmime11propertySet15valueFromStringIbEET_RKNSt7__cxx1112basic_stringIcSt11char_traitsIcESaIcEEE@Base 0.9.1-3~
 _ZN5vmime11propertySet19removeAllPropertiesEv@Base 0.9.1-3~
 _ZN5vmime11propertySet5parseERKNSt7__cxx1112basic_stringIcSt11char_traitsIcESaIcEEE@Base 0.9.1-3~
 _ZN5vmime11propertySet8property8setValueERKNSt7__cxx1112basic_stringIcSt11char_traitsIcESaIcEEE@Base 0.9.1-3~
 _ZN5vmime11propertySet8property8setValueINSt7__cxx1112basic_stringIcSt11char_traitsIcESaIcEEEEEvRKT_@Base 0.9.1-3~
 _ZN5vmime11propertySet8property8setValueIbEEvRKT_@Base 0.9.1-3~
 _ZN5vmime11propertySet8propertyC1ERKNSt7__cxx1112basic_stringIcSt11char_traitsIcESaIcEEE@Base 0.9.1-3~
 _ZN5vmime11propertySet8propertyC1ERKNSt7__cxx1112basic_stringIcSt11char_traitsIcESaIcEEES9_@Base 0.9.1-3~
 _ZN5vmime11propertySet8propertyC1ERKS1_@Base 0.9.1-3~
 _ZN5vmime11propertySet8propertyC2ERKNSt7__cxx1112basic_stringIcSt11char_traitsIcESaIcEEE@Base 0.9.1-3~
 _ZN5vmime11propertySet8propertyC2ERKNSt7__cxx1112basic_stringIcSt11char_traitsIcESaIcEEES9_@Base 0.9.1-3~
 _ZN5vmime11propertySet8propertyC2ERKS1_@Base 0.9.1-3~
 _ZN5vmime11propertySet8propertyD0Ev@Base 0.9.1-3~
 _ZN5vmime11propertySet8propertyD1Ev@Base 0.9.1-3~
 _ZN5vmime11propertySet8propertyD2Ev@Base 0.9.1-3~
 _ZN5vmime11propertySetC1ERKNSt7__cxx1112basic_stringIcSt11char_traitsIcESaIcEEE@Base 0.9.1-3~
 _ZN5vmime11propertySetC1ERKS0_@Base 0.9.1-3~
 _ZN5vmime11propertySetC1Ev@Base 0.9.1-3~
 _ZN5vmime11propertySetC2ERKNSt7__cxx1112basic_stringIcSt11char_traitsIcESaIcEEE@Base 0.9.1-3~
 _ZN5vmime11propertySetC2ERKS0_@Base 0.9.1-3~
 _ZN5vmime11propertySetC2Ev@Base 0.9.1-3~
 _ZN5vmime11propertySetD0Ev@Base 0.9.1-3~
 _ZN5vmime11propertySetD1Ev@Base 0.9.1-3~
 _ZN5vmime11propertySetD2Ev@Base 0.9.1-3~
 _ZN5vmime11propertySetaSERKS0_@Base 0.9.1-3~
 _ZN5vmime11propertySetixERKNSt7__cxx1112basic_stringIcSt11char_traitsIcESaIcEEE@Base 0.9.1-3~
 _ZN5vmime11wordEncoder12getNextChunkB5cxx11Em@Base 0.9.1-3~
 _ZN5vmime11wordEncoder16isEncodingNeededERKNSt7__cxx1112basic_stringIcSt11char_traitsIcESaIcEEERKNS_7charsetE@Base 0.9.1-3~
 _ZN5vmime11wordEncoder17guessBestEncodingERKNSt7__cxx1112basic_stringIcSt11char_traitsIcESaIcEEERKNS_7charsetE@Base 0.9.1-3~
 _ZN5vmime11wordEncoderC1ERKNSt7__cxx1112basic_stringIcSt11char_traitsIcESaIcEEERKNS_7charsetENS0_8EncodingE@Base 0.9.1-3~
 _ZN5vmime11wordEncoderC2ERKNSt7__cxx1112basic_stringIcSt11char_traitsIcESaIcEEERKNS_7charsetENS0_8EncodingE@Base 0.9.1-3~
 _ZN5vmime11wordEncoderD1Ev@Base 0.9.1-3~
 _ZN5vmime11wordEncoderD2Ev@Base 0.9.1-3~
 _ZN5vmime12htmlTextPart10setCharsetERKNS_7charsetE@Base 0.9.1-3~
 _ZN5vmime12htmlTextPart12setPlainTextENS_7utility3refINS_14contentHandlerEEE@Base 0.9.1-3~
 _ZN5vmime12htmlTextPart14embeddedObjectC1ENS_7utility3refINS_14contentHandlerEEERKNS_8encodingERKNSt7__cxx1112basic_stringIcSt11char_traitsIcESaIcEEERKNS_9mediaTypeE@Base 0.9.1-3~
 _ZN5vmime12htmlTextPart14embeddedObjectC2ENS_7utility3refINS_14contentHandlerEEERKNS_8encodingERKNSt7__cxx1112basic_stringIcSt11char_traitsIcESaIcEEERKNS_9mediaTypeE@Base 0.9.1-3~
 _ZN5vmime12htmlTextPart14embeddedObjectD0Ev@Base 0.9.1-3~
 _ZN5vmime12htmlTextPart14embeddedObjectD1Ev@Base 0.9.1-3~
 _ZN5vmime12htmlTextPart14embeddedObjectD2Ev@Base 0.9.1-3~
 _ZN5vmime12htmlTextPart17addEmbeddedObjectERKNS_8bodyPartERKNSt7__cxx1112basic_stringIcSt11char_traitsIcESaIcEEE@Base 0.9.1-3~
 _ZN5vmime12htmlTextPart17findEmbeddedPartsERKNS_8bodyPartERSt6vectorINS_7utility3refIS2_EESaIS7_EESA_@Base 0.9.1-3~
 _ZN5vmime12htmlTextPart17findPlainTextPartERKNS_8bodyPartES3_S3_@Base 0.9.1-3~
 _ZN5vmime12htmlTextPart5parseENS_7utility3refIKNS_8bodyPartEEES5_S5_@Base 0.9.1-3~
 _ZN5vmime12htmlTextPart7cleanIdERKNSt7__cxx1112basic_stringIcSt11char_traitsIcESaIcEEE@Base 0.9.1-3~
 _ZN5vmime12htmlTextPart7setTextENS_7utility3refINS_14contentHandlerEEE@Base 0.9.1-3~
 _ZN5vmime12htmlTextPart9addObjectB5cxx11ENS_7utility3refINS_14contentHandlerEEERKNS_8encodingERKNS_9mediaTypeE@Base 0.9.1-3~
 _ZN5vmime12htmlTextPart9addObjectB5cxx11ENS_7utility3refINS_14contentHandlerEEERKNS_9mediaTypeE@Base 0.9.1-3~
 _ZN5vmime12htmlTextPart9addObjectERKNSt7__cxx1112basic_stringIcSt11char_traitsIcESaIcEEERKNS_9mediaTypeE@Base 0.9.1-3~
 _ZN5vmime12htmlTextPartC1Ev@Base 0.9.1-3~
 _ZN5vmime12htmlTextPartC2Ev@Base 0.9.1-3~
 _ZN5vmime12htmlTextPartD0Ev@Base 0.9.1-3~
 _ZN5vmime12htmlTextPartD1Ev@Base 0.9.1-3~
 _ZN5vmime12htmlTextPartD2Ev@Base 0.9.1-3~
 _ZN5vmime12mailboxField5parseERKNSt7__cxx1112basic_stringIcSt11char_traitsIcESaIcEEEmmPm@Base 0.9.1-3~
 _ZN5vmime12mailboxFieldC1ERKS0_@Base 0.9.1-3~
 _ZN5vmime12mailboxFieldC1Ev@Base 0.9.1-3~
 _ZN5vmime12mailboxFieldC2ERKS0_@Base 0.9.1-3~
 _ZN5vmime12mailboxFieldC2Ev@Base 0.9.1-3~
 _ZN5vmime12mailboxFieldD0Ev@Base 0.9.1-3~
 _ZN5vmime12mailboxFieldD1Ev@Base 0.9.1-3~
 _ZN5vmime12mailboxFieldD2Ev@Base 0.9.1-3~
 _ZN5vmime12mailboxGroup12getMailboxAtEi@Base 0.9.1-3~
 _ZN5vmime12mailboxGroup13appendMailboxENS_7utility3refINS_7mailboxEEE@Base 0.9.1-3~
 _ZN5vmime12mailboxGroup13removeMailboxENS_7utility3refINS_7mailboxEEE@Base 0.9.1-3~
 _ZN5vmime12mailboxGroup13removeMailboxEi@Base 0.9.1-3~
 _ZN5vmime12mailboxGroup14getMailboxListEv@Base 0.9.1-3~
 _ZN5vmime12mailboxGroup18insertMailboxAfterENS_7utility3refINS_7mailboxEEES4_@Base 0.9.1-3~
 _ZN5vmime12mailboxGroup18insertMailboxAfterEiNS_7utility3refINS_7mailboxEEE@Base 0.9.1-3~
 _ZN5vmime12mailboxGroup18removeAllMailboxesEv@Base 0.9.1-3~
 _ZN5vmime12mailboxGroup19insertMailboxBeforeENS_7utility3refINS_7mailboxEEES4_@Base 0.9.1-3~
 _ZN5vmime12mailboxGroup19insertMailboxBeforeEiNS_7utility3refINS_7mailboxEEE@Base 0.9.1-3~
 _ZN5vmime12mailboxGroup5parseERKNSt7__cxx1112basic_stringIcSt11char_traitsIcESaIcEEEmmPm@Base 0.9.1-3~
 _ZN5vmime12mailboxGroup7setNameERKNS_4textE@Base 0.9.1-3~
 _ZN5vmime12mailboxGroup8copyFromERKNS_9componentE@Base 0.9.1-3~
 _ZN5vmime12mailboxGroupC1ERKNS_4textE@Base 0.9.1-3~
 _ZN5vmime12mailboxGroupC1ERKS0_@Base 0.9.1-3~
 _ZN5vmime12mailboxGroupC1Ev@Base 0.9.1-3~
 _ZN5vmime12mailboxGroupC2ERKNS_4textE@Base 0.9.1-3~
 _ZN5vmime12mailboxGroupC2ERKS0_@Base 0.9.1-3~
 _ZN5vmime12mailboxGroupC2Ev@Base 0.9.1-3~
 _ZN5vmime12mailboxGroupD0Ev@Base 0.9.1-3~
 _ZN5vmime12mailboxGroupD1Ev@Base 0.9.1-3~
 _ZN5vmime12mailboxGroupD2Ev@Base 0.9.1-3~
 _ZN5vmime12mailboxGroupaSERKNS_9componentE@Base 0.9.1-3~
 _ZN5vmime13encodingTypes16QUOTED_PRINTABLEE@Base 0.9.1-3~
 _ZN5vmime13encodingTypes6BASE64E@Base 0.9.1-3~
 _ZN5vmime13encodingTypes6BINARYE@Base 0.9.1-3~
 _ZN5vmime13encodingTypes8UUENCODEE@Base 0.9.1-3~
 _ZN5vmime13encodingTypes9EIGHT_BITE@Base 0.9.1-3~
 _ZN5vmime13encodingTypes9SEVEN_BITE@Base 0.9.1-3~
 _ZN5vmime13messageParser13findTextPartsENS_7utility3refIKNS_8bodyPartEEES5_@Base 0.9.1-3~
 _ZN5vmime13messageParser15findAttachmentsENS_7utility3refIKNS_7messageEEE@Base 0.9.1-3~
 _ZN5vmime13messageParser16findSubTextPartsENS_7utility3refIKNS_8bodyPartEEES5_@Base 0.9.1-3~
 _ZN5vmime13messageParser5parseENS_7utility3refIKNS_7messageEEE@Base 0.9.1-3~
 _ZN5vmime13messageParserC1ENS_7utility3refIKNS_7messageEEE@Base 0.9.1-3~
 _ZN5vmime13messageParserC1ERKNSt7__cxx1112basic_stringIcSt11char_traitsIcESaIcEEE@Base 0.9.1-3~
 _ZN5vmime13messageParserC2ENS_7utility3refIKNS_7messageEEE@Base 0.9.1-3~
 _ZN5vmime13messageParserC2ERKNSt7__cxx1112basic_stringIcSt11char_traitsIcESaIcEEE@Base 0.9.1-3~
 _ZN5vmime13messageParserD1Ev@Base 0.9.1-3~
 _ZN5vmime13messageParserD2Ev@Base 0.9.1-3~
 _ZN5vmime13plainTextPart10setCharsetERKNS_7charsetE@Base 0.9.1-3~
 _ZN5vmime13plainTextPart5parseENS_7utility3refIKNS_8bodyPartEEES5_S5_@Base 0.9.1-3~
 _ZN5vmime13plainTextPart7setTextENS_7utility3refINS_14contentHandlerEEE@Base 0.9.1-3~
 _ZN5vmime13plainTextPartC1Ev@Base 0.9.1-3~
 _ZN5vmime13plainTextPartC2Ev@Base 0.9.1-3~
 _ZN5vmime13plainTextPartD0Ev@Base 0.9.1-3~
 _ZN5vmime13plainTextPartD1Ev@Base 0.9.1-3~
 _ZN5vmime13plainTextPartD2Ev@Base 0.9.1-3~
 _ZN5vmime14contentHandler11NO_ENCODINGE@Base 0.9.1-3~
 _ZN5vmime14contentHandlerD0Ev@Base 0.9.1-3~
 _ZN5vmime14contentHandlerD1Ev@Base 0.9.1-3~
 _ZN5vmime14contentHandlerD2Ev@Base 0.9.1-3~
 _ZN5vmime14fileAttachment11getFileInfoEv@Base 0.9.1-3~
 _ZN5vmime14fileAttachment7setDataENS_7utility3refINS1_11inputStreamEEE@Base 0.9.1-3~
 _ZN5vmime14fileAttachment7setDataERKNSt7__cxx1112basic_stringIcSt11char_traitsIcESaIcEEE@Base 0.9.1-3~
 _ZN5vmime14fileAttachment8fileInfo11setFilenameERKNS_4wordE@Base 0.9.1-3~
 _ZN5vmime14fileAttachment8fileInfo11setFilenameERKNSt7__cxx1112basic_stringIcSt11char_traitsIcESaIcEEE@Base 0.9.1-3~
 _ZN5vmime14fileAttachment8fileInfo11setReadDateERKNS_8datetimeE@Base 0.9.1-3~
 _ZN5vmime14fileAttachment8fileInfo15setCreationDateERKNS_8datetimeE@Base 0.9.1-3~
 _ZN5vmime14fileAttachment8fileInfo19setModificationDateERKNS_8datetimeE@Base 0.9.1-3~
 _ZN5vmime14fileAttachment8fileInfo7setSizeERKj@Base 0.9.1-3~
 _ZN5vmime14fileAttachment8fileInfoC1Ev@Base 0.9.1-3~
 _ZN5vmime14fileAttachment8fileInfoC2Ev@Base 0.9.1-3~
 _ZN5vmime14fileAttachment8fileInfoD1Ev@Base 0.9.1-3~
 _ZN5vmime14fileAttachment8fileInfoD2Ev@Base 0.9.1-3~
 _ZN5vmime14fileAttachmentC1ENS_7utility3refINS1_11inputStreamEEERKNS_4wordERKNS_9mediaTypeE@Base 0.9.1-3~
 _ZN5vmime14fileAttachmentC1ENS_7utility3refINS1_11inputStreamEEERKNS_4wordERKNS_9mediaTypeERKNS_4textE@Base 0.9.1-3~
 _ZN5vmime14fileAttachmentC1ENS_7utility3refINS1_11inputStreamEEERKNS_4wordERKNS_9mediaTypeERKNS_4textERKNS_8encodingE@Base 0.9.1-3~
 _ZN5vmime14fileAttachmentC1ERKNSt7__cxx1112basic_stringIcSt11char_traitsIcESaIcEEERKNS_9mediaTypeE@Base 0.9.1-3~
 _ZN5vmime14fileAttachmentC1ERKNSt7__cxx1112basic_stringIcSt11char_traitsIcESaIcEEERKNS_9mediaTypeERKNS_4textE@Base 0.9.1-3~
 _ZN5vmime14fileAttachmentC1ERKNSt7__cxx1112basic_stringIcSt11char_traitsIcESaIcEEERKNS_9mediaTypeERKNS_4textERKNS_8encodingE@Base 0.9.1-3~
 _ZN5vmime14fileAttachmentC2ENS_7utility3refINS1_11inputStreamEEERKNS_4wordERKNS_9mediaTypeE@Base 0.9.1-3~
 _ZN5vmime14fileAttachmentC2ENS_7utility3refINS1_11inputStreamEEERKNS_4wordERKNS_9mediaTypeERKNS_4textE@Base 0.9.1-3~
 _ZN5vmime14fileAttachmentC2ENS_7utility3refINS1_11inputStreamEEERKNS_4wordERKNS_9mediaTypeERKNS_4textERKNS_8encodingE@Base 0.9.1-3~
 _ZN5vmime14fileAttachmentC2ERKNSt7__cxx1112basic_stringIcSt11char_traitsIcESaIcEEERKNS_9mediaTypeE@Base 0.9.1-3~
 _ZN5vmime14fileAttachmentC2ERKNSt7__cxx1112basic_stringIcSt11char_traitsIcESaIcEEERKNS_9mediaTypeERKNS_4textE@Base 0.9.1-3~
 _ZN5vmime14fileAttachmentC2ERKNSt7__cxx1112basic_stringIcSt11char_traitsIcESaIcEEERKNS_9mediaTypeERKNS_4textERKNS_8encodingE@Base 0.9.1-3~
 _ZN5vmime14fileAttachmentD0Ev@Base 0.9.1-3~
 _ZN5vmime14fileAttachmentD1Ev@Base 0.9.1-3~
 _ZN5vmime14fileAttachmentD2Ev@Base 0.9.1-3~
 _ZN5vmime14messageBuilder10setSubjectERKNS_4textE@Base 0.9.1-3~
 _ZN5vmime14messageBuilder11getTextPartEv@Base 0.9.1-3~
 _ZN5vmime14messageBuilder12setExpeditorERKNS_7mailboxE@Base 0.9.1-3~
 _ZN5vmime14messageBuilder13getRecipientsEv@Base 0.9.1-3~
 _ZN5vmime14messageBuilder13setRecipientsERKNS_11addressListE@Base 0.9.1-3~
 _ZN5vmime14messageBuilder15getAttachmentAtEi@Base 0.9.1-3~
 _ZN5vmime14messageBuilder16appendAttachmentENS_7utility3refINS_10attachmentEEE@Base 0.9.1-3~
 _ZN5vmime14messageBuilder16removeAttachmentEi@Base 0.9.1-3~
 _ZN5vmime14messageBuilder17constructTextPartERKNS_9mediaTypeE@Base 0.9.1-3~
 _ZN5vmime14messageBuilder17getAttachmentListEv@Base 0.9.1-3~
 _ZN5vmime14messageBuilder17getCopyRecipientsEv@Base 0.9.1-3~
 _ZN5vmime14messageBuilder17setCopyRecipientsERKNS_11addressListE@Base 0.9.1-3~
 _ZN5vmime14messageBuilder22getBlindCopyRecipientsEv@Base 0.9.1-3~
 _ZN5vmime14messageBuilder22setBlindCopyRecipientsERKNS_11addressListE@Base 0.9.1-3~
 _ZN5vmime14messageBuilder6attachENS_7utility3refINS_10attachmentEEE@Base 0.9.1-3~
 _ZN5vmime14messageBuilderC1Ev@Base 0.9.1-3~
 _ZN5vmime14messageBuilderC2Ev@Base 0.9.1-3~
 _ZN5vmime14messageBuilderD1Ev@Base 0.9.1-3~
 _ZN5vmime14messageBuilderD2Ev@Base 0.9.1-3~
 _ZN5vmime14theInitializerE@Base 0.9.1-3~
 _ZN5vmime15textPartFactory10registererINS_12htmlTextPartEE7creatorEv@Base 0.9.1-3~
 _ZN5vmime15textPartFactory10registererINS_13plainTextPartEE7creatorEv@Base 0.9.1-3~
 _ZN5vmime15textPartFactory11getInstanceEv@Base 0.9.1-3~
 _ZN5vmime15textPartFactory6createERKNS_9mediaTypeE@Base 0.9.1-3~
 _ZN5vmime15textPartFactoryC1Ev@Base 0.9.1-3~
 _ZN5vmime15textPartFactoryC2Ev@Base 0.9.1-3~
 _ZN5vmime15textPartFactoryD1Ev@Base 0.9.1-3~
 _ZN5vmime15textPartFactoryD2Ev@Base 0.9.1-3~
 _ZN5vmime16attachmentHelper12findBodyPartENS_7utility3refINS_8bodyPartEEERKNS_9mediaTypeE@Base 0.9.1-3~
 _ZN5vmime16attachmentHelper13addAttachmentENS_7utility3refINS_7messageEEENS2_INS_10attachmentEEE@Base 0.9.1-3~
 _ZN5vmime16attachmentHelper13addAttachmentENS_7utility3refINS_7messageEEES4_@Base 0.9.1-3~
 _ZN5vmime16attachmentHelper21getBodyPartAttachmentENS_7utility3refIKNS_8bodyPartEEEj@Base 0.9.1-3~
 _ZN5vmime16attachmentHelper22isBodyPartAnAttachmentENS_7utility3refIKNS_8bodyPartEEEj@Base 0.9.1-3~
 _ZN5vmime16attachmentHelper24findAttachmentsInMessageENS_7utility3refIKNS_7messageEEEj@Base 0.9.1-3~
 _ZN5vmime16attachmentHelper25findAttachmentsInBodyPartENS_7utility3refIKNS_8bodyPartEEEj@Base 0.9.1-3~
 _ZN5vmime16charsetConverter7convertERKNSt7__cxx1112basic_stringIcSt11char_traitsIcESaIcEEERS6_@Base 0.9.1-3~
 _ZN5vmime16charsetConverter7convertERNS_7utility11inputStreamERNS1_12outputStreamE@Base 0.9.1-3~
 _ZN5vmime16charsetConverterC1ERKNS_7charsetES3_@Base 0.9.1-3~
 _ZN5vmime16charsetConverterC2ERKNS_7charsetES3_@Base 0.9.1-3~
 _ZN5vmime16charsetConverterD0Ev@Base 0.9.1-3~
 _ZN5vmime16charsetConverterD1Ev@Base 0.9.1-3~
 _ZN5vmime16charsetConverterD2Ev@Base 0.9.1-3~
 _ZN5vmime16contentTypeField10setCharsetERKNS_7charsetE@Base 0.9.1-3~
 _ZN5vmime16contentTypeField11setBoundaryERKNSt7__cxx1112basic_stringIcSt11char_traitsIcESaIcEEE@Base 0.9.1-3~
 _ZN5vmime16contentTypeField13setReportTypeERKNSt7__cxx1112basic_stringIcSt11char_traitsIcESaIcEEE@Base 0.9.1-3~
 _ZN5vmime16contentTypeFieldC1ERS0_@Base 0.9.1-3~
 _ZN5vmime16contentTypeFieldC1Ev@Base 0.9.1-3~
 _ZN5vmime16contentTypeFieldC2ERS0_@Base 0.9.1-3~
 _ZN5vmime16contentTypeFieldC2Ev@Base 0.9.1-3~
 _ZN5vmime16contentTypeFieldD0Ev@Base 0.9.1-3~
 _ZN5vmime16contentTypeFieldD1Ev@Base 0.9.1-3~
 _ZN5vmime16dispositionTypes7DELETEDE@Base 0.9.1-3~
 _ZN5vmime16dispositionTypes9DISPLAYEDE@Base 0.9.1-3~
 _ZN5vmime16lineLengthLimits8infiniteE@Base 0.9.1-3~
 _ZN5vmime17NEW_LINE_SEQUENCEB5cxx11E@Base 0.9.1-3~
 _ZN5vmime17defaultAttachmentC1ENS_7utility3refIKNS_14contentHandlerEEERKNS_8encodingERKNS_9mediaTypeERKNS_4textERKNS_4wordE@Base 0.9.1-3~
 _ZN5vmime17defaultAttachmentC1ENS_7utility3refIKNS_14contentHandlerEEERKNS_9mediaTypeERKNS_4textERKNS_4wordE@Base 0.9.1-3~
 _ZN5vmime17defaultAttachmentC1ERKS0_@Base 0.9.1-3~
 _ZN5vmime17defaultAttachmentC1Ev@Base 0.9.1-3~
 _ZN5vmime17defaultAttachmentC2ENS_7utility3refIKNS_14contentHandlerEEERKNS_8encodingERKNS_9mediaTypeERKNS_4textERKNS_4wordE@Base 0.9.1-3~
 _ZN5vmime17defaultAttachmentC2ENS_7utility3refIKNS_14contentHandlerEEERKNS_9mediaTypeERKNS_4textERKNS_4wordE@Base 0.9.1-3~
 _ZN5vmime17defaultAttachmentC2ERKS0_@Base 0.9.1-3~
 _ZN5vmime17defaultAttachmentC2Ev@Base 0.9.1-3~
 _ZN5vmime17defaultAttachmentD0Ev@Base 0.9.1-3~
 _ZN5vmime17defaultAttachmentD1Ev@Base 0.9.1-3~
 _ZN5vmime17defaultAttachmentD2Ev@Base 0.9.1-3~
 _ZN5vmime17defaultAttachmentaSERKS0_@Base 0.9.1-3~
 _ZN5vmime17messageIdSequence14getMessageIdAtEi@Base 0.9.1-3~
 _ZN5vmime17messageIdSequence15appendMessageIdENS_7utility3refINS_9messageIdEEE@Base 0.9.1-3~
 _ZN5vmime17messageIdSequence15removeMessageIdENS_7utility3refINS_9messageIdEEE@Base 0.9.1-3~
 _ZN5vmime17messageIdSequence15removeMessageIdEi@Base 0.9.1-3~
 _ZN5vmime17messageIdSequence16getMessageIdListEv@Base 0.9.1-3~
 _ZN5vmime17messageIdSequence19removeAllMessageIdsEv@Base 0.9.1-3~
 _ZN5vmime17messageIdSequence20insertMessageIdAfterENS_7utility3refINS_9messageIdEEES4_@Base 0.9.1-3~
 _ZN5vmime17messageIdSequence20insertMessageIdAfterEiNS_7utility3refINS_9messageIdEEE@Base 0.9.1-3~
 _ZN5vmime17messageIdSequence21insertMessageIdBeforeENS_7utility3refINS_9messageIdEEES4_@Base 0.9.1-3~
 _ZN5vmime17messageIdSequence21insertMessageIdBeforeEiNS_7utility3refINS_9messageIdEEE@Base 0.9.1-3~
 _ZN5vmime17messageIdSequence5parseERKNSt7__cxx1112basic_stringIcSt11char_traitsIcESaIcEEEmmPm@Base 0.9.1-3~
 _ZN5vmime17messageIdSequence8copyFromERKNS_9componentE@Base 0.9.1-3~
 _ZN5vmime17messageIdSequenceC1ERKS0_@Base 0.9.1-3~
 _ZN5vmime17messageIdSequenceC1Ev@Base 0.9.1-3~
 _ZN5vmime17messageIdSequenceC2ERKS0_@Base 0.9.1-3~
 _ZN5vmime17messageIdSequenceC2Ev@Base 0.9.1-3~
 _ZN5vmime17messageIdSequenceD0Ev@Base 0.9.1-3~
 _ZN5vmime17messageIdSequenceD1Ev@Base 0.9.1-3~
 _ZN5vmime17messageIdSequenceD2Ev@Base 0.9.1-3~
 _ZN5vmime17messageIdSequenceaSERKS0_@Base 0.9.1-3~
 _ZN5vmime18bodyPartAttachmentC1ENS_7utility3refIKNS_8bodyPartEEE@Base 0.9.1-3~
 _ZN5vmime18bodyPartAttachmentC2ENS_7utility3refIKNS_8bodyPartEEE@Base 0.9.1-3~
 _ZN5vmime18bodyPartAttachmentD0Ev@Base 0.9.1-3~
 _ZN5vmime18bodyPartAttachmentD1Ev@Base 0.9.1-3~
 _ZN5vmime18bodyPartAttachmentD2Ev@Base 0.9.1-3~
 _ZN5vmime18contentDisposition5parseERKNSt7__cxx1112basic_stringIcSt11char_traitsIcESaIcEEEmmPm@Base 0.9.1-3~
 _ZN5vmime18contentDisposition7setNameERKNSt7__cxx1112basic_stringIcSt11char_traitsIcESaIcEEE@Base 0.9.1-3~
 _ZN5vmime18contentDisposition8copyFromERKNS_9componentE@Base 0.9.1-3~
 _ZN5vmime18contentDispositionC1ERKNSt7__cxx1112basic_stringIcSt11char_traitsIcESaIcEEE@Base 0.9.1-3~
 _ZN5vmime18contentDispositionC1ERKS0_@Base 0.9.1-3~
 _ZN5vmime18contentDispositionC1Ev@Base 0.9.1-3~
 _ZN5vmime18contentDispositionC2ERKNSt7__cxx1112basic_stringIcSt11char_traitsIcESaIcEEE@Base 0.9.1-3~
 _ZN5vmime18contentDispositionC2ERKS0_@Base 0.9.1-3~
 _ZN5vmime18contentDispositionC2Ev@Base 0.9.1-3~
 _ZN5vmime18contentDispositionD0Ev@Base 0.9.1-3~
 _ZN5vmime18contentDispositionD1Ev@Base 0.9.1-3~
 _ZN5vmime18contentDispositionD2Ev@Base 0.9.1-3~
 _ZN5vmime18contentDispositionaSERKNSt7__cxx1112basic_stringIcSt11char_traitsIcESaIcEEE@Base 0.9.1-3~
 _ZN5vmime18contentDispositionaSERKS0_@Base 0.9.1-3~
 _ZN5vmime18headerFieldFactory10registererINS_11headerFieldENS_12mailboxFieldEE7creatorEv@Base 0.9.1-3~
 _ZN5vmime18headerFieldFactory10registererINS_11headerFieldENS_16contentTypeFieldEE7creatorEv@Base 0.9.1-3~
 _ZN5vmime18headerFieldFactory10registererINS_11headerFieldENS_23contentDispositionFieldEE7creatorEv@Base 0.9.1-3~
 _ZN5vmime18headerFieldFactory10registererINS_11headerFieldENS_24parameterizedHeaderFieldEE7creatorEv@Base 0.9.1-3~
 _ZN5vmime18headerFieldFactory10registererINS_16headerFieldValueENS_11addressListEE7creatorEv@Base 0.9.1-3~
 _ZN5vmime18headerFieldFactory10registererINS_16headerFieldValueENS_11dispositionEE7creatorEv@Base 0.9.1-3~
 _ZN5vmime18headerFieldFactory10registererINS_16headerFieldValueENS_11mailboxListEE7creatorEv@Base 0.9.1-3~
 _ZN5vmime18headerFieldFactory10registererINS_16headerFieldValueENS_17messageIdSequenceEE7creatorEv@Base 0.9.1-3~
 _ZN5vmime18headerFieldFactory10registererINS_16headerFieldValueENS_18contentDispositionEE7creatorEv@Base 0.9.1-3~
 _ZN5vmime18headerFieldFactory10registererINS_16headerFieldValueENS_4pathEE7creatorEv@Base 0.9.1-3~
 _ZN5vmime18headerFieldFactory10registererINS_16headerFieldValueENS_4textEE7creatorEv@Base 0.9.1-3~
 _ZN5vmime18headerFieldFactory10registererINS_16headerFieldValueENS_5relayEE7creatorEv@Base 0.9.1-3~
 _ZN5vmime18headerFieldFactory10registererINS_16headerFieldValueENS_7mailboxEE7creatorEv@Base 0.9.1-3~
 _ZN5vmime18headerFieldFactory10registererINS_16headerFieldValueENS_8datetimeEE7creatorEv@Base 0.9.1-3~
 _ZN5vmime18headerFieldFactory10registererINS_16headerFieldValueENS_8encodingEE7creatorEv@Base 0.9.1-3~
 _ZN5vmime18headerFieldFactory10registererINS_16headerFieldValueENS_9mediaTypeEE7creatorEv@Base 0.9.1-3~
 _ZN5vmime18headerFieldFactory10registererINS_16headerFieldValueENS_9messageIdEE7creatorEv@Base 0.9.1-3~
 _ZN5vmime18headerFieldFactory11createValueERKNSt7__cxx1112basic_stringIcSt11char_traitsIcESaIcEEE@Base 0.9.1-3~
 _ZN5vmime18headerFieldFactory11getInstanceEv@Base 0.9.1-3~
 _ZN5vmime18headerFieldFactory6createERKNSt7__cxx1112basic_stringIcSt11char_traitsIcESaIcEEES8_@Base 0.9.1-3~
 _ZN5vmime18headerFieldFactoryC1Ev@Base 0.9.1-3~
 _ZN5vmime18headerFieldFactoryC2Ev@Base 0.9.1-3~
 _ZN5vmime18headerFieldFactoryD1Ev@Base 0.9.1-3~
 _ZN5vmime18headerFieldFactoryD2Ev@Base 0.9.1-3~
 _ZN5vmime19emptyContentHandlerC1Ev@Base 0.9.1-3~
 _ZN5vmime19emptyContentHandlerC2Ev@Base 0.9.1-3~
 _ZN5vmime19emptyContentHandlerD0Ev@Base 0.9.1-3~
 _ZN5vmime19emptyContentHandlerD1Ev@Base 0.9.1-3~
 _ZN5vmime19emptyContentHandlerD2Ev@Base 0.9.1-3~
 _ZN5vmime20CharsetEncodingEntryC1ERKNSt7__cxx1112basic_stringIcSt11char_traitsIcESaIcEEES8_@Base 0.9.1-3~
 _ZN5vmime20CharsetEncodingEntryC2ERKNSt7__cxx1112basic_stringIcSt11char_traitsIcESaIcEEES8_@Base 0.9.1-3~
 _ZN5vmime20dispositionModifiers5ERRORE@Base 0.9.1-3~
 _ZN5vmime20g_charsetEncodingMapE@Base 0.9.1-3~
 _ZN5vmime20streamContentHandler7setDataENS_7utility3refINS1_11inputStreamEEEmRKNS_8encodingE@Base 0.9.1-3~
 _ZN5vmime20streamContentHandlerC1ENS_7utility3refINS1_11inputStreamEEEmRKNS_8encodingE@Base 0.9.1-3~
 _ZN5vmime20streamContentHandlerC1ERKS0_@Base 0.9.1-3~
 _ZN5vmime20streamContentHandlerC1Ev@Base 0.9.1-3~
 _ZN5vmime20streamContentHandlerC2ENS_7utility3refINS1_11inputStreamEEEmRKNS_8encodingE@Base 0.9.1-3~
 _ZN5vmime20streamContentHandlerC2ERKS0_@Base 0.9.1-3~
 _ZN5vmime20streamContentHandlerC2Ev@Base 0.9.1-3~
 _ZN5vmime20streamContentHandlerD0Ev@Base 0.9.1-3~
 _ZN5vmime20streamContentHandlerD1Ev@Base 0.9.1-3~
 _ZN5vmime20streamContentHandlerD2Ev@Base 0.9.1-3~
 _ZN5vmime20streamContentHandleraSERKS0_@Base 0.9.1-3~
 _ZN5vmime20stringContentHandler7setDataERKNS_7utility11stringProxyERKNS_8encodingE@Base 0.9.1-3~
 _ZN5vmime20stringContentHandler7setDataERKNSt7__cxx1112basic_stringIcSt11char_traitsIcESaIcEEERKNS_8encodingE@Base 0.9.1-3~
 _ZN5vmime20stringContentHandler7setDataERKNSt7__cxx1112basic_stringIcSt11char_traitsIcESaIcEEEmmRKNS_8encodingE@Base 0.9.1-3~
 _ZN5vmime20stringContentHandlerC1ERKNS_7utility11stringProxyERKNS_8encodingE@Base 0.9.1-3~
 _ZN5vmime20stringContentHandlerC1ERKNSt7__cxx1112basic_stringIcSt11char_traitsIcESaIcEEERKNS_8encodingE@Base 0.9.1-3~
 _ZN5vmime20stringContentHandlerC1ERKNSt7__cxx1112basic_stringIcSt11char_traitsIcESaIcEEEmmRKNS_8encodingE@Base 0.9.1-3~
 _ZN5vmime20stringContentHandlerC1ERKS0_@Base 0.9.1-3~
 _ZN5vmime20stringContentHandlerC2ERKNS_7utility11stringProxyERKNS_8encodingE@Base 0.9.1-3~
 _ZN5vmime20stringContentHandlerC2ERKNSt7__cxx1112basic_stringIcSt11char_traitsIcESaIcEEERKNS_8encodingE@Base 0.9.1-3~
 _ZN5vmime20stringContentHandlerC2ERKNSt7__cxx1112basic_stringIcSt11char_traitsIcESaIcEEEmmRKNS_8encodingE@Base 0.9.1-3~
 _ZN5vmime20stringContentHandlerC2ERKS0_@Base 0.9.1-3~
 _ZN5vmime20stringContentHandlerD0Ev@Base 0.9.1-3~
 _ZN5vmime20stringContentHandlerD1Ev@Base 0.9.1-3~
 _ZN5vmime20stringContentHandlerD2Ev@Base 0.9.1-3~
 _ZN5vmime20stringContentHandleraSERKNSt7__cxx1112basic_stringIcSt11char_traitsIcESaIcEEE@Base 0.9.1-3~
 _ZN5vmime20stringContentHandleraSERKS0_@Base 0.9.1-3~
 _ZN5vmime22SUPPORTED_MIME_VERSIONB5cxx11E@Base 0.9.1-3~
 _ZN5vmime22dispositionActionModes6MANUALE@Base 0.9.1-3~
 _ZN5vmime22dispositionActionModes9AUTOMATICE@Base 0.9.1-3~
 _ZN5vmime23contentDispositionField11setFilenameERKNS_4wordE@Base 0.9.1-3~
 _ZN5vmime23contentDispositionField11setReadDateERKNS_8datetimeE@Base 0.9.1-3~
 _ZN5vmime23contentDispositionField15setCreationDateERKNS_8datetimeE@Base 0.9.1-3~
 _ZN5vmime23contentDispositionField19setModificationDateERKNS_8datetimeE@Base 0.9.1-3~
 _ZN5vmime23contentDispositionField7setSizeERKNSt7__cxx1112basic_stringIcSt11char_traitsIcESaIcEEE@Base 0.9.1-3~
 _ZN5vmime23contentDispositionFieldC1ERS0_@Base 0.9.1-3~
 _ZN5vmime23contentDispositionFieldC1Ev@Base 0.9.1-3~
 _ZN5vmime23contentDispositionFieldC2ERS0_@Base 0.9.1-3~
 _ZN5vmime23contentDispositionFieldC2Ev@Base 0.9.1-3~
 _ZN5vmime23contentDispositionFieldD0Ev@Base 0.9.1-3~
 _ZN5vmime23contentDispositionFieldD1Ev@Base 0.9.1-3~
 _ZN5vmime23contentDispositionTypes10ATTACHMENTE@Base 0.9.1-3~
 _ZN5vmime23contentDispositionTypes6INLINEE@Base 0.9.1-3~
 _ZN5vmime23dispositionSendingModes13SENT_MANUALLYE@Base 0.9.1-3~
 _ZN5vmime23dispositionSendingModes18SENT_AUTOMATICALLYE@Base 0.9.1-3~
 _ZN5vmime23parsedMessageAttachmentC1ENS_7utility3refINS_7messageEEE@Base 0.9.1-3~
 _ZN5vmime23parsedMessageAttachmentC2ENS_7utility3refINS_7messageEEE@Base 0.9.1-3~
 _ZN5vmime23parsedMessageAttachmentD0Ev@Base 0.9.1-3~
 _ZN5vmime23parsedMessageAttachmentD1Ev@Base 0.9.1-3~
 _ZN5vmime23parsedMessageAttachmentD2Ev@Base 0.9.1-3~
 _ZN5vmime24NEW_LINE_SEQUENCE_LENGTHE@Base 0.9.1-3~
 _ZN5vmime24parameterizedHeaderField12getParameterERKNSt7__cxx1112basic_stringIcSt11char_traitsIcESaIcEEE@Base 0.9.1-3~
 _ZN5vmime24parameterizedHeaderField14getParameterAtEi@Base 0.9.1-3~
 _ZN5vmime24parameterizedHeaderField15appendParameterENS_7utility3refINS_9parameterEEE@Base 0.9.1-3~
 _ZN5vmime24parameterizedHeaderField15removeParameterENS_7utility3refINS_9parameterEEE@Base 0.9.1-3~
 _ZN5vmime24parameterizedHeaderField15removeParameterEi@Base 0.9.1-3~
 _ZN5vmime24parameterizedHeaderField16getParameterListEv@Base 0.9.1-3~
 _ZN5vmime24parameterizedHeaderField19removeAllParametersEv@Base 0.9.1-3~
 _ZN5vmime24parameterizedHeaderField20insertParameterAfterENS_7utility3refINS_9parameterEEES4_@Base 0.9.1-3~
 _ZN5vmime24parameterizedHeaderField20insertParameterAfterEiNS_7utility3refINS_9parameterEEE@Base 0.9.1-3~
 _ZN5vmime24parameterizedHeaderField21insertParameterBeforeENS_7utility3refINS_9parameterEEES4_@Base 0.9.1-3~
 _ZN5vmime24parameterizedHeaderField21insertParameterBeforeEiNS_7utility3refINS_9parameterEEE@Base 0.9.1-3~
 _ZN5vmime24parameterizedHeaderField5parseERKNSt7__cxx1112basic_stringIcSt11char_traitsIcESaIcEEEmmPm@Base 0.9.1-3~
 _ZN5vmime24parameterizedHeaderField8copyFromERKNS_9componentE@Base 0.9.1-3~
 _ZN5vmime24parameterizedHeaderFieldC1Ev@Base 0.9.1-3~
 _ZN5vmime24parameterizedHeaderFieldC2Ev@Base 0.9.1-3~
 _ZN5vmime24parameterizedHeaderFieldD0Ev@Base 0.9.1-3~
 _ZN5vmime24parameterizedHeaderFieldD1Ev@Base 0.9.1-3~
 _ZN5vmime24parameterizedHeaderFieldD2Ev@Base 0.9.1-3~
 _ZN5vmime24parameterizedHeaderFieldaSERKS0_@Base 0.9.1-3~
 _ZN5vmime26generatedMessageAttachmentC1ENS_7utility3refIKNS_8bodyPartEEE@Base 0.9.1-3~
 _ZN5vmime26generatedMessageAttachmentC2ENS_7utility3refIKNS_8bodyPartEEE@Base 0.9.1-3~
 _ZN5vmime26generatedMessageAttachmentD0Ev@Base 0.9.1-3~
 _ZN5vmime26generatedMessageAttachmentD1Ev@Base 0.9.1-3~
 _ZN5vmime26generatedMessageAttachmentD2Ev@Base 0.9.1-3~
 _ZN5vmime3mdn16receivedMDNInfos7extractEv@Base 0.9.1-3~
 _ZN5vmime3mdn16receivedMDNInfos8copyFromERKS1_@Base 0.9.1-3~
 _ZN5vmime3mdn16receivedMDNInfosC1ENS_7utility3refIKNS_7messageEEE@Base 0.9.1-3~
 _ZN5vmime3mdn16receivedMDNInfosC1ERKS1_@Base 0.9.1-3~
 _ZN5vmime3mdn16receivedMDNInfosC2ENS_7utility3refIKNS_7messageEEE@Base 0.9.1-3~
 _ZN5vmime3mdn16receivedMDNInfosC2ERKS1_@Base 0.9.1-3~
 _ZN5vmime3mdn16receivedMDNInfosD0Ev@Base 0.9.1-3~
 _ZN5vmime3mdn16receivedMDNInfosD1Ev@Base 0.9.1-3~
 _ZN5vmime3mdn16receivedMDNInfosD2Ev@Base 0.9.1-3~
 _ZN5vmime3mdn16receivedMDNInfosaSERKS1_@Base 0.9.1-3~
 _ZN5vmime3mdn16sendableMDNInfos8copyFromERKS1_@Base 0.9.1-3~
 _ZN5vmime3mdn16sendableMDNInfosC1ENS_7utility3refIKNS_7messageEEERKNS_7mailboxE@Base 0.9.1-3~
 _ZN5vmime3mdn16sendableMDNInfosC1ERKS1_@Base 0.9.1-3~
 _ZN5vmime3mdn16sendableMDNInfosC2ENS_7utility3refIKNS_7messageEEERKNS_7mailboxE@Base 0.9.1-3~
 _ZN5vmime3mdn16sendableMDNInfosC2ERKS1_@Base 0.9.1-3~
 _ZN5vmime3mdn16sendableMDNInfosD0Ev@Base 0.9.1-3~
 _ZN5vmime3mdn16sendableMDNInfosD1Ev@Base 0.9.1-3~
 _ZN5vmime3mdn16sendableMDNInfosD2Ev@Base 0.9.1-3~
 _ZN5vmime3mdn16sendableMDNInfosaSERKS1_@Base 0.9.1-3~
 _ZN5vmime3mdn8MDNInfosD0Ev@Base 0.9.1-3~
 _ZN5vmime3mdn8MDNInfosD1Ev@Base 0.9.1-3~
 _ZN5vmime3mdn8MDNInfosD2Ev@Base 0.9.1-3~
 _ZN5vmime3mdn9MDNHelper14getReceivedMDNENS_7utility3refIKNS_7messageEEE@Base 0.9.1-3~
 _ZN5vmime3mdn9MDNHelper15getPossibleMDNsENS_7utility3refIKNS_7messageEEE@Base 0.9.1-3~
 _ZN5vmime3mdn9MDNHelper16attachMDNRequestENS_7utility3refINS_7messageEEERKNS_11mailboxListE@Base 0.9.1-3~
 _ZN5vmime3mdn9MDNHelper16attachMDNRequestENS_7utility3refINS_7messageEEERKNS_7mailboxE@Base 0.9.1-3~
 _ZN5vmime3mdn9MDNHelper16needConfirmationENS_7utility3refIKNS_7messageEEE@Base 0.9.1-3~
 _ZN5vmime3mdn9MDNHelper18createFirstMDNPartERKNS0_16sendableMDNInfosERKNSt7__cxx1112basic_stringIcSt11char_traitsIcESaIcEEERKNS_7charsetE@Base 0.9.1-3~
 _ZN5vmime3mdn9MDNHelper18createThirdMDNPartERKNS0_16sendableMDNInfosE@Base 0.9.1-3~
 _ZN5vmime3mdn9MDNHelper19createSecondMDNPartERKNS0_16sendableMDNInfosERKNS_11dispositionERKNSt7__cxx1112basic_stringIcSt11char_traitsIcESaIcEEERKSt6vectorISD_SaISD_EE@Base 0.9.1-3~
 _ZN5vmime3mdn9MDNHelper5isMDNENS_7utility3refIKNS_7messageEEE@Base 0.9.1-3~
 _ZN5vmime3mdn9MDNHelper8buildMDNERKNS0_16sendableMDNInfosERKNSt7__cxx1112basic_stringIcSt11char_traitsIcESaIcEEERKNS_7charsetERKNS_7mailboxERKNS_11dispositionESC_RKSt6vectorISA_SaISA_EE@Base 0.9.1-3~
 _ZN5vmime3net12serviceInfos8property11SERVER_PORTE@Base 0.9.1-3~
 _ZN5vmime3net12serviceInfos8property13AUTH_PASSWORDE@Base 0.9.1-3~
 _ZN5vmime3net12serviceInfos8property13AUTH_USERNAMEE@Base 0.9.1-3~
 _ZN5vmime3net12serviceInfos8property14CONNECTION_TLSE@Base 0.9.1-3~
 _ZN5vmime3net12serviceInfos8property14SERVER_ADDRESSE@Base 0.9.1-3~
 _ZN5vmime3net12serviceInfos8property15SERVER_ROOTPATHE@Base 0.9.1-3~
 _ZN5vmime3net12serviceInfos8property23CONNECTION_TLS_REQUIREDE@Base 0.9.1-3~
 _ZN5vmime3net12serviceInfos8propertyC1ERKNSt7__cxx1112basic_stringIcSt11char_traitsIcESaIcEEENS2_5TypesESA_i@Base 0.9.1-3~
 _ZN5vmime3net12serviceInfos8propertyC1ERKS2_RKNSt7__cxx1112basic_stringIcSt11char_traitsIcESaIcEEEii@Base 0.9.1-3~
 _ZN5vmime3net12serviceInfos8propertyC1ERKS2_ii@Base 0.9.1-3~
 _ZN5vmime3net12serviceInfos8propertyC2ERKNSt7__cxx1112basic_stringIcSt11char_traitsIcESaIcEEENS2_5TypesESA_i@Base 0.9.1-3~
 _ZN5vmime3net12serviceInfos8propertyC2ERKS2_RKNSt7__cxx1112basic_stringIcSt11char_traitsIcESaIcEEEii@Base 0.9.1-3~
 _ZN5vmime3net12serviceInfos8propertyC2ERKS2_ii@Base 0.9.1-3~
 _ZN5vmime3net12serviceInfos8propertyD1Ev@Base 0.9.1-3~
 _ZN5vmime3net12serviceInfos8propertyD2Ev@Base 0.9.1-3~
 _ZN5vmime3net12serviceInfos8propertyaSERKS2_@Base 0.9.1-3~
 _ZN5vmime3net12serviceInfosC1ERKS1_@Base 0.9.1-3~
 _ZN5vmime3net12serviceInfosC1Ev@Base 0.9.1-3~
 _ZN5vmime3net12serviceInfosC2ERKS1_@Base 0.9.1-3~
 _ZN5vmime3net12serviceInfosC2Ev@Base 0.9.1-3~
 _ZN5vmime3net12serviceInfosD0Ev@Base 0.9.1-3~
 _ZN5vmime3net12serviceInfosD1Ev@Base 0.9.1-3~
 _ZN5vmime3net12serviceInfosD2Ev@Base 0.9.1-3~
 _ZN5vmime3net12serviceInfosaSERKS1_@Base 0.9.1-3~
 _ZN5vmime3net14serviceFactory11getInstanceEv@Base 0.9.1-3~
 _ZN5vmime3net14serviceFactory15registerServiceENS_7utility3refINS1_17registeredServiceEEE@Base 0.9.1-3~
 _ZN5vmime3net14serviceFactory6createENS_7utility3refINS0_7sessionEEERKNS2_3urlENS3_INS_8security13authenticatorEEE@Base 0.9.1-3~
 _ZN5vmime3net14serviceFactory6createENS_7utility3refINS0_7sessionEEERKNSt7__cxx1112basic_stringIcSt11char_traitsIcESaIcEEENS3_INS_8security13authenticatorEEE@Base 0.9.1-3~
 _ZN5vmime3net14serviceFactoryC1Ev@Base 0.9.1-3~
 _ZN5vmime3net14serviceFactoryC2Ev@Base 0.9.1-3~
 _ZN5vmime3net14serviceFactoryD1Ev@Base 0.9.1-3~
 _ZN5vmime3net14serviceFactoryD2Ev@Base 0.9.1-3~
 _ZN5vmime3net17serviceRegistererINS0_4imap10IMAPSStoreEEC1ERKNSt7__cxx1112basic_stringIcSt11char_traitsIcESaIcEEENS0_7service4TypeE@Base 0.9.1-3~
 _ZN5vmime3net17serviceRegistererINS0_4imap10IMAPSStoreEEC2ERKNSt7__cxx1112basic_stringIcSt11char_traitsIcESaIcEEENS0_7service4TypeE@Base 0.9.1-3~
 _ZN5vmime3net17serviceRegistererINS0_4imap9IMAPStoreEEC1ERKNSt7__cxx1112basic_stringIcSt11char_traitsIcESaIcEEENS0_7service4TypeE@Base 0.9.1-3~
 _ZN5vmime3net17serviceRegistererINS0_4imap9IMAPStoreEEC2ERKNSt7__cxx1112basic_stringIcSt11char_traitsIcESaIcEEENS0_7service4TypeE@Base 0.9.1-3~
 _ZN5vmime3net17serviceRegistererINS0_4pop310POP3SStoreEEC1ERKNSt7__cxx1112basic_stringIcSt11char_traitsIcESaIcEEENS0_7service4TypeE@Base 0.9.1-3~
 _ZN5vmime3net17serviceRegistererINS0_4pop310POP3SStoreEEC2ERKNSt7__cxx1112basic_stringIcSt11char_traitsIcESaIcEEENS0_7service4TypeE@Base 0.9.1-3~
 _ZN5vmime3net17serviceRegistererINS0_4pop39POP3StoreEEC1ERKNSt7__cxx1112basic_stringIcSt11char_traitsIcESaIcEEENS0_7service4TypeE@Base 0.9.1-3~
 _ZN5vmime3net17serviceRegistererINS0_4pop39POP3StoreEEC2ERKNSt7__cxx1112basic_stringIcSt11char_traitsIcESaIcEEENS0_7service4TypeE@Base 0.9.1-3~
 _ZN5vmime3net17serviceRegistererINS0_4smtp13SMTPTransportEEC1ERKNSt7__cxx1112basic_stringIcSt11char_traitsIcESaIcEEENS0_7service4TypeE@Base 0.9.1-3~
 _ZN5vmime3net17serviceRegistererINS0_4smtp13SMTPTransportEEC2ERKNSt7__cxx1112basic_stringIcSt11char_traitsIcESaIcEEENS0_7service4TypeE@Base 0.9.1-3~
 _ZN5vmime3net17serviceRegistererINS0_4smtp14SMTPSTransportEEC1ERKNSt7__cxx1112basic_stringIcSt11char_traitsIcESaIcEEENS0_7service4TypeE@Base 0.9.1-3~
 _ZN5vmime3net17serviceRegistererINS0_4smtp14SMTPSTransportEEC2ERKNSt7__cxx1112basic_stringIcSt11char_traitsIcESaIcEEENS0_7service4TypeE@Base 0.9.1-3~
 _ZN5vmime3net17serviceRegistererINS0_7maildir12maildirStoreEEC1ERKNSt7__cxx1112basic_stringIcSt11char_traitsIcESaIcEEENS0_7service4TypeE@Base 0.9.1-3~
 _ZN5vmime3net17serviceRegistererINS0_7maildir12maildirStoreEEC2ERKNSt7__cxx1112basic_stringIcSt11char_traitsIcESaIcEEENS0_7service4TypeE@Base 0.9.1-3~
 _ZN5vmime3net17serviceRegistererINS0_8sendmail17sendmailTransportEEC1ERKNSt7__cxx1112basic_stringIcSt11char_traitsIcESaIcEEENS0_7service4TypeE@Base 0.9.1-3~
 _ZN5vmime3net17serviceRegistererINS0_8sendmail17sendmailTransportEEC2ERKNSt7__cxx1112basic_stringIcSt11char_traitsIcESaIcEEENS0_7service4TypeE@Base 0.9.1-3~
 _ZN5vmime3net21registeredServiceImplINS0_4imap10IMAPSStoreEED0Ev@Base 0.9.1-3~
 _ZN5vmime3net21registeredServiceImplINS0_4imap10IMAPSStoreEED1Ev@Base 0.9.1-3~
 _ZN5vmime3net21registeredServiceImplINS0_4imap10IMAPSStoreEED2Ev@Base 0.9.1-3~
 _ZN5vmime3net21registeredServiceImplINS0_4imap9IMAPStoreEED0Ev@Base 0.9.1-3~
 _ZN5vmime3net21registeredServiceImplINS0_4imap9IMAPStoreEED1Ev@Base 0.9.1-3~
 _ZN5vmime3net21registeredServiceImplINS0_4imap9IMAPStoreEED2Ev@Base 0.9.1-3~
 _ZN5vmime3net21registeredServiceImplINS0_4pop310POP3SStoreEED0Ev@Base 0.9.1-3~
 _ZN5vmime3net21registeredServiceImplINS0_4pop310POP3SStoreEED1Ev@Base 0.9.1-3~
 _ZN5vmime3net21registeredServiceImplINS0_4pop310POP3SStoreEED2Ev@Base 0.9.1-3~
 _ZN5vmime3net21registeredServiceImplINS0_4pop39POP3StoreEED0Ev@Base 0.9.1-3~
 _ZN5vmime3net21registeredServiceImplINS0_4pop39POP3StoreEED1Ev@Base 0.9.1-3~
 _ZN5vmime3net21registeredServiceImplINS0_4pop39POP3StoreEED2Ev@Base 0.9.1-3~
 _ZN5vmime3net21registeredServiceImplINS0_4smtp13SMTPTransportEED0Ev@Base 0.9.1-3~
 _ZN5vmime3net21registeredServiceImplINS0_4smtp13SMTPTransportEED1Ev@Base 0.9.1-3~
 _ZN5vmime3net21registeredServiceImplINS0_4smtp13SMTPTransportEED2Ev@Base 0.9.1-3~
 _ZN5vmime3net21registeredServiceImplINS0_4smtp14SMTPSTransportEED0Ev@Base 0.9.1-3~
 _ZN5vmime3net21registeredServiceImplINS0_4smtp14SMTPSTransportEED1Ev@Base 0.9.1-3~
 _ZN5vmime3net21registeredServiceImplINS0_4smtp14SMTPSTransportEED2Ev@Base 0.9.1-3~
 _ZN5vmime3net21registeredServiceImplINS0_7maildir12maildirStoreEED0Ev@Base 0.9.1-3~
 _ZN5vmime3net21registeredServiceImplINS0_7maildir12maildirStoreEED1Ev@Base 0.9.1-3~
 _ZN5vmime3net21registeredServiceImplINS0_7maildir12maildirStoreEED2Ev@Base 0.9.1-3~
 _ZN5vmime3net21registeredServiceImplINS0_8sendmail17sendmailTransportEED0Ev@Base 0.9.1-3~
 _ZN5vmime3net21registeredServiceImplINS0_8sendmail17sendmailTransportEED1Ev@Base 0.9.1-3~
 _ZN5vmime3net21registeredServiceImplINS0_8sendmail17sendmailTransportEED2Ev@Base 0.9.1-3~
 _ZN5vmime3net22defaultConnectionInfosC1ERKNSt7__cxx1112basic_stringIcSt11char_traitsIcESaIcEEEt@Base 0.9.1-3~
 _ZN5vmime3net22defaultConnectionInfosC2ERKNSt7__cxx1112basic_stringIcSt11char_traitsIcESaIcEEEt@Base 0.9.1-3~
 _ZN5vmime3net22defaultConnectionInfosD0Ev@Base 0.9.1-3~
 _ZN5vmime3net22defaultConnectionInfosD1Ev@Base 0.9.1-3~
 _ZN5vmime3net22defaultConnectionInfosD2Ev@Base 0.9.1-3~
 _ZN5vmime3net3tls10TLSSession17throwTLSExceptionERKNSt7__cxx1112basic_stringIcSt11char_traitsIcESaIcEEEi@Base 0.9.1-3~
 _ZN5vmime3net3tls10TLSSession22getCertificateVerifierEv@Base 0.9.1-3~
 _ZN5vmime3net3tls10TLSSession9getSocketENS_7utility3refINS0_6socketEEE@Base 0.9.1-3~
 _ZN5vmime3net3tls10TLSSessionC1ENS_7utility3refINS_8security4cert19certificateVerifierEEE@Base 0.9.1-3~
 _ZN5vmime3net3tls10TLSSessionC1ERKS2_@Base 0.9.1-3~
 _ZN5vmime3net3tls10TLSSessionC2ENS_7utility3refINS_8security4cert19certificateVerifierEEE@Base 0.9.1-3~
 _ZN5vmime3net3tls10TLSSessionC2ERKS2_@Base 0.9.1-3~
 _ZN5vmime3net3tls10TLSSessionD0Ev@Base 0.9.1-3~
 _ZN5vmime3net3tls10TLSSessionD1Ev@Base 0.9.1-3~
 _ZN5vmime3net3tls10TLSSessionD2Ev@Base 0.9.1-3~
 _ZN5vmime3net3tls25TLSSecuredConnectionInfosC1ERKNSt7__cxx1112basic_stringIcSt11char_traitsIcESaIcEEEtNS_7utility3refINS1_10TLSSessionEEENSC_INS1_9TLSSocketEEE@Base 0.9.1-3~
 _ZN5vmime3net3tls25TLSSecuredConnectionInfosC2ERKNSt7__cxx1112basic_stringIcSt11char_traitsIcESaIcEEEtNS_7utility3refINS1_10TLSSessionEEENSC_INS1_9TLSSocketEEE@Base 0.9.1-3~
 _ZN5vmime3net3tls25TLSSecuredConnectionInfosD0Ev@Base 0.9.1-3~
 _ZN5vmime3net3tls25TLSSecuredConnectionInfosD1Ev@Base 0.9.1-3~
 _ZN5vmime3net3tls25TLSSecuredConnectionInfosD2Ev@Base 0.9.1-3~
 _ZN5vmime3net3tls25TLSSocket_DeleteExWrapperD0Ev@Base 0.9.1-3~
 _ZN5vmime3net3tls25TLSSocket_DeleteExWrapperD1Ev@Base 0.9.1-3~
 _ZN5vmime3net3tls25TLSSocket_DeleteExWrapperD2Ev@Base 0.9.1-3~
 _ZN5vmime3net3tls9TLSGlobalD1Ev@Base 0.9.1-3~
 _ZN5vmime3net3tls9TLSGlobalD2Ev@Base 0.9.1-3~
 _ZN5vmime3net3tls9TLSSocket10disconnectEv@Base 0.9.1-3~
 _ZN5vmime3net3tls9TLSSocket10receiveRawEPci@Base 0.9.1-3~
 _ZN5vmime3net3tls9TLSSocket13internalThrowEv@Base 0.9.1-3~
 _ZN5vmime3net3tls9TLSSocket14gnutlsPullFuncEPvS3_m@Base 0.9.1-3~
 _ZN5vmime3net3tls9TLSSocket14gnutlsPushFuncEPvPKvm@Base 0.9.1-3~
 _ZN5vmime3net3tls9TLSSocket4sendERKNSt7__cxx1112basic_stringIcSt11char_traitsIcESaIcEEE@Base 0.9.1-3~
 _ZN5vmime3net3tls9TLSSocket7connectERKNSt7__cxx1112basic_stringIcSt11char_traitsIcESaIcEEEt@Base 0.9.1-3~
 _ZN5vmime3net3tls9TLSSocket7receiveERNSt7__cxx1112basic_stringIcSt11char_traitsIcESaIcEEE@Base 0.9.1-3~
 _ZN5vmime3net3tls9TLSSocket7sendRawEPKci@Base 0.9.1-3~
 _ZN5vmime3net3tls9TLSSocket9handshakeENS_7utility3refINS0_14timeoutHandlerEEE@Base 0.9.1-3~
 _ZN5vmime3net3tls9TLSSocketC1ENS_7utility3refINS1_10TLSSessionEEENS4_INS0_6socketEEE@Base 0.9.1-3~
 _ZN5vmime3net3tls9TLSSocketC2ENS_7utility3refINS1_10TLSSessionEEENS4_INS0_6socketEEE@Base 0.9.1-3~
 _ZN5vmime3net3tls9TLSSocketD0Ev@Base 0.9.1-3~
 _ZN5vmime3net3tls9TLSSocketD1Ev@Base 0.9.1-3~
 _ZN5vmime3net3tls9TLSSocketD2Ev@Base 0.9.1-3~
 _ZN5vmime3net4imap10IMAPFolder10addMessageENS_7utility3refINS_7messageEEEiPNS_8datetimeEPNS3_16progressListenerE@Base 0.9.1-3~
 _ZN5vmime3net4imap10IMAPFolder10addMessageERNS_7utility11inputStreamEiiPNS_8datetimeEPNS3_16progressListenerE@Base 0.9.1-3~
 _ZN5vmime3net4imap10IMAPFolder10getFoldersEb@Base 0.9.1-3~
 _ZN5vmime3net4imap10IMAPFolder10getMessageEi@Base 0.9.1-3~
 _ZN5vmime3net4imap10IMAPFolder11copyMessageERKNS_7utility4pathEi@Base 0.9.1-3~
 _ZN5vmime3net4imap10IMAPFolder11getMessagesERKSt6vectorIiSaIiEE@Base 0.9.1-3~
 _ZN5vmime3net4imap10IMAPFolder11getMessagesEii@Base 0.9.1-3~
 _ZN5vmime3net4imap10IMAPFolder12copyMessagesERKNS_7utility4pathERKSt6vectorIiSaIiEE@Base 0.9.1-3~
 _ZN5vmime3net4imap10IMAPFolder12copyMessagesERKNS_7utility4pathEii@Base 0.9.1-3~
 _ZN5vmime3net4imap10IMAPFolder12copyMessagesERKNSt7__cxx1112basic_stringIcSt11char_traitsIcESaIcEEERKNS_7utility4pathE@Base 0.9.1-3~
 _ZN5vmime3net4imap10IMAPFolder12fetchMessageENS_7utility3refINS0_7messageEEEi@Base 0.9.1-3~
 _ZN5vmime3net4imap10IMAPFolder13deleteMessageEi@Base 0.9.1-3~
 _ZN5vmime3net4imap10IMAPFolder13fetchMessagesERSt6vectorINS_7utility3refINS0_7messageEEESaIS7_EEiPNS4_16progressListenerE@Base 0.9.1-3~
 _ZN5vmime3net4imap10IMAPFolder14deleteMessagesERKSt6vectorIiSaIiEE@Base 0.9.1-3~
 _ZN5vmime3net4imap10IMAPFolder14deleteMessagesEii@Base 0.9.1-3~
 _ZN5vmime3net4imap10IMAPFolder15getMessageCountEv@Base 0.9.1-3~
 _ZN5vmime3net4imap10IMAPFolder15registerMessageEPNS1_11IMAPMessageE@Base 0.9.1-3~
 _ZN5vmime3net4imap10IMAPFolder15setMessageFlagsERKNSt7__cxx1112basic_stringIcSt11char_traitsIcESaIcEEEii@Base 0.9.1-3~
 _ZN5vmime3net4imap10IMAPFolder15setMessageFlagsERKSt6vectorIiSaIiEEii@Base 0.9.1-3~
 _ZN5vmime3net4imap10IMAPFolder15setMessageFlagsEiiii@Base 0.9.1-3~
 _ZN5vmime3net4imap10IMAPFolder17unregisterMessageEPNS1_11IMAPMessageE@Base 0.9.1-3~
 _ZN5vmime3net4imap10IMAPFolder19onStoreDisconnectedEv@Base 0.9.1-3~
 _ZN5vmime3net4imap10IMAPFolder19testExistAndGetTypeEv@Base 0.9.1-3~
 _ZN5vmime3net4imap10IMAPFolder4openEib@Base 0.9.1-3~
 _ZN5vmime3net4imap10IMAPFolder5closeEb@Base 0.9.1-3~
 _ZN5vmime3net4imap10IMAPFolder6createEi@Base 0.9.1-3~
 _ZN5vmime3net4imap10IMAPFolder6existsEv@Base 0.9.1-3~
 _ZN5vmime3net4imap10IMAPFolder6renameERKNS_7utility4pathE@Base 0.9.1-3~
 _ZN5vmime3net4imap10IMAPFolder6statusERiS3_@Base 0.9.1-3~
 _ZN5vmime3net4imap10IMAPFolder7destroyEv@Base 0.9.1-3~
 _ZN5vmime3net4imap10IMAPFolder7expungeEv@Base 0.9.1-3~
 _ZN5vmime3net4imap10IMAPFolder7getTypeEv@Base 0.9.1-3~
 _ZN5vmime3net4imap10IMAPFolder7onCloseEv@Base 0.9.1-3~
 _ZN5vmime3net4imap10IMAPFolder8getFlagsEv@Base 0.9.1-3~
 _ZN5vmime3net4imap10IMAPFolder8getStoreEv@Base 0.9.1-3~
 _ZN5vmime3net4imap10IMAPFolder9getFolderERKNS_4wordE@Base 0.9.1-3~
 _ZN5vmime3net4imap10IMAPFolder9getParentEv@Base 0.9.1-3~
 _ZN5vmime3net4imap10IMAPFolderC1ERKNS_7utility4pathENS3_3refINS1_9IMAPStoreEEEii@Base 0.9.1-3~
 _ZN5vmime3net4imap10IMAPFolderC2ERKNS_7utility4pathENS3_3refINS1_9IMAPStoreEEEii@Base 0.9.1-3~
 _ZN5vmime3net4imap10IMAPFolderD0Ev@Base 0.9.1-3~
 _ZN5vmime3net4imap10IMAPFolderD1Ev@Base 0.9.1-3~
 _ZN5vmime3net4imap10IMAPFolderD2Ev@Base 0.9.1-3~
 _ZN5vmime3net4imap10IMAPParser10capability2goERS2_RNSt7__cxx1112basic_stringIcSt11char_traitsIcESaIcEEEPm@Base 0.9.1-3~
 _ZN5vmime3net4imap10IMAPParser10capabilityD0Ev@Base 0.9.1-3~
 _ZN5vmime3net4imap10IMAPParser10capabilityD1Ev@Base 0.9.1-3~
 _ZN5vmime3net4imap10IMAPParser10capabilityD2Ev@Base 0.9.1-3~
 _ZN5vmime3net4imap10IMAPParser10env_sender2goERS2_RNSt7__cxx1112basic_stringIcSt11char_traitsIcESaIcEEEPm@Base 0.9.1-3~
 _ZN5vmime3net4imap10IMAPParser10env_senderD0Ev@Base 0.9.1-3~
 _ZN5vmime3net4imap10IMAPParser10env_senderD1Ev@Base 0.9.1-3~
 _ZN5vmime3net4imap10IMAPParser10env_senderD2Ev@Base 0.9.1-3~
 _ZN5vmime3net4imap10IMAPParser10media_text2goERS2_RNSt7__cxx1112basic_stringIcSt11char_traitsIcESaIcEEEPm@Base 0.9.1-3~
 _ZN5vmime3net4imap10IMAPParser10media_textD0Ev@Base 0.9.1-3~
 _ZN5vmime3net4imap10IMAPParser10media_textD1Ev@Base 0.9.1-3~
 _ZN5vmime3net4imap10IMAPParser10media_textD2Ev@Base 0.9.1-3~
 _ZN5vmime3net4imap10IMAPParser10status_att2goERS2_RNSt7__cxx1112basic_stringIcSt11char_traitsIcESaIcEEEPm@Base 0.9.1-3~
 _ZN5vmime3net4imap10IMAPParser10status_attD0Ev@Base 0.9.1-3~
 _ZN5vmime3net4imap10IMAPParser10status_attD1Ev@Base 0.9.1-3~
 _ZN5vmime3net4imap10IMAPParser10status_attD2Ev@Base 0.9.1-3~
 _ZN5vmime3net4imap10IMAPParser10text_mime22goERS2_RNSt7__cxx1112basic_stringIcSt11char_traitsIcESaIcEEEPm@Base 0.9.1-3~
 _ZN5vmime3net4imap10IMAPParser10text_mime2D0Ev@Base 0.9.1-3~
 _ZN5vmime3net4imap10IMAPParser10text_mime2D1Ev@Base 0.9.1-3~
 _ZN5vmime3net4imap10IMAPParser10text_mime2D2Ev@Base 0.9.1-3~
 _ZN5vmime3net4imap10IMAPParser11QUOTED_CHAR2goERS2_RNSt7__cxx1112basic_stringIcSt11char_traitsIcESaIcEEEPm@Base 0.9.1-3~
 _ZN5vmime3net4imap10IMAPParser11QUOTED_CHARD0Ev@Base 0.9.1-3~
 _ZN5vmime3net4imap10IMAPParser11QUOTED_CHARD1Ev@Base 0.9.1-3~
 _ZN5vmime3net4imap10IMAPParser11QUOTED_CHARD2Ev@Base 0.9.1-3~
 _ZN5vmime3net4imap10IMAPParser11body_fields2goERS2_RNSt7__cxx1112basic_stringIcSt11char_traitsIcESaIcEEEPm@Base 0.9.1-3~
 _ZN5vmime3net4imap10IMAPParser11body_fieldsD0Ev@Base 0.9.1-3~
 _ZN5vmime3net4imap10IMAPParser11body_fieldsD1Ev@Base 0.9.1-3~
 _ZN5vmime3net4imap10IMAPParser11body_fieldsD2Ev@Base 0.9.1-3~
 _ZN5vmime3net4imap10IMAPParser11env_subject2goERS2_RNSt7__cxx1112basic_stringIcSt11char_traitsIcESaIcEEEPm@Base 0.9.1-3~
 _ZN5vmime3net4imap10IMAPParser11env_subjectD0Ev@Base 0.9.1-3~
 _ZN5vmime3net4imap10IMAPParser11env_subjectD1Ev@Base 0.9.1-3~
 _ZN5vmime3net4imap10IMAPParser11env_subjectD2Ev@Base 0.9.1-3~
 _ZN5vmime3net4imap10IMAPParser11header_list2goERS2_RNSt7__cxx1112basic_stringIcSt11char_traitsIcESaIcEEEPm@Base 0.9.1-3~
 _ZN5vmime3net4imap10IMAPParser11header_listD0Ev@Base 0.9.1-3~
 _ZN5vmime3net4imap10IMAPParser11header_listD1Ev@Base 0.9.1-3~
 _ZN5vmime3net4imap10IMAPParser11header_listD2Ev@Base 0.9.1-3~
 _ZN5vmime3net4imap10IMAPParser11internalGetINS2_14resp_cond_authEEEPT_PNS2_9componentERNSt7__cxx1112basic_stringIcSt11char_traitsIcESaIcEEEPmb@Base 0.9.1-3~
 _ZN5vmime3net4imap10IMAPParser11internalGetINS2_8greetingEEEPT_PNS2_9componentERNSt7__cxx1112basic_stringIcSt11char_traitsIcESaIcEEEPmb@Base 0.9.1-3~
 _ZN5vmime3net4imap10IMAPParser11media_basic2goERS2_RNSt7__cxx1112basic_stringIcSt11char_traitsIcESaIcEEEPm@Base 0.9.1-3~
 _ZN5vmime3net4imap10IMAPParser11media_basicD0Ev@Base 0.9.1-3~
 _ZN5vmime3net4imap10IMAPParser11media_basicD1Ev@Base 0.9.1-3~
 _ZN5vmime3net4imap10IMAPParser11media_basicD2Ev@Base 0.9.1-3~
 _ZN5vmime3net4imap10IMAPParser11quoted_text2goERS2_RNSt7__cxx1112basic_stringIcSt11char_traitsIcESaIcEEEPm@Base 0.9.1-3~
 _ZN5vmime3net4imap10IMAPParser11quoted_textD0Ev@Base 0.9.1-3~
 _ZN5vmime3net4imap10IMAPParser11quoted_textD1Ev@Base 0.9.1-3~
 _ZN5vmime3net4imap10IMAPParser11quoted_textD2Ev@Base 0.9.1-3~
 _ZN5vmime3net4imap10IMAPParser11readLiteralERNS2_14literalHandler6targetEm@Base 0.9.1-3~
 _ZN5vmime3net4imap10IMAPParser11status_info2goERS2_RNSt7__cxx1112basic_stringIcSt11char_traitsIcESaIcEEEPm@Base 0.9.1-3~
 _ZN5vmime3net4imap10IMAPParser11status_infoD0Ev@Base 0.9.1-3~
 _ZN5vmime3net4imap10IMAPParser11status_infoD1Ev@Base 0.9.1-3~
 _ZN5vmime3net4imap10IMAPParser11status_infoD2Ev@Base 0.9.1-3~
 _ZN5vmime3net4imap10IMAPParser11text_exceptILc93EED0Ev@Base 0.9.1-3~
 _ZN5vmime3net4imap10IMAPParser11text_exceptILc93EED1Ev@Base 0.9.1-3~
 _ZN5vmime3net4imap10IMAPParser11text_exceptILc93EED2Ev@Base 0.9.1-3~
 _ZN5vmime3net4imap10IMAPParser12address_list2goERS2_RNSt7__cxx1112basic_stringIcSt11char_traitsIcESaIcEEEPm@Base 0.9.1-3~
 _ZN5vmime3net4imap10IMAPParser12address_listD0Ev@Base 0.9.1-3~
 _ZN5vmime3net4imap10IMAPParser12address_listD1Ev@Base 0.9.1-3~
 _ZN5vmime3net4imap10IMAPParser12address_listD2Ev@Base 0.9.1-3~
 _ZN5vmime3net4imap10IMAPParser12body_fld_dsp2goERS2_RNSt7__cxx1112basic_stringIcSt11char_traitsIcESaIcEEEPm@Base 0.9.1-3~
 _ZN5vmime3net4imap10IMAPParser12body_fld_dspD0Ev@Base 0.9.1-3~
 _ZN5vmime3net4imap10IMAPParser12body_fld_dspD1Ev@Base 0.9.1-3~
 _ZN5vmime3net4imap10IMAPParser12body_fld_dspD2Ev@Base 0.9.1-3~
 _ZN5vmime3net4imap10IMAPParser12checkWithArgINS2_12special_atomEPKcEEbRNSt7__cxx1112basic_stringIcSt11char_traitsIcESaIcEEEPmT0_b@Base 0.9.1-3~
 _ZN5vmime3net4imap10IMAPParser12continue_req2goERS2_RNSt7__cxx1112basic_stringIcSt11char_traitsIcESaIcEEEPm@Base 0.9.1-3~
 _ZN5vmime3net4imap10IMAPParser12continue_reqD0Ev@Base 0.9.1-3~
 _ZN5vmime3net4imap10IMAPParser12continue_reqD1Ev@Base 0.9.1-3~
 _ZN5vmime3net4imap10IMAPParser12continue_reqD2Ev@Base 0.9.1-3~
 _ZN5vmime3net4imap10IMAPParser12env_reply_to2goERS2_RNSt7__cxx1112basic_stringIcSt11char_traitsIcESaIcEEEPm@Base 0.9.1-3~
 _ZN5vmime3net4imap10IMAPParser12env_reply_toD0Ev@Base 0.9.1-3~
 _ZN5vmime3net4imap10IMAPParser12env_reply_toD1Ev@Base 0.9.1-3~
 _ZN5vmime3net4imap10IMAPParser12env_reply_toD2Ev@Base 0.9.1-3~
 _ZN5vmime3net4imap10IMAPParser12mailbox_data2goERS2_RNSt7__cxx1112basic_stringIcSt11char_traitsIcESaIcEEEPm@Base 0.9.1-3~
 _ZN5vmime3net4imap10IMAPParser12mailbox_dataD0Ev@Base 0.9.1-3~
 _ZN5vmime3net4imap10IMAPParser12mailbox_dataD1Ev@Base 0.9.1-3~
 _ZN5vmime3net4imap10IMAPParser12mailbox_dataD2Ev@Base 0.9.1-3~
 _ZN5vmime3net4imap10IMAPParser12mailbox_flag2goERS2_RNSt7__cxx1112basic_stringIcSt11char_traitsIcESaIcEEEPm@Base 0.9.1-3~
 _ZN5vmime3net4imap10IMAPParser12mailbox_flagD0Ev@Base 0.9.1-3~
 _ZN5vmime3net4imap10IMAPParser12mailbox_flagD1Ev@Base 0.9.1-3~
 _ZN5vmime3net4imap10IMAPParser12mailbox_flagD2Ev@Base 0.9.1-3~
 _ZN5vmime3net4imap10IMAPParser12mailbox_list2goERS2_RNSt7__cxx1112basic_stringIcSt11char_traitsIcESaIcEEEPm@Base 0.9.1-3~
 _ZN5vmime3net4imap10IMAPParser12mailbox_listD0Ev@Base 0.9.1-3~
 _ZN5vmime3net4imap10IMAPParser12mailbox_listD1Ev@Base 0.9.1-3~
 _ZN5vmime3net4imap10IMAPParser12mailbox_listD2Ev@Base 0.9.1-3~
 _ZN5vmime3net4imap10IMAPParser12message_data2goERS2_RNSt7__cxx1112basic_stringIcSt11char_traitsIcESaIcEEEPm@Base 0.9.1-3~
 _ZN5vmime3net4imap10IMAPParser12message_dataD0Ev@Base 0.9.1-3~
 _ZN5vmime3net4imap10IMAPParser12message_dataD1Ev@Base 0.9.1-3~
 _ZN5vmime3net4imap10IMAPParser12message_dataD2Ev@Base 0.9.1-3~
 _ZN5vmime3net4imap10IMAPParser12msg_att_item2goERS2_RNSt7__cxx1112basic_stringIcSt11char_traitsIcESaIcEEEPm@Base 0.9.1-3~
 _ZN5vmime3net4imap10IMAPParser12msg_att_itemD0Ev@Base 0.9.1-3~
 _ZN5vmime3net4imap10IMAPParser12msg_att_itemD1Ev@Base 0.9.1-3~
 _ZN5vmime3net4imap10IMAPParser12msg_att_itemD2Ev@Base 0.9.1-3~
 _ZN5vmime3net4imap10IMAPParser12readResponseEPNS2_14literalHandlerE@Base 0.9.1-3~
 _ZN5vmime3net4imap10IMAPParser12section_text2goERS2_RNSt7__cxx1112basic_stringIcSt11char_traitsIcESaIcEEEPm@Base 0.9.1-3~
 _ZN5vmime3net4imap10IMAPParser12section_textD0Ev@Base 0.9.1-3~
 _ZN5vmime3net4imap10IMAPParser12section_textD1Ev@Base 0.9.1-3~
 _ZN5vmime3net4imap10IMAPParser12section_textD2Ev@Base 0.9.1-3~
 _ZN5vmime3net4imap10IMAPParser12special_atom2goERS2_RNSt7__cxx1112basic_stringIcSt11char_traitsIcESaIcEEEPm@Base 0.9.1-3~
 _ZN5vmime3net4imap10IMAPParser12special_atomD0Ev@Base 0.9.1-3~
 _ZN5vmime3net4imap10IMAPParser12special_atomD1Ev@Base 0.9.1-3~
 _ZN5vmime3net4imap10IMAPParser12special_atomD2Ev@Base 0.9.1-3~
 _ZN5vmime3net4imap10IMAPParser12text8_exceptILc63EED0Ev@Base 0.9.1-3~
 _ZN5vmime3net4imap10IMAPParser12text8_exceptILc63EED1Ev@Base 0.9.1-3~
 _ZN5vmime3net4imap10IMAPParser12text8_exceptILc63EED2Ev@Base 0.9.1-3~
 _ZN5vmime3net4imap10IMAPParser13body_fld_lang2goERS2_RNSt7__cxx1112basic_stringIcSt11char_traitsIcESaIcEEEPm@Base 0.9.1-3~
 _ZN5vmime3net4imap10IMAPParser13body_fld_langD0Ev@Base 0.9.1-3~
 _ZN5vmime3net4imap10IMAPParser13body_fld_langD1Ev@Base 0.9.1-3~
 _ZN5vmime3net4imap10IMAPParser13body_fld_langD2Ev@Base 0.9.1-3~
 _ZN5vmime3net4imap10IMAPParser13body_type_msg2goERS2_RNSt7__cxx1112basic_stringIcSt11char_traitsIcESaIcEEEPm@Base 0.9.1-3~
 _ZN5vmime3net4imap10IMAPParser13body_type_msgD0Ev@Base 0.9.1-3~
 _ZN5vmime3net4imap10IMAPParser13body_type_msgD1Ev@Base 0.9.1-3~
 _ZN5vmime3net4imap10IMAPParser13body_type_msgD2Ev@Base 0.9.1-3~
 _ZN5vmime3net4imap10IMAPParser13media_message2goERS2_RNSt7__cxx1112basic_stringIcSt11char_traitsIcESaIcEEEPm@Base 0.9.1-3~
 _ZN5vmime3net4imap10IMAPParser13media_messageD0Ev@Base 0.9.1-3~
 _ZN5vmime3net4imap10IMAPParser13media_messageD1Ev@Base 0.9.1-3~
 _ZN5vmime3net4imap10IMAPParser13media_messageD2Ev@Base 0.9.1-3~
 _ZN5vmime3net4imap10IMAPParser13resp_cond_bye2goERS2_RNSt7__cxx1112basic_stringIcSt11char_traitsIcESaIcEEEPm@Base 0.9.1-3~
 _ZN5vmime3net4imap10IMAPParser13resp_cond_byeD0Ev@Base 0.9.1-3~
 _ZN5vmime3net4imap10IMAPParser13resp_cond_byeD1Ev@Base 0.9.1-3~
 _ZN5vmime3net4imap10IMAPParser13resp_cond_byeD2Ev@Base 0.9.1-3~
 _ZN5vmime3net4imap10IMAPParser13response_data2goERS2_RNSt7__cxx1112basic_stringIcSt11char_traitsIcESaIcEEEPm@Base 0.9.1-3~
 _ZN5vmime3net4imap10IMAPParser13response_dataD0Ev@Base 0.9.1-3~
 _ZN5vmime3net4imap10IMAPParser13response_dataD1Ev@Base 0.9.1-3~
 _ZN5vmime3net4imap10IMAPParser13response_dataD2Ev@Base 0.9.1-3~
 _ZN5vmime3net4imap10IMAPParser13response_done2goERS2_RNSt7__cxx1112basic_stringIcSt11char_traitsIcESaIcEEEPm@Base 0.9.1-3~
 _ZN5vmime3net4imap10IMAPParser13response_doneD0Ev@Base 0.9.1-3~
 _ZN5vmime3net4imap10IMAPParser13response_doneD1Ev@Base 0.9.1-3~
 _ZN5vmime3net4imap10IMAPParser13response_doneD2Ev@Base 0.9.1-3~
 _ZN5vmime3net4imap10IMAPParser14body_ext_1part2goERS2_RNSt7__cxx1112basic_stringIcSt11char_traitsIcESaIcEEEPm@Base 0.9.1-3~
 _ZN5vmime3net4imap10IMAPParser14body_ext_1partD0Ev@Base 0.9.1-3~
 _ZN5vmime3net4imap10IMAPParser14body_ext_1partD1Ev@Base 0.9.1-3~
 _ZN5vmime3net4imap10IMAPParser14body_ext_1partD2Ev@Base 0.9.1-3~
 _ZN5vmime3net4imap10IMAPParser14body_ext_mpart2goERS2_RNSt7__cxx1112basic_stringIcSt11char_traitsIcESaIcEEEPm@Base 0.9.1-3~
 _ZN5vmime3net4imap10IMAPParser14body_ext_mpartD0Ev@Base 0.9.1-3~
 _ZN5vmime3net4imap10IMAPParser14body_ext_mpartD1Ev@Base 0.9.1-3~
 _ZN5vmime3net4imap10IMAPParser14body_ext_mpartD2Ev@Base 0.9.1-3~
 _ZN5vmime3net4imap10IMAPParser14body_extension2goERS2_RNSt7__cxx1112basic_stringIcSt11char_traitsIcESaIcEEEPm@Base 0.9.1-3~
 _ZN5vmime3net4imap10IMAPParser14body_extensionD0Ev@Base 0.9.1-3~
 _ZN5vmime3net4imap10IMAPParser14body_extensionD1Ev@Base 0.9.1-3~
 _ZN5vmime3net4imap10IMAPParser14body_extensionD2Ev@Base 0.9.1-3~
 _ZN5vmime3net4imap10IMAPParser14body_fld_param2goERS2_RNSt7__cxx1112basic_stringIcSt11char_traitsIcESaIcEEEPm@Base 0.9.1-3~
 _ZN5vmime3net4imap10IMAPParser14body_fld_paramD0Ev@Base 0.9.1-3~
 _ZN5vmime3net4imap10IMAPParser14body_fld_paramD1Ev@Base 0.9.1-3~
 _ZN5vmime3net4imap10IMAPParser14body_fld_paramD2Ev@Base 0.9.1-3~
 _ZN5vmime3net4imap10IMAPParser14body_type_text2goERS2_RNSt7__cxx1112basic_stringIcSt11char_traitsIcESaIcEEEPm@Base 0.9.1-3~
 _ZN5vmime3net4imap10IMAPParser14body_type_textD0Ev@Base 0.9.1-3~
 _ZN5vmime3net4imap10IMAPParser14body_type_textD1Ev@Base 0.9.1-3~
 _ZN5vmime3net4imap10IMAPParser14body_type_textD2Ev@Base 0.9.1-3~
 _ZN5vmime3net4imap10IMAPParser14env_message_id2goERS2_RNSt7__cxx1112basic_stringIcSt11char_traitsIcESaIcEEEPm@Base 0.9.1-3~
 _ZN5vmime3net4imap10IMAPParser14env_message_idD0Ev@Base 0.9.1-3~
 _ZN5vmime3net4imap10IMAPParser14env_message_idD1Ev@Base 0.9.1-3~
 _ZN5vmime3net4imap10IMAPParser14env_message_idD2Ev@Base 0.9.1-3~
 _ZN5vmime3net4imap10IMAPParser14literalHandler12targetStream7putDataERKNSt7__cxx1112basic_stringIcSt11char_traitsIcESaIcEEE@Base 0.9.1-3~
 _ZN5vmime3net4imap10IMAPParser14literalHandler12targetStreamD0Ev@Base 0.9.1-3~
 _ZN5vmime3net4imap10IMAPParser14literalHandler12targetStreamD1Ev@Base 0.9.1-3~
 _ZN5vmime3net4imap10IMAPParser14literalHandler12targetStreamD2Ev@Base 0.9.1-3~
 _ZN5vmime3net4imap10IMAPParser14literalHandler12targetString7putDataERKNSt7__cxx1112basic_stringIcSt11char_traitsIcESaIcEEE@Base 0.9.1-3~
 _ZN5vmime3net4imap10IMAPParser14literalHandler12targetStringD0Ev@Base 0.9.1-3~
 _ZN5vmime3net4imap10IMAPParser14literalHandler12targetStringD1Ev@Base 0.9.1-3~
 _ZN5vmime3net4imap10IMAPParser14literalHandler12targetStringD2Ev@Base 0.9.1-3~
 _ZN5vmime3net4imap10IMAPParser14resp_cond_auth2goERS2_RNSt7__cxx1112basic_stringIcSt11char_traitsIcESaIcEEEPm@Base 0.9.1-3~
 _ZN5vmime3net4imap10IMAPParser14resp_cond_authD0Ev@Base 0.9.1-3~
 _ZN5vmime3net4imap10IMAPParser14resp_cond_authD1Ev@Base 0.9.1-3~
 _ZN5vmime3net4imap10IMAPParser14resp_cond_authD2Ev@Base 0.9.1-3~
 _ZN5vmime3net4imap10IMAPParser14resp_text_code2goERS2_RNSt7__cxx1112basic_stringIcSt11char_traitsIcESaIcEEEPm@Base 0.9.1-3~
 _ZN5vmime3net4imap10IMAPParser14resp_text_codeD0Ev@Base 0.9.1-3~
 _ZN5vmime3net4imap10IMAPParser14resp_text_codeD1Ev@Base 0.9.1-3~
 _ZN5vmime3net4imap10IMAPParser14resp_text_codeD2Ev@Base 0.9.1-3~
 _ZN5vmime3net4imap10IMAPParser14response_fatal2goERS2_RNSt7__cxx1112basic_stringIcSt11char_traitsIcESaIcEEEPm@Base 0.9.1-3~
 _ZN5vmime3net4imap10IMAPParser14response_fatalD0Ev@Base 0.9.1-3~
 _ZN5vmime3net4imap10IMAPParser14response_fatalD1Ev@Base 0.9.1-3~
 _ZN5vmime3net4imap10IMAPParser14response_fatalD2Ev@Base 0.9.1-3~
 _ZN5vmime3net4imap10IMAPParser15body_type_1part2goERS2_RNSt7__cxx1112basic_stringIcSt11char_traitsIcESaIcEEEPm@Base 0.9.1-3~
 _ZN5vmime3net4imap10IMAPParser15body_type_1partD0Ev@Base 0.9.1-3~
 _ZN5vmime3net4imap10IMAPParser15body_type_1partD1Ev@Base 0.9.1-3~
 _ZN5vmime3net4imap10IMAPParser15body_type_1partD2Ev@Base 0.9.1-3~
 _ZN5vmime3net4imap10IMAPParser15body_type_basic2goERS2_RNSt7__cxx1112basic_stringIcSt11char_traitsIcESaIcEEEPm@Base 0.9.1-3~
 _ZN5vmime3net4imap10IMAPParser15body_type_basicD0Ev@Base 0.9.1-3~
 _ZN5vmime3net4imap10IMAPParser15body_type_basicD1Ev@Base 0.9.1-3~
 _ZN5vmime3net4imap10IMAPParser15body_type_basicD2Ev@Base 0.9.1-3~
 _ZN5vmime3net4imap10IMAPParser15body_type_mpart2goERS2_RNSt7__cxx1112basic_stringIcSt11char_traitsIcESaIcEEEPm@Base 0.9.1-3~
 _ZN5vmime3net4imap10IMAPParser15body_type_mpartD0Ev@Base 0.9.1-3~
 _ZN5vmime3net4imap10IMAPParser15body_type_mpartD1Ev@Base 0.9.1-3~
 _ZN5vmime3net4imap10IMAPParser15body_type_mpartD2Ev@Base 0.9.1-3~
 _ZN5vmime3net4imap10IMAPParser15capability_data2goERS2_RNSt7__cxx1112basic_stringIcSt11char_traitsIcESaIcEEEPm@Base 0.9.1-3~
 _ZN5vmime3net4imap10IMAPParser15capability_dataD0Ev@Base 0.9.1-3~
 _ZN5vmime3net4imap10IMAPParser15capability_dataD1Ev@Base 0.9.1-3~
 _ZN5vmime3net4imap10IMAPParser15capability_dataD2Ev@Base 0.9.1-3~
 _ZN5vmime3net4imap10IMAPParser15env_in_reply_to2goERS2_RNSt7__cxx1112basic_stringIcSt11char_traitsIcESaIcEEEPm@Base 0.9.1-3~
 _ZN5vmime3net4imap10IMAPParser15env_in_reply_toD0Ev@Base 0.9.1-3~
 _ZN5vmime3net4imap10IMAPParser15env_in_reply_toD1Ev@Base 0.9.1-3~
 _ZN5vmime3net4imap10IMAPParser15env_in_reply_toD2Ev@Base 0.9.1-3~
 _ZN5vmime3net4imap10IMAPParser15resp_cond_state2goERS2_RNSt7__cxx1112basic_stringIcSt11char_traitsIcESaIcEEEPm@Base 0.9.1-3~
 _ZN5vmime3net4imap10IMAPParser15resp_cond_stateD0Ev@Base 0.9.1-3~
 _ZN5vmime3net4imap10IMAPParser15resp_cond_stateD1Ev@Base 0.9.1-3~
 _ZN5vmime3net4imap10IMAPParser15resp_cond_stateD2Ev@Base 0.9.1-3~
 _ZN5vmime3net4imap10IMAPParser15response_tagged2goERS2_RNSt7__cxx1112basic_stringIcSt11char_traitsIcESaIcEEEPm@Base 0.9.1-3~
 _ZN5vmime3net4imap10IMAPParser15response_taggedD0Ev@Base 0.9.1-3~
 _ZN5vmime3net4imap10IMAPParser15response_taggedD1Ev@Base 0.9.1-3~
 _ZN5vmime3net4imap10IMAPParser15response_taggedD2Ev@Base 0.9.1-3~
 _ZN5vmime3net4imap10IMAPParser17mailbox_flag_list2goERS2_RNSt7__cxx1112basic_stringIcSt11char_traitsIcESaIcEEEPm@Base 0.9.1-3~
 _ZN5vmime3net4imap10IMAPParser17mailbox_flag_listD0Ev@Base 0.9.1-3~
 _ZN5vmime3net4imap10IMAPParser17mailbox_flag_listD1Ev@Base 0.9.1-3~
 _ZN5vmime3net4imap10IMAPParser17mailbox_flag_listD2Ev@Base 0.9.1-3~
 _ZN5vmime3net4imap10IMAPParser19body_fld_param_item2goERS2_RNSt7__cxx1112basic_stringIcSt11char_traitsIcESaIcEEEPm@Base 0.9.1-3~
 _ZN5vmime3net4imap10IMAPParser19body_fld_param_itemD0Ev@Base 0.9.1-3~
 _ZN5vmime3net4imap10IMAPParser19body_fld_param_itemD1Ev@Base 0.9.1-3~
 _ZN5vmime3net4imap10IMAPParser19body_fld_param_itemD2Ev@Base 0.9.1-3~
 _ZN5vmime3net4imap10IMAPParser29continue_req_or_response_data2goERS2_RNSt7__cxx1112basic_stringIcSt11char_traitsIcESaIcEEEPm@Base 0.9.1-3~
 _ZN5vmime3net4imap10IMAPParser29continue_req_or_response_dataD0Ev@Base 0.9.1-3~
 _ZN5vmime3net4imap10IMAPParser29continue_req_or_response_dataD1Ev@Base 0.9.1-3~
 _ZN5vmime3net4imap10IMAPParser29continue_req_or_response_dataD2Ev@Base 0.9.1-3~
 _ZN5vmime3net4imap10IMAPParser3getINS2_14body_extensionEEEPT_RNSt7__cxx1112basic_stringIcSt11char_traitsIcESaIcEEEPmb@Base 0.9.1-3~
 _ZN5vmime3net4imap10IMAPParser3getINS2_4atomEEEPT_RNSt7__cxx1112basic_stringIcSt11char_traitsIcESaIcEEEPmb@Base 0.9.1-3~
 _ZN5vmime3net4imap10IMAPParser3getINS2_5xbodyEEEPT_RNSt7__cxx1112basic_stringIcSt11char_traitsIcESaIcEEEPmb@Base 0.9.1-3~
 _ZN5vmime3net4imap10IMAPParser3getINS2_6numberEEEPT_RNSt7__cxx1112basic_stringIcSt11char_traitsIcESaIcEEEPmb@Base 0.9.1-3~
 _ZN5vmime3net4imap10IMAPParser3getINS2_7nstringEEEPT_RNSt7__cxx1112basic_stringIcSt11char_traitsIcESaIcEEEPmb@Base 0.9.1-3~
 _ZN5vmime3net4imap10IMAPParser3getINS2_7xstringEEEPT_RNSt7__cxx1112basic_stringIcSt11char_traitsIcESaIcEEEPmb@Base 0.9.1-3~
 _ZN5vmime3net4imap10IMAPParser3getINS2_9nz_numberEEEPT_RNSt7__cxx1112basic_stringIcSt11char_traitsIcESaIcEEEPmb@Base 0.9.1-3~
 _ZN5vmime3net4imap10IMAPParser4CRLF2goERS2_RNSt7__cxx1112basic_stringIcSt11char_traitsIcESaIcEEEPm@Base 0.9.1-3~
 _ZN5vmime3net4imap10IMAPParser4CRLFD0Ev@Base 0.9.1-3~
 _ZN5vmime3net4imap10IMAPParser4CRLFD1Ev@Base 0.9.1-3~
 _ZN5vmime3net4imap10IMAPParser4CRLFD2Ev@Base 0.9.1-3~
 _ZN5vmime3net4imap10IMAPParser4atom2goERS2_RNSt7__cxx1112basic_stringIcSt11char_traitsIcESaIcEEEPm@Base 0.9.1-3~
 _ZN5vmime3net4imap10IMAPParser4atomD0Ev@Base 0.9.1-3~
 _ZN5vmime3net4imap10IMAPParser4atomD1Ev@Base 0.9.1-3~
 _ZN5vmime3net4imap10IMAPParser4atomD2Ev@Base 0.9.1-3~
 _ZN5vmime3net4imap10IMAPParser4flag2goERS2_RNSt7__cxx1112basic_stringIcSt11char_traitsIcESaIcEEEPm@Base 0.9.1-3~
 _ZN5vmime3net4imap10IMAPParser4flagD0Ev@Base 0.9.1-3~
 _ZN5vmime3net4imap10IMAPParser4flagD1Ev@Base 0.9.1-3~
 _ZN5vmime3net4imap10IMAPParser4flagD2Ev@Base 0.9.1-3~
 _ZN5vmime3net4imap10IMAPParser4readEv@Base 0.9.1-3~
 _ZN5vmime3net4imap10IMAPParser4text2goERS2_RNSt7__cxx1112basic_stringIcSt11char_traitsIcESaIcEEEPm@Base 0.9.1-3~
 _ZN5vmime3net4imap10IMAPParser4textD0Ev@Base 0.9.1-3~
 _ZN5vmime3net4imap10IMAPParser4textD1Ev@Base 0.9.1-3~
 _ZN5vmime3net4imap10IMAPParser4textD2Ev@Base 0.9.1-3~
 _ZN5vmime3net4imap10IMAPParser4xtag2goERS2_RNSt7__cxx1112basic_stringIcSt11char_traitsIcESaIcEEEPm@Base 0.9.1-3~
 _ZN5vmime3net4imap10IMAPParser4xtagD0Ev@Base 0.9.1-3~
 _ZN5vmime3net4imap10IMAPParser4xtagD1Ev@Base 0.9.1-3~
 _ZN5vmime3net4imap10IMAPParser4xtagD2Ev@Base 0.9.1-3~
 _ZN5vmime3net4imap10IMAPParser5SPACE2goERS2_RNSt7__cxx1112basic_stringIcSt11char_traitsIcESaIcEEEPm@Base 0.9.1-3~
 _ZN5vmime3net4imap10IMAPParser5SPACED0Ev@Base 0.9.1-3~
 _ZN5vmime3net4imap10IMAPParser5SPACED1Ev@Base 0.9.1-3~
 _ZN5vmime3net4imap10IMAPParser5SPACED2Ev@Base 0.9.1-3~
 _ZN5vmime3net4imap10IMAPParser5checkINS2_3NILEEEbRNSt7__cxx1112basic_stringIcSt11char_traitsIcESaIcEEEPmb@Base 0.9.1-3~
 _ZN5vmime3net4imap10IMAPParser5checkINS2_4CRLFEEEbRNSt7__cxx1112basic_stringIcSt11char_traitsIcESaIcEEEPmb@Base 0.9.1-3~
 _ZN5vmime3net4imap10IMAPParser5checkINS2_5SPACEEEEbRNSt7__cxx1112basic_stringIcSt11char_traitsIcESaIcEEEPmb@Base 0.9.1-3~
 _ZN5vmime3net4imap10IMAPParser5checkINS2_8one_charILc34EEEEEbRNSt7__cxx1112basic_stringIcSt11char_traitsIcESaIcEEEPmb@Base 0.9.1-3~
 _ZN5vmime3net4imap10IMAPParser5checkINS2_8one_charILc40EEEEEbRNSt7__cxx1112basic_stringIcSt11char_traitsIcESaIcEEEPmb@Base 0.9.1-3~
 _ZN5vmime3net4imap10IMAPParser5checkINS2_8one_charILc41EEEEEbRNSt7__cxx1112basic_stringIcSt11char_traitsIcESaIcEEEPmb@Base 0.9.1-3~
 _ZN5vmime3net4imap10IMAPParser5checkINS2_8one_charILc42EEEEEbRNSt7__cxx1112basic_stringIcSt11char_traitsIcESaIcEEEPmb@Base 0.9.1-3~
 _ZN5vmime3net4imap10IMAPParser5checkINS2_8one_charILc45EEEEEbRNSt7__cxx1112basic_stringIcSt11char_traitsIcESaIcEEEPmb@Base 0.9.1-3~
 _ZN5vmime3net4imap10IMAPParser5checkINS2_8one_charILc58EEEEEbRNSt7__cxx1112basic_stringIcSt11char_traitsIcESaIcEEEPmb@Base 0.9.1-3~
 _ZN5vmime3net4imap10IMAPParser5checkINS2_8one_charILc61EEEEEbRNSt7__cxx1112basic_stringIcSt11char_traitsIcESaIcEEEPmb@Base 0.9.1-3~
 _ZN5vmime3net4imap10IMAPParser5checkINS2_8one_charILc63EEEEEbRNSt7__cxx1112basic_stringIcSt11char_traitsIcESaIcEEEPmb@Base 0.9.1-3~
 _ZN5vmime3net4imap10IMAPParser5checkINS2_8one_charILc93EEEEEbRNSt7__cxx1112basic_stringIcSt11char_traitsIcESaIcEEEPmb@Base 0.9.1-3~
 _ZN5vmime3net4imap10IMAPParser5xbody2goERS2_RNSt7__cxx1112basic_stringIcSt11char_traitsIcESaIcEEEPm@Base 0.9.1-3~
 _ZN5vmime3net4imap10IMAPParser5xbodyD0Ev@Base 0.9.1-3~
 _ZN5vmime3net4imap10IMAPParser5xbodyD1Ev@Base 0.9.1-3~
 _ZN5vmime3net4imap10IMAPParser5xbodyD2Ev@Base 0.9.1-3~
 _ZN5vmime3net4imap10IMAPParser6env_cc2goERS2_RNSt7__cxx1112basic_stringIcSt11char_traitsIcESaIcEEEPm@Base 0.9.1-3~
 _ZN5vmime3net4imap10IMAPParser6env_ccD0Ev@Base 0.9.1-3~
 _ZN5vmime3net4imap10IMAPParser6env_ccD1Ev@Base 0.9.1-3~
 _ZN5vmime3net4imap10IMAPParser6env_ccD2Ev@Base 0.9.1-3~
 _ZN5vmime3net4imap10IMAPParser6env_to2goERS2_RNSt7__cxx1112basic_stringIcSt11char_traitsIcESaIcEEEPm@Base 0.9.1-3~
 _ZN5vmime3net4imap10IMAPParser6env_toD0Ev@Base 0.9.1-3~
 _ZN5vmime3net4imap10IMAPParser6env_toD1Ev@Base 0.9.1-3~
 _ZN5vmime3net4imap10IMAPParser6env_toD2Ev@Base 0.9.1-3~
 _ZN5vmime3net4imap10IMAPParser6number2goERS2_RNSt7__cxx1112basic_stringIcSt11char_traitsIcESaIcEEEPm@Base 0.9.1-3~
 _ZN5vmime3net4imap10IMAPParser6numberD0Ev@Base 0.9.1-3~
 _ZN5vmime3net4imap10IMAPParser6numberD1Ev@Base 0.9.1-3~
 _ZN5vmime3net4imap10IMAPParser6numberD2Ev@Base 0.9.1-3~
 _ZN5vmime3net4imap10IMAPParser7address2goERS2_RNSt7__cxx1112basic_stringIcSt11char_traitsIcESaIcEEEPm@Base 0.9.1-3~
 _ZN5vmime3net4imap10IMAPParser7addressD0Ev@Base 0.9.1-3~
 _ZN5vmime3net4imap10IMAPParser7addressD1Ev@Base 0.9.1-3~
 _ZN5vmime3net4imap10IMAPParser7addressD2Ev@Base 0.9.1-3~
 _ZN5vmime3net4imap10IMAPParser7astring2goERS2_RNSt7__cxx1112basic_stringIcSt11char_traitsIcESaIcEEEPm@Base 0.9.1-3~
 _ZN5vmime3net4imap10IMAPParser7astringD0Ev@Base 0.9.1-3~
 _ZN5vmime3net4imap10IMAPParser7astringD1Ev@Base 0.9.1-3~
 _ZN5vmime3net4imap10IMAPParser7astringD2Ev@Base 0.9.1-3~
 _ZN5vmime3net4imap10IMAPParser7env_bcc2goERS2_RNSt7__cxx1112basic_stringIcSt11char_traitsIcESaIcEEEPm@Base 0.9.1-3~
 _ZN5vmime3net4imap10IMAPParser7env_bccD0Ev@Base 0.9.1-3~
 _ZN5vmime3net4imap10IMAPParser7env_bccD1Ev@Base 0.9.1-3~
 _ZN5vmime3net4imap10IMAPParser7env_bccD2Ev@Base 0.9.1-3~
 _ZN5vmime3net4imap10IMAPParser7mailbox2goERS2_RNSt7__cxx1112basic_stringIcSt11char_traitsIcESaIcEEEPm@Base 0.9.1-3~
 _ZN5vmime3net4imap10IMAPParser7mailboxD0Ev@Base 0.9.1-3~
 _ZN5vmime3net4imap10IMAPParser7mailboxD1Ev@Base 0.9.1-3~
 _ZN5vmime3net4imap10IMAPParser7mailboxD2Ev@Base 0.9.1-3~
 _ZN5vmime3net4imap10IMAPParser7msg_att2goERS2_RNSt7__cxx1112basic_stringIcSt11char_traitsIcESaIcEEEPm@Base 0.9.1-3~
 _ZN5vmime3net4imap10IMAPParser7msg_attD0Ev@Base 0.9.1-3~
 _ZN5vmime3net4imap10IMAPParser7msg_attD1Ev@Base 0.9.1-3~
 _ZN5vmime3net4imap10IMAPParser7msg_attD2Ev@Base 0.9.1-3~
 _ZN5vmime3net4imap10IMAPParser7nstringD0Ev@Base 0.9.1-3~
 _ZN5vmime3net4imap10IMAPParser7nstringD1Ev@Base 0.9.1-3~
 _ZN5vmime3net4imap10IMAPParser7nstringD2Ev@Base 0.9.1-3~
 _ZN5vmime3net4imap10IMAPParser7section2goERS2_RNSt7__cxx1112basic_stringIcSt11char_traitsIcESaIcEEEPm@Base 0.9.1-3~
 _ZN5vmime3net4imap10IMAPParser7sectionD0Ev@Base 0.9.1-3~
 _ZN5vmime3net4imap10IMAPParser7sectionD1Ev@Base 0.9.1-3~
 _ZN5vmime3net4imap10IMAPParser7sectionD2Ev@Base 0.9.1-3~
 _ZN5vmime3net4imap10IMAPParser7xstring2goERS2_RNSt7__cxx1112basic_stringIcSt11char_traitsIcESaIcEEEPm@Base 0.9.1-3~
 _ZN5vmime3net4imap10IMAPParser7xstringD0Ev@Base 0.9.1-3~
 _ZN5vmime3net4imap10IMAPParser7xstringD1Ev@Base 0.9.1-3~
 _ZN5vmime3net4imap10IMAPParser7xstringD2Ev@Base 0.9.1-3~
 _ZN5vmime3net4imap10IMAPParser8env_date2goERS2_RNSt7__cxx1112basic_stringIcSt11char_traitsIcESaIcEEEPm@Base 0.9.1-3~
 _ZN5vmime3net4imap10IMAPParser8env_dateD0Ev@Base 0.9.1-3~
 _ZN5vmime3net4imap10IMAPParser8env_dateD1Ev@Base 0.9.1-3~
 _ZN5vmime3net4imap10IMAPParser8env_dateD2Ev@Base 0.9.1-3~
 _ZN5vmime3net4imap10IMAPParser8env_from2goERS2_RNSt7__cxx1112basic_stringIcSt11char_traitsIcESaIcEEEPm@Base 0.9.1-3~
 _ZN5vmime3net4imap10IMAPParser8env_fromD0Ev@Base 0.9.1-3~
 _ZN5vmime3net4imap10IMAPParser8env_fromD1Ev@Base 0.9.1-3~
 _ZN5vmime3net4imap10IMAPParser8env_fromD2Ev@Base 0.9.1-3~
 _ZN5vmime3net4imap10IMAPParser8envelope2goERS2_RNSt7__cxx1112basic_stringIcSt11char_traitsIcESaIcEEEPm@Base 0.9.1-3~
 _ZN5vmime3net4imap10IMAPParser8envelopeD0Ev@Base 0.9.1-3~
 _ZN5vmime3net4imap10IMAPParser8envelopeD1Ev@Base 0.9.1-3~
 _ZN5vmime3net4imap10IMAPParser8envelopeD2Ev@Base 0.9.1-3~
 _ZN5vmime3net4imap10IMAPParser8greeting2goERS2_RNSt7__cxx1112basic_stringIcSt11char_traitsIcESaIcEEEPm@Base 0.9.1-3~
 _ZN5vmime3net4imap10IMAPParser8greetingD0Ev@Base 0.9.1-3~
 _ZN5vmime3net4imap10IMAPParser8greetingD1Ev@Base 0.9.1-3~
 _ZN5vmime3net4imap10IMAPParser8greetingD2Ev@Base 0.9.1-3~
 _ZN5vmime3net4imap10IMAPParser8one_charILc123EE2goERS2_RNSt7__cxx1112basic_stringIcSt11char_traitsIcESaIcEEEPm@Base 0.9.1-3~
 _ZN5vmime3net4imap10IMAPParser8one_charILc123EED0Ev@Base 0.9.1-3~
 _ZN5vmime3net4imap10IMAPParser8one_charILc123EED1Ev@Base 0.9.1-3~
 _ZN5vmime3net4imap10IMAPParser8one_charILc123EED2Ev@Base 0.9.1-3~
 _ZN5vmime3net4imap10IMAPParser8one_charILc125EE2goERS2_RNSt7__cxx1112basic_stringIcSt11char_traitsIcESaIcEEEPm@Base 0.9.1-3~
 _ZN5vmime3net4imap10IMAPParser8one_charILc125EED0Ev@Base 0.9.1-3~
 _ZN5vmime3net4imap10IMAPParser8one_charILc125EED1Ev@Base 0.9.1-3~
 _ZN5vmime3net4imap10IMAPParser8one_charILc125EED2Ev@Base 0.9.1-3~
 _ZN5vmime3net4imap10IMAPParser8one_charILc34EE2goERS2_RNSt7__cxx1112basic_stringIcSt11char_traitsIcESaIcEEEPm@Base 0.9.1-3~
 _ZN5vmime3net4imap10IMAPParser8one_charILc34EED0Ev@Base 0.9.1-3~
 _ZN5vmime3net4imap10IMAPParser8one_charILc34EED1Ev@Base 0.9.1-3~
 _ZN5vmime3net4imap10IMAPParser8one_charILc34EED2Ev@Base 0.9.1-3~
 _ZN5vmime3net4imap10IMAPParser8one_charILc40EE2goERS2_RNSt7__cxx1112basic_stringIcSt11char_traitsIcESaIcEEEPm@Base 0.9.1-3~
 _ZN5vmime3net4imap10IMAPParser8one_charILc40EED0Ev@Base 0.9.1-3~
 _ZN5vmime3net4imap10IMAPParser8one_charILc40EED1Ev@Base 0.9.1-3~
 _ZN5vmime3net4imap10IMAPParser8one_charILc40EED2Ev@Base 0.9.1-3~
 _ZN5vmime3net4imap10IMAPParser8one_charILc41EE2goERS2_RNSt7__cxx1112basic_stringIcSt11char_traitsIcESaIcEEEPm@Base 0.9.1-3~
 _ZN5vmime3net4imap10IMAPParser8one_charILc41EED0Ev@Base 0.9.1-3~
 _ZN5vmime3net4imap10IMAPParser8one_charILc41EED1Ev@Base 0.9.1-3~
 _ZN5vmime3net4imap10IMAPParser8one_charILc41EED2Ev@Base 0.9.1-3~
 _ZN5vmime3net4imap10IMAPParser8one_charILc42EE2goERS2_RNSt7__cxx1112basic_stringIcSt11char_traitsIcESaIcEEEPm@Base 0.9.1-3~
 _ZN5vmime3net4imap10IMAPParser8one_charILc42EED0Ev@Base 0.9.1-3~
 _ZN5vmime3net4imap10IMAPParser8one_charILc42EED1Ev@Base 0.9.1-3~
 _ZN5vmime3net4imap10IMAPParser8one_charILc42EED2Ev@Base 0.9.1-3~
 _ZN5vmime3net4imap10IMAPParser8one_charILc43EE2goERS2_RNSt7__cxx1112basic_stringIcSt11char_traitsIcESaIcEEEPm@Base 0.9.1-3~
 _ZN5vmime3net4imap10IMAPParser8one_charILc43EED0Ev@Base 0.9.1-3~
 _ZN5vmime3net4imap10IMAPParser8one_charILc43EED1Ev@Base 0.9.1-3~
 _ZN5vmime3net4imap10IMAPParser8one_charILc43EED2Ev@Base 0.9.1-3~
 _ZN5vmime3net4imap10IMAPParser8one_charILc45EE2goERS2_RNSt7__cxx1112basic_stringIcSt11char_traitsIcESaIcEEEPm@Base 0.9.1-3~
 _ZN5vmime3net4imap10IMAPParser8one_charILc45EED0Ev@Base 0.9.1-3~
 _ZN5vmime3net4imap10IMAPParser8one_charILc45EED1Ev@Base 0.9.1-3~
 _ZN5vmime3net4imap10IMAPParser8one_charILc45EED2Ev@Base 0.9.1-3~
 _ZN5vmime3net4imap10IMAPParser8one_charILc46EE2goERS2_RNSt7__cxx1112basic_stringIcSt11char_traitsIcESaIcEEEPm@Base 0.9.1-3~
 _ZN5vmime3net4imap10IMAPParser8one_charILc46EED0Ev@Base 0.9.1-3~
 _ZN5vmime3net4imap10IMAPParser8one_charILc46EED1Ev@Base 0.9.1-3~
 _ZN5vmime3net4imap10IMAPParser8one_charILc46EED2Ev@Base 0.9.1-3~
 _ZN5vmime3net4imap10IMAPParser8one_charILc58EE2goERS2_RNSt7__cxx1112basic_stringIcSt11char_traitsIcESaIcEEEPm@Base 0.9.1-3~
 _ZN5vmime3net4imap10IMAPParser8one_charILc58EED0Ev@Base 0.9.1-3~
 _ZN5vmime3net4imap10IMAPParser8one_charILc58EED1Ev@Base 0.9.1-3~
 _ZN5vmime3net4imap10IMAPParser8one_charILc58EED2Ev@Base 0.9.1-3~
 _ZN5vmime3net4imap10IMAPParser8one_charILc60EE2goERS2_RNSt7__cxx1112basic_stringIcSt11char_traitsIcESaIcEEEPm@Base 0.9.1-3~
 _ZN5vmime3net4imap10IMAPParser8one_charILc60EED0Ev@Base 0.9.1-3~
 _ZN5vmime3net4imap10IMAPParser8one_charILc60EED1Ev@Base 0.9.1-3~
 _ZN5vmime3net4imap10IMAPParser8one_charILc60EED2Ev@Base 0.9.1-3~
 _ZN5vmime3net4imap10IMAPParser8one_charILc61EE2goERS2_RNSt7__cxx1112basic_stringIcSt11char_traitsIcESaIcEEEPm@Base 0.9.1-3~
 _ZN5vmime3net4imap10IMAPParser8one_charILc61EED0Ev@Base 0.9.1-3~
 _ZN5vmime3net4imap10IMAPParser8one_charILc61EED1Ev@Base 0.9.1-3~
 _ZN5vmime3net4imap10IMAPParser8one_charILc61EED2Ev@Base 0.9.1-3~
 _ZN5vmime3net4imap10IMAPParser8one_charILc62EE2goERS2_RNSt7__cxx1112basic_stringIcSt11char_traitsIcESaIcEEEPm@Base 0.9.1-3~
 _ZN5vmime3net4imap10IMAPParser8one_charILc62EED0Ev@Base 0.9.1-3~
 _ZN5vmime3net4imap10IMAPParser8one_charILc62EED1Ev@Base 0.9.1-3~
 _ZN5vmime3net4imap10IMAPParser8one_charILc62EED2Ev@Base 0.9.1-3~
 _ZN5vmime3net4imap10IMAPParser8one_charILc63EE2goERS2_RNSt7__cxx1112basic_stringIcSt11char_traitsIcESaIcEEEPm@Base 0.9.1-3~
 _ZN5vmime3net4imap10IMAPParser8one_charILc63EED0Ev@Base 0.9.1-3~
 _ZN5vmime3net4imap10IMAPParser8one_charILc63EED1Ev@Base 0.9.1-3~
 _ZN5vmime3net4imap10IMAPParser8one_charILc63EED2Ev@Base 0.9.1-3~
 _ZN5vmime3net4imap10IMAPParser8one_charILc91EE2goERS2_RNSt7__cxx1112basic_stringIcSt11char_traitsIcESaIcEEEPm@Base 0.9.1-3~
 _ZN5vmime3net4imap10IMAPParser8one_charILc91EED0Ev@Base 0.9.1-3~
 _ZN5vmime3net4imap10IMAPParser8one_charILc91EED1Ev@Base 0.9.1-3~
 _ZN5vmime3net4imap10IMAPParser8one_charILc91EED2Ev@Base 0.9.1-3~
 _ZN5vmime3net4imap10IMAPParser8one_charILc92EE2goERS2_RNSt7__cxx1112basic_stringIcSt11char_traitsIcESaIcEEEPm@Base 0.9.1-3~
 _ZN5vmime3net4imap10IMAPParser8one_charILc92EED0Ev@Base 0.9.1-3~
 _ZN5vmime3net4imap10IMAPParser8one_charILc92EED1Ev@Base 0.9.1-3~
 _ZN5vmime3net4imap10IMAPParser8one_charILc92EED2Ev@Base 0.9.1-3~
 _ZN5vmime3net4imap10IMAPParser8one_charILc93EE2goERS2_RNSt7__cxx1112basic_stringIcSt11char_traitsIcESaIcEEEPm@Base 0.9.1-3~
 _ZN5vmime3net4imap10IMAPParser8one_charILc93EED0Ev@Base 0.9.1-3~
 _ZN5vmime3net4imap10IMAPParser8one_charILc93EED1Ev@Base 0.9.1-3~
 _ZN5vmime3net4imap10IMAPParser8one_charILc93EED2Ev@Base 0.9.1-3~
 _ZN5vmime3net4imap10IMAPParser8readLineB5cxx11Ev@Base 0.9.1-3~
 _ZN5vmime3net4imap10IMAPParser8response2goERS2_RNSt7__cxx1112basic_stringIcSt11char_traitsIcESaIcEEEPm@Base 0.9.1-3~
 _ZN5vmime3net4imap10IMAPParser8responseD0Ev@Base 0.9.1-3~
 _ZN5vmime3net4imap10IMAPParser8responseD1Ev@Base 0.9.1-3~
 _ZN5vmime3net4imap10IMAPParser8responseD2Ev@Base 0.9.1-3~
 _ZN5vmime3net4imap10IMAPParser9auth_type2goERS2_RNSt7__cxx1112basic_stringIcSt11char_traitsIcESaIcEEEPm@Base 0.9.1-3~
 _ZN5vmime3net4imap10IMAPParser9auth_typeD0Ev@Base 0.9.1-3~
 _ZN5vmime3net4imap10IMAPParser9auth_typeD1Ev@Base 0.9.1-3~
 _ZN5vmime3net4imap10IMAPParser9auth_typeD2Ev@Base 0.9.1-3~
 _ZN5vmime3net4imap10IMAPParser9component16makeResponseLineERKNSt7__cxx1112basic_stringIcSt11char_traitsIcESaIcEEESB_m@Base 0.9.1-3~
 _ZN5vmime3net4imap10IMAPParser9date_time2goERS2_RNSt7__cxx1112basic_stringIcSt11char_traitsIcESaIcEEEPm@Base 0.9.1-3~
 _ZN5vmime3net4imap10IMAPParser9date_timeD0Ev@Base 0.9.1-3~
 _ZN5vmime3net4imap10IMAPParser9date_timeD1Ev@Base 0.9.1-3~
 _ZN5vmime3net4imap10IMAPParser9date_timeD2Ev@Base 0.9.1-3~
 _ZN5vmime3net4imap10IMAPParser9flag_list2goERS2_RNSt7__cxx1112basic_stringIcSt11char_traitsIcESaIcEEEPm@Base 0.9.1-3~
 _ZN5vmime3net4imap10IMAPParser9flag_listD0Ev@Base 0.9.1-3~
 _ZN5vmime3net4imap10IMAPParser9flag_listD1Ev@Base 0.9.1-3~
 _ZN5vmime3net4imap10IMAPParser9flag_listD2Ev@Base 0.9.1-3~
 _ZN5vmime3net4imap10IMAPParser9nz_numberD0Ev@Base 0.9.1-3~
 _ZN5vmime3net4imap10IMAPParser9nz_numberD1Ev@Base 0.9.1-3~
 _ZN5vmime3net4imap10IMAPParser9nz_numberD2Ev@Base 0.9.1-3~
 _ZN5vmime3net4imap10IMAPParser9resp_text2goERS2_RNSt7__cxx1112basic_stringIcSt11char_traitsIcESaIcEEEPm@Base 0.9.1-3~
 _ZN5vmime3net4imap10IMAPParser9resp_textD0Ev@Base 0.9.1-3~
 _ZN5vmime3net4imap10IMAPParser9resp_textD1Ev@Base 0.9.1-3~
 _ZN5vmime3net4imap10IMAPParser9resp_textD2Ev@Base 0.9.1-3~
 _ZN5vmime3net4imap10IMAPParserD0Ev@Base 0.9.1-3~
 _ZN5vmime3net4imap10IMAPParserD1Ev@Base 0.9.1-3~
 _ZN5vmime3net4imap10IMAPParserD2Ev@Base 0.9.1-3~
 _ZN5vmime3net4imap10IMAPSStore16getInfosInstanceEv@Base 0.9.1-3~
 _ZN5vmime3net4imap10IMAPSStore8sm_infosE@Base 0.9.1-3~
 _ZN5vmime3net4imap10IMAPSStoreC1ENS_7utility3refINS0_7sessionEEENS4_INS_8security13authenticatorEEE@Base 0.9.1-3~
 _ZN5vmime3net4imap10IMAPSStoreC2ENS_7utility3refINS0_7sessionEEENS4_INS_8security13authenticatorEEE@Base 0.9.1-3~
 _ZN5vmime3net4imap10IMAPSStoreD0Ev@Base 0.9.1-3~
 _ZN5vmime3net4imap10IMAPSStoreD1Ev@Base 0.9.1-3~
 _ZN5vmime3net4imap10IMAPSStoreD2Ev@Base 0.9.1-3~
 _ZN5vmime3net4imap11IMAPMessage12getStructureEv@Base 0.9.1-3~
 _ZN5vmime3net4imap11IMAPMessage14onFolderClosedEv@Base 0.9.1-3~
 _ZN5vmime3net4imap11IMAPMessage15fetchPartHeaderENS_7utility3refINS0_4partEEE@Base 0.9.1-3~
 _ZN5vmime3net4imap11IMAPMessage16getParsedMessageEv@Base 0.9.1-3~
 _ZN5vmime3net4imap11IMAPMessage17getOrCreateHeaderEv@Base 0.9.1-3~
 _ZN5vmime3net4imap11IMAPMessage20processFetchResponseEiPKNS1_10IMAPParser7msg_attE@Base 0.9.1-3~
 _ZN5vmime3net4imap11IMAPMessage22constructParsedMessageENS_7utility3refINS_8bodyPartEEENS4_INS0_9structureEEEi@Base 0.9.1-3~
 _ZN5vmime3net4imap11IMAPMessage27fetchPartHeaderForStructureENS_7utility3refINS0_9structureEEE@Base 0.9.1-3~
 _ZN5vmime3net4imap11IMAPMessage5fetchENS_7utility3refINS1_10IMAPFolderEEEi@Base 0.9.1-3~
 _ZN5vmime3net4imap11IMAPMessage8setFlagsEii@Base 0.9.1-3~
 _ZN5vmime3net4imap11IMAPMessageC1ENS_7utility3refINS1_10IMAPFolderEEEi@Base 0.9.1-3~
 _ZN5vmime3net4imap11IMAPMessageC2ENS_7utility3refINS1_10IMAPFolderEEEi@Base 0.9.1-3~
 _ZN5vmime3net4imap11IMAPMessageD0Ev@Base 0.9.1-3~
 _ZN5vmime3net4imap11IMAPMessageD1Ev@Base 0.9.1-3~
 _ZN5vmime3net4imap11IMAPMessageD2Ev@Base 0.9.1-3~
 _ZN5vmime3net4imap13IMAPStructure14emptyStructureEv@Base 0.9.1-3~
 _ZN5vmime3net4imap13IMAPStructure9getPartAtEi@Base 0.9.1-3~
 _ZN5vmime3net4imap13IMAPStructureC1ENS_7utility3refINS1_8IMAPPartEEERKSt6vectorIPNS1_10IMAPParser5xbodyESaISA_EE@Base 0.9.1-3~
 _ZN5vmime3net4imap13IMAPStructureC1EPKNS1_10IMAPParser5xbodyE@Base 0.9.1-3~
 _ZN5vmime3net4imap13IMAPStructureC1Ev@Base 0.9.1-3~
 _ZN5vmime3net4imap13IMAPStructureC2ENS_7utility3refINS1_8IMAPPartEEERKSt6vectorIPNS1_10IMAPParser5xbodyESaISA_EE@Base 0.9.1-3~
 _ZN5vmime3net4imap13IMAPStructureC2EPKNS1_10IMAPParser5xbodyE@Base 0.9.1-3~
 _ZN5vmime3net4imap13IMAPStructureC2Ev@Base 0.9.1-3~
 _ZN5vmime3net4imap13IMAPStructureD0Ev@Base 0.9.1-3~
 _ZN5vmime3net4imap13IMAPStructureD1Ev@Base 0.9.1-3~
 _ZN5vmime3net4imap13IMAPStructureD2Ev@Base 0.9.1-3~
 _ZN5vmime3net4imap14IMAPConnection10disconnectEv@Base 0.9.1-3~
 _ZN5vmime3net4imap14IMAPConnection10getSessionEv@Base 0.9.1-3~
 _ZN5vmime3net4imap14IMAPConnection12authenticateEv@Base 0.9.1-3~
 _ZN5vmime3net4imap14IMAPConnection12readResponseEPNS1_10IMAPParser14literalHandlerE@Base 0.9.1-3~
 _ZN5vmime3net4imap14IMAPConnection15getCapabilitiesB5cxx11Ev@Base 0.9.1-3~
 _ZN5vmime3net4imap14IMAPConnection16authenticateSASLEv@Base 0.9.1-3~
 _ZN5vmime3net4imap14IMAPConnection16getAuthenticatorEv@Base 0.9.1-3~
 _ZN5vmime3net4imap14IMAPConnection18internalDisconnectEv@Base 0.9.1-3~
 _ZN5vmime3net4imap14IMAPConnection22initHierarchySeparatorEv@Base 0.9.1-3~
 _ZN5vmime3net4imap14IMAPConnection4sendEbRKNSt7__cxx1112basic_stringIcSt11char_traitsIcESaIcEEEb@Base 0.9.1-3~
 _ZN5vmime3net4imap14IMAPConnection7connectEv@Base 0.9.1-3~
 _ZN5vmime3net4imap14IMAPConnection7sendRawEPKci@Base 0.9.1-3~
 _ZN5vmime3net4imap14IMAPConnection8getStoreEv@Base 0.9.1-3~
 _ZN5vmime3net4imap14IMAPConnection8setStateENS2_14ProtocolStatesE@Base 0.9.1-3~
 _ZN5vmime3net4imap14IMAPConnection8startTLSEv@Base 0.9.1-3~
 _ZN5vmime3net4imap14IMAPConnectionC1ENS_7utility3refINS1_9IMAPStoreEEENS4_INS_8security13authenticatorEEE@Base 0.9.1-3~
 _ZN5vmime3net4imap14IMAPConnectionC2ENS_7utility3refINS1_9IMAPStoreEEENS4_INS_8security13authenticatorEEE@Base 0.9.1-3~
 _ZN5vmime3net4imap14IMAPConnectionD0Ev@Base 0.9.1-3~
 _ZN5vmime3net4imap14IMAPConnectionD1Ev@Base 0.9.1-3~
 _ZN5vmime3net4imap14IMAPConnectionD2Ev@Base 0.9.1-3~
 _ZN5vmime3net4imap16IMAPServiceInfos5propsD1Ev@Base 0.9.1-3~
 _ZN5vmime3net4imap16IMAPServiceInfos5propsD2Ev@Base 0.9.1-3~
 _ZN5vmime3net4imap16IMAPServiceInfosC1Eb@Base 0.9.1-3~
 _ZN5vmime3net4imap16IMAPServiceInfosC2Eb@Base 0.9.1-3~
 _ZN5vmime3net4imap16IMAPServiceInfosD0Ev@Base 0.9.1-3~
 _ZN5vmime3net4imap16IMAPServiceInfosD1Ev@Base 0.9.1-3~
 _ZN5vmime3net4imap16IMAPServiceInfosD2Ev@Base 0.9.1-3~
 _ZN5vmime3net4imap26IMAPMessage_literalHandler9targetForERKNS1_10IMAPParser9componentEi@Base 0.9.1-3~
 _ZN5vmime3net4imap26IMAPMessage_literalHandlerD0Ev@Base 0.9.1-3~
 _ZN5vmime3net4imap26IMAPMessage_literalHandlerD1Ev@Base 0.9.1-3~
 _ZN5vmime3net4imap26IMAPMessage_literalHandlerD2Ev@Base 0.9.1-3~
 _ZN5vmime3net4imap29IMAPMessagePartContentHandlerC1ENS_7utility3refINS1_11IMAPMessageEEENS4_INS0_4partEEERKNS_8encodingE@Base 0.9.1-3~
 _ZN5vmime3net4imap29IMAPMessagePartContentHandlerC2ENS_7utility3refINS1_11IMAPMessageEEENS4_INS0_4partEEERKNS_8encodingE@Base 0.9.1-3~
 _ZN5vmime3net4imap29IMAPMessagePartContentHandlerD0Ev@Base 0.9.1-3~
 _ZN5vmime3net4imap29IMAPMessagePartContentHandlerD1Ev@Base 0.9.1-3~
 _ZN5vmime3net4imap29IMAPMessagePartContentHandlerD2Ev@Base 0.9.1-3~
 _ZN5vmime3net4imap7IMAPTag12sm_maxNumberE@Base 0.9.1-3~
 _ZN5vmime3net4imap7IMAPTag8generateEv@Base 0.9.1-3~
 _ZN5vmime3net4imap7IMAPTagC1ERKS2_@Base 0.9.1-3~
 _ZN5vmime3net4imap7IMAPTagC1Ei@Base 0.9.1-3~
 _ZN5vmime3net4imap7IMAPTagC1Ev@Base 0.9.1-3~
 _ZN5vmime3net4imap7IMAPTagC2ERKS2_@Base 0.9.1-3~
 _ZN5vmime3net4imap7IMAPTagC2Ei@Base 0.9.1-3~
 _ZN5vmime3net4imap7IMAPTagC2Ev@Base 0.9.1-3~
 _ZN5vmime3net4imap7IMAPTagD0Ev@Base 0.9.1-3~
 _ZN5vmime3net4imap7IMAPTagD1Ev@Base 0.9.1-3~
 _ZN5vmime3net4imap7IMAPTagD2Ev@Base 0.9.1-3~
 _ZN5vmime3net4imap7IMAPTagppEi@Base 0.9.1-3~
 _ZN5vmime3net4imap7IMAPTagppEv@Base 0.9.1-3~
 _ZN5vmime3net4imap8IMAPPart12getStructureEv@Base 0.9.1-3~
 _ZN5vmime3net4imap8IMAPPart17getOrCreateHeaderEv@Base 0.9.1-3~
 _ZN5vmime3net4imap8IMAPPart6createENS_7utility3refIS2_EEiPKNS1_10IMAPParser5xbodyE@Base 0.9.1-3~
 _ZN5vmime3net4imap8IMAPPartC1ENS_7utility3refIS2_EEiPKNS1_10IMAPParser15body_type_1partE@Base 0.9.1-3~
 _ZN5vmime3net4imap8IMAPPartC1ENS_7utility3refIS2_EEiPKNS1_10IMAPParser15body_type_mpartE@Base 0.9.1-3~
 _ZN5vmime3net4imap8IMAPPartC2ENS_7utility3refIS2_EEiPKNS1_10IMAPParser15body_type_1partE@Base 0.9.1-3~
 _ZN5vmime3net4imap8IMAPPartC2ENS_7utility3refIS2_EEiPKNS1_10IMAPParser15body_type_mpartE@Base 0.9.1-3~
 _ZN5vmime3net4imap8IMAPPartD0Ev@Base 0.9.1-3~
 _ZN5vmime3net4imap8IMAPPartD1Ev@Base 0.9.1-3~
 _ZN5vmime3net4imap8IMAPPartD2Ev@Base 0.9.1-3~
 _ZN5vmime3net4imap9IMAPStore10connectionEv@Base 0.9.1-3~
 _ZN5vmime3net4imap9IMAPStore10disconnectEv@Base 0.9.1-3~
 _ZN5vmime3net4imap9IMAPStore13getRootFolderEv@Base 0.9.1-3~
 _ZN5vmime3net4imap9IMAPStore14registerFolderEPNS1_10IMAPFolderE@Base 0.9.1-3~
 _ZN5vmime3net4imap9IMAPStore16getDefaultFolderEv@Base 0.9.1-3~
 _ZN5vmime3net4imap9IMAPStore16getInfosInstanceEv@Base 0.9.1-3~
 _ZN5vmime3net4imap9IMAPStore16unregisterFolderEPNS1_10IMAPFolderE@Base 0.9.1-3~
 _ZN5vmime3net4imap9IMAPStore4noopEv@Base 0.9.1-3~
 _ZN5vmime3net4imap9IMAPStore7connectEv@Base 0.9.1-3~
 _ZN5vmime3net4imap9IMAPStore8sm_infosE@Base 0.9.1-3~
 _ZN5vmime3net4imap9IMAPStore9getFolderERKNS_7utility4pathE@Base 0.9.1-3~
 _ZN5vmime3net4imap9IMAPStoreC1ENS_7utility3refINS0_7sessionEEENS4_INS_8security13authenticatorEEEb@Base 0.9.1-3~
 _ZN5vmime3net4imap9IMAPStoreC2ENS_7utility3refINS0_7sessionEEENS4_INS_8security13authenticatorEEEb@Base 0.9.1-3~
 _ZN5vmime3net4imap9IMAPStoreD0Ev@Base 0.9.1-3~
 _ZN5vmime3net4imap9IMAPStoreD1Ev@Base 0.9.1-3~
 _ZN5vmime3net4imap9IMAPStoreD2Ev@Base 0.9.1-3~
 _ZN5vmime3net4imap9IMAPUtils11quoteStringERKNSt7__cxx1112basic_stringIcSt11char_traitsIcESaIcEEE@Base 0.9.1-3~
 _ZN5vmime3net4imap9IMAPUtils12pathToStringB5cxx11EcRKNS_7utility4pathE@Base 0.9.1-3~
 _ZN5vmime3net4imap9IMAPUtils12stringToPathEcRKNSt7__cxx1112basic_stringIcSt11char_traitsIcESaIcEEE@Base 0.9.1-3~
 _ZN5vmime3net4imap9IMAPUtils14toModifiedUTF7B5cxx11EcRKNS_4wordE@Base 0.9.1-3~
 _ZN5vmime3net4imap9IMAPUtils15messageFlagListB5cxx11Ei@Base 0.9.1-3~
 _ZN5vmime3net4imap9IMAPUtils16fromModifiedUTF7ERKNSt7__cxx1112basic_stringIcSt11char_traitsIcESaIcEEE@Base 0.9.1-3~
 _ZN5vmime3net4imap9IMAPUtils17buildFetchRequestB5cxx11ERKSt6vectorIiSaIiEEi@Base 0.9.1-3~
 _ZN5vmime3net4imap9IMAPUtils18convertAddressListERKNS1_10IMAPParser12address_listERNS_11mailboxListE@Base 0.9.1-3~
 _ZN5vmime3net4imap9IMAPUtils19folderTypeFromFlagsEPKNS1_10IMAPParser17mailbox_flag_listE@Base 0.9.1-3~
 _ZN5vmime3net4imap9IMAPUtils20folderFlagsFromFlagsEPKNS1_10IMAPParser17mailbox_flag_listE@Base 0.9.1-3~
 _ZN5vmime3net4imap9IMAPUtils21messageFlagsFromFlagsEPKNS1_10IMAPParser9flag_listE@Base 0.9.1-3~
 _ZN5vmime3net4imap9IMAPUtils8dateTimeB5cxx11ERKNS_8datetimeE@Base 0.9.1-3~
 _ZN5vmime3net4imap9IMAPUtils9listToSetB5cxx11ERKSt6vectorIiSaIiEEib@Base 0.9.1-3~
 _ZN5vmime3net4part9getPartAtEi@Base 0.9.1-3~
 _ZN5vmime3net4pop310POP3Folder10addMessageENS_7utility3refINS_7messageEEEiPNS_8datetimeEPNS3_16progressListenerE@Base 0.9.1-3~
 _ZN5vmime3net4pop310POP3Folder10addMessageERNS_7utility11inputStreamEiiPNS_8datetimeEPNS3_16progressListenerE@Base 0.9.1-3~
 _ZN5vmime3net4pop310POP3Folder10getFoldersEb@Base 0.9.1-3~
 _ZN5vmime3net4pop310POP3Folder10getMessageEi@Base 0.9.1-3~
 _ZN5vmime3net4pop310POP3Folder11copyMessageERKNS_7utility4pathEi@Base 0.9.1-3~
 _ZN5vmime3net4pop310POP3Folder11getMessagesERKSt6vectorIiSaIiEE@Base 0.9.1-3~
 _ZN5vmime3net4pop310POP3Folder11getMessagesEii@Base 0.9.1-3~
 _ZN5vmime3net4pop310POP3Folder12copyMessagesERKNS_7utility4pathERKSt6vectorIiSaIiEE@Base 0.9.1-3~
 _ZN5vmime3net4pop310POP3Folder12copyMessagesERKNS_7utility4pathEii@Base 0.9.1-3~
 _ZN5vmime3net4pop310POP3Folder12fetchMessageENS_7utility3refINS0_7messageEEEi@Base 0.9.1-3~
 _ZN5vmime3net4pop310POP3Folder13deleteMessageEi@Base 0.9.1-3~
 _ZN5vmime3net4pop310POP3Folder13fetchMessagesERSt6vectorINS_7utility3refINS0_7messageEEESaIS7_EEiPNS4_16progressListenerE@Base 0.9.1-3~
 _ZN5vmime3net4pop310POP3Folder14deleteMessagesERKSt6vectorIiSaIiEE@Base 0.9.1-3~
 _ZN5vmime3net4pop310POP3Folder14deleteMessagesEii@Base 0.9.1-3~
 _ZN5vmime3net4pop310POP3Folder15getMessageCountEv@Base 0.9.1-3~
 _ZN5vmime3net4pop310POP3Folder15registerMessageEPNS1_11POP3MessageE@Base 0.9.1-3~
 _ZN5vmime3net4pop310POP3Folder15setMessageFlagsERKSt6vectorIiSaIiEEii@Base 0.9.1-3~
 _ZN5vmime3net4pop310POP3Folder15setMessageFlagsEiiii@Base 0.9.1-3~
 _ZN5vmime3net4pop310POP3Folder17unregisterMessageEPNS1_11POP3MessageE@Base 0.9.1-3~
 _ZN5vmime3net4pop310POP3Folder19onStoreDisconnectedEv@Base 0.9.1-3~
 _ZN5vmime3net4pop310POP3Folder4openEib@Base 0.9.1-3~
 _ZN5vmime3net4pop310POP3Folder5closeEb@Base 0.9.1-3~
 _ZN5vmime3net4pop310POP3Folder6createEi@Base 0.9.1-3~
 _ZN5vmime3net4pop310POP3Folder6existsEv@Base 0.9.1-3~
 _ZN5vmime3net4pop310POP3Folder6renameERKNS_7utility4pathE@Base 0.9.1-3~
 _ZN5vmime3net4pop310POP3Folder6statusERiS3_@Base 0.9.1-3~
 _ZN5vmime3net4pop310POP3Folder7destroyEv@Base 0.9.1-3~
 _ZN5vmime3net4pop310POP3Folder7expungeEv@Base 0.9.1-3~
 _ZN5vmime3net4pop310POP3Folder7getTypeEv@Base 0.9.1-3~
 _ZN5vmime3net4pop310POP3Folder7onCloseEv@Base 0.9.1-3~
 _ZN5vmime3net4pop310POP3Folder8getFlagsEv@Base 0.9.1-3~
 _ZN5vmime3net4pop310POP3Folder8getStoreEv@Base 0.9.1-3~
 _ZN5vmime3net4pop310POP3Folder9getFolderERKNS_4wordE@Base 0.9.1-3~
 _ZN5vmime3net4pop310POP3Folder9getParentEv@Base 0.9.1-3~
 _ZN5vmime3net4pop310POP3FolderC1ERKNS_7utility4pathENS3_3refINS1_9POP3StoreEEE@Base 0.9.1-3~
 _ZN5vmime3net4pop310POP3FolderC2ERKNS_7utility4pathENS3_3refINS1_9POP3StoreEEE@Base 0.9.1-3~
 _ZN5vmime3net4pop310POP3FolderD0Ev@Base 0.9.1-3~
 _ZN5vmime3net4pop310POP3FolderD1Ev@Base 0.9.1-3~
 _ZN5vmime3net4pop310POP3FolderD2Ev@Base 0.9.1-3~
 _ZN5vmime3net4pop310POP3SStore16getInfosInstanceEv@Base 0.9.1-3~
 _ZN5vmime3net4pop310POP3SStore8sm_infosE@Base 0.9.1-3~
 _ZN5vmime3net4pop310POP3SStoreC1ENS_7utility3refINS0_7sessionEEENS4_INS_8security13authenticatorEEE@Base 0.9.1-3~
 _ZN5vmime3net4pop310POP3SStoreC2ENS_7utility3refINS0_7sessionEEENS4_INS_8security13authenticatorEEE@Base 0.9.1-3~
 _ZN5vmime3net4pop310POP3SStoreD0Ev@Base 0.9.1-3~
 _ZN5vmime3net4pop310POP3SStoreD1Ev@Base 0.9.1-3~
 _ZN5vmime3net4pop310POP3SStoreD2Ev@Base 0.9.1-3~
 _ZN5vmime3net4pop311POP3Message12getStructureEv@Base 0.9.1-3~
 _ZN5vmime3net4pop311POP3Message14onFolderClosedEv@Base 0.9.1-3~
 _ZN5vmime3net4pop311POP3Message15fetchPartHeaderENS_7utility3refINS0_4partEEE@Base 0.9.1-3~
 _ZN5vmime3net4pop311POP3Message16getParsedMessageEv@Base 0.9.1-3~
 _ZN5vmime3net4pop311POP3Message5fetchENS_7utility3refINS1_10POP3FolderEEEi@Base 0.9.1-3~
 _ZN5vmime3net4pop311POP3Message8setFlagsEii@Base 0.9.1-3~
 _ZN5vmime3net4pop311POP3MessageC1ENS_7utility3refINS1_10POP3FolderEEEi@Base 0.9.1-3~
 _ZN5vmime3net4pop311POP3MessageC2ENS_7utility3refINS1_10POP3FolderEEEi@Base 0.9.1-3~
 _ZN5vmime3net4pop311POP3MessageD0Ev@Base 0.9.1-3~
 _ZN5vmime3net4pop311POP3MessageD1Ev@Base 0.9.1-3~
 _ZN5vmime3net4pop311POP3MessageD2Ev@Base 0.9.1-3~
 _ZN5vmime3net4pop316POP3ServiceInfos5propsD1Ev@Base 0.9.1-3~
 _ZN5vmime3net4pop316POP3ServiceInfos5propsD2Ev@Base 0.9.1-3~
 _ZN5vmime3net4pop316POP3ServiceInfosC1Eb@Base 0.9.1-3~
 _ZN5vmime3net4pop316POP3ServiceInfosC2Eb@Base 0.9.1-3~
 _ZN5vmime3net4pop316POP3ServiceInfosD0Ev@Base 0.9.1-3~
 _ZN5vmime3net4pop316POP3ServiceInfosD1Ev@Base 0.9.1-3~
 _ZN5vmime3net4pop316POP3ServiceInfosD2Ev@Base 0.9.1-3~
 _ZN5vmime3net4pop39POP3Store10disconnectEv@Base 0.9.1-3~
 _ZN5vmime3net4pop39POP3Store11sendRequestERKNSt7__cxx1112basic_stringIcSt11char_traitsIcESaIcEEEb@Base 0.9.1-3~
 _ZN5vmime3net4pop39POP3Store12authenticateERKNS_9messageIdE@Base 0.9.1-3~
 _ZN5vmime3net4pop39POP3Store12readResponseERNS_7utility12outputStreamEPNS3_16progressListenerEi@Base 0.9.1-3~
 _ZN5vmime3net4pop39POP3Store12readResponseERNSt7__cxx1112basic_stringIcSt11char_traitsIcESaIcEEEbPNS_7utility16progressListenerE@Base 0.9.1-3~
 _ZN5vmime3net4pop39POP3Store13getRootFolderEv@Base 0.9.1-3~
 _ZN5vmime3net4pop39POP3Store14registerFolderEPNS1_10POP3FolderE@Base 0.9.1-3~
 _ZN5vmime3net4pop39POP3Store14stripFirstLineERKNSt7__cxx1112basic_stringIcSt11char_traitsIcESaIcEEERS8_PS8_@Base 0.9.1-3~
 _ZN5vmime3net4pop39POP3Store15checkTerminatorERNSt7__cxx1112basic_stringIcSt11char_traitsIcESaIcEEEb@Base 0.9.1-3~
 _ZN5vmime3net4pop39POP3Store15getCapabilitiesB5cxx11Ev@Base 0.9.1-3~
 _ZN5vmime3net4pop39POP3Store15getResponseCodeERKNSt7__cxx1112basic_stringIcSt11char_traitsIcESaIcEEE@Base 0.9.1-3~
 _ZN5vmime3net4pop39POP3Store16authenticateSASLEv@Base 0.9.1-3~
 _ZN5vmime3net4pop39POP3Store16getDefaultFolderEv@Base 0.9.1-3~
 _ZN5vmime3net4pop39POP3Store16getInfosInstanceEv@Base 0.9.1-3~
 _ZN5vmime3net4pop39POP3Store16unregisterFolderEPNS1_10POP3FolderE@Base 0.9.1-3~
 _ZN5vmime3net4pop39POP3Store17isSuccessResponseERKNSt7__cxx1112basic_stringIcSt11char_traitsIcESaIcEEE@Base 0.9.1-3~
 _ZN5vmime3net4pop39POP3Store17stripResponseCodeERKNSt7__cxx1112basic_stringIcSt11char_traitsIcESaIcEEERS8_@Base 0.9.1-3~
 _ZN5vmime3net4pop39POP3Store18checkOneTerminatorERNSt7__cxx1112basic_stringIcSt11char_traitsIcESaIcEEERKS8_@Base 0.9.1-3~
 _ZN5vmime3net4pop39POP3Store18internalDisconnectEv@Base 0.9.1-3~
 _ZN5vmime3net4pop39POP3Store4noopEv@Base 0.9.1-3~
 _ZN5vmime3net4pop39POP3Store7connectEv@Base 0.9.1-3~
 _ZN5vmime3net4pop39POP3Store8sm_infosE@Base 0.9.1-3~
 _ZN5vmime3net4pop39POP3Store8startTLSEv@Base 0.9.1-3~
 _ZN5vmime3net4pop39POP3Store9getFolderERKNS_7utility4pathE@Base 0.9.1-3~
 _ZN5vmime3net4pop39POP3StoreC1ENS_7utility3refINS0_7sessionEEENS4_INS_8security13authenticatorEEEb@Base 0.9.1-3~
 _ZN5vmime3net4pop39POP3StoreC2ENS_7utility3refINS0_7sessionEEENS4_INS_8security13authenticatorEEEb@Base 0.9.1-3~
 _ZN5vmime3net4pop39POP3StoreD0Ev@Base 0.9.1-3~
 _ZN5vmime3net4pop39POP3StoreD1Ev@Base 0.9.1-3~
 _ZN5vmime3net4pop39POP3StoreD2Ev@Base 0.9.1-3~
 _ZN5vmime3net4pop39POP3Utils28parseMultiListOrUidlResponseERKNSt7__cxx1112basic_stringIcSt11char_traitsIcESaIcEEERSt3mapIiS8_St4lessIiESaISt4pairIKiS8_EEE@Base 0.9.1-3~
 _ZN5vmime3net4smtp12SMTPResponse12readResponseENS_7utility3refINS0_6socketEEENS4_INS0_14timeoutHandlerEEE@Base 0.9.1-3~
 _ZN5vmime3net4smtp12SMTPResponse12readResponseEv@Base 0.9.1-3~
 _ZN5vmime3net4smtp12SMTPResponse12responseLine7setCodeEi@Base 0.9.1-3~
 _ZN5vmime3net4smtp12SMTPResponse12responseLine7setTextERKNSt7__cxx1112basic_stringIcSt11char_traitsIcESaIcEEE@Base 0.9.1-3~
 _ZN5vmime3net4smtp12SMTPResponse12responseLineC1EiRKNSt7__cxx1112basic_stringIcSt11char_traitsIcESaIcEEE@Base 0.9.1-3~
 _ZN5vmime3net4smtp12SMTPResponse12responseLineC2EiRKNSt7__cxx1112basic_stringIcSt11char_traitsIcESaIcEEE@Base 0.9.1-3~
 _ZN5vmime3net4smtp12SMTPResponse15getNextResponseEv@Base 0.9.1-3~
 _ZN5vmime3net4smtp12SMTPResponse16readResponseLineB5cxx11Ev@Base 0.9.1-3~
 _ZN5vmime3net4smtp12SMTPResponse19extractResponseCodeERKNSt7__cxx1112basic_stringIcSt11char_traitsIcESaIcEEE@Base 0.9.1-3~
 _ZN5vmime3net4smtp12SMTPResponseC1ENS_7utility3refINS0_6socketEEENS4_INS0_14timeoutHandlerEEE@Base 0.9.1-3~
 _ZN5vmime3net4smtp12SMTPResponseC1ERKS2_@Base 0.9.1-3~
 _ZN5vmime3net4smtp12SMTPResponseC2ENS_7utility3refINS0_6socketEEENS4_INS0_14timeoutHandlerEEE@Base 0.9.1-3~
 _ZN5vmime3net4smtp12SMTPResponseC2ERKS2_@Base 0.9.1-3~
 _ZN5vmime3net4smtp12SMTPResponseD0Ev@Base 0.9.1-3~
 _ZN5vmime3net4smtp12SMTPResponseD1Ev@Base 0.9.1-3~
 _ZN5vmime3net4smtp12SMTPResponseD2Ev@Base 0.9.1-3~
 _ZN5vmime3net4smtp13SMTPTransport10disconnectEv@Base 0.9.1-3~
 _ZN5vmime3net4smtp13SMTPTransport11sendRequestERKNSt7__cxx1112basic_stringIcSt11char_traitsIcESaIcEEEb@Base 0.9.1-3~
 _ZN5vmime3net4smtp13SMTPTransport12authenticateEv@Base 0.9.1-3~
 _ZN5vmime3net4smtp13SMTPTransport12readResponseEv@Base 0.9.1-3~
 _ZN5vmime3net4smtp13SMTPTransport16authenticateSASLEv@Base 0.9.1-3~
 _ZN5vmime3net4smtp13SMTPTransport16getInfosInstanceEv@Base 0.9.1-3~
 _ZN5vmime3net4smtp13SMTPTransport18internalDisconnectEv@Base 0.9.1-3~
 _ZN5vmime3net4smtp13SMTPTransport4heloEv@Base 0.9.1-3~
 _ZN5vmime3net4smtp13SMTPTransport4noopEv@Base 0.9.1-3~
 _ZN5vmime3net4smtp13SMTPTransport4sendERKNS_7mailboxERKNS_11mailboxListERNS_7utility11inputStreamEmPNS9_16progressListenerE@Base 0.9.1-3~
 _ZN5vmime3net4smtp13SMTPTransport7connectEv@Base 0.9.1-3~
 _ZN5vmime3net4smtp13SMTPTransport8sm_infosE@Base 0.9.1-3~
 _ZN5vmime3net4smtp13SMTPTransport8startTLSEv@Base 0.9.1-3~
 _ZN5vmime3net4smtp13SMTPTransportC1ENS_7utility3refINS0_7sessionEEENS4_INS_8security13authenticatorEEEb@Base 0.9.1-3~
 _ZN5vmime3net4smtp13SMTPTransportC2ENS_7utility3refINS0_7sessionEEENS4_INS_8security13authenticatorEEEb@Base 0.9.1-3~
 _ZN5vmime3net4smtp13SMTPTransportD0Ev@Base 0.9.1-3~
 _ZN5vmime3net4smtp13SMTPTransportD1Ev@Base 0.9.1-3~
 _ZN5vmime3net4smtp13SMTPTransportD2Ev@Base 0.9.1-3~
 _ZN5vmime3net4smtp14SMTPSTransport16getInfosInstanceEv@Base 0.9.1-3~
 _ZN5vmime3net4smtp14SMTPSTransport8sm_infosE@Base 0.9.1-3~
 _ZN5vmime3net4smtp14SMTPSTransportC1ENS_7utility3refINS0_7sessionEEENS4_INS_8security13authenticatorEEE@Base 0.9.1-3~
 _ZN5vmime3net4smtp14SMTPSTransportC2ENS_7utility3refINS0_7sessionEEENS4_INS_8security13authenticatorEEE@Base 0.9.1-3~
 _ZN5vmime3net4smtp14SMTPSTransportD0Ev@Base 0.9.1-3~
 _ZN5vmime3net4smtp14SMTPSTransportD1Ev@Base 0.9.1-3~
 _ZN5vmime3net4smtp14SMTPSTransportD2Ev@Base 0.9.1-3~
 _ZN5vmime3net4smtp16SMTPServiceInfos5propsD1Ev@Base 0.9.1-3~
 _ZN5vmime3net4smtp16SMTPServiceInfos5propsD2Ev@Base 0.9.1-3~
 _ZN5vmime3net4smtp16SMTPServiceInfosC1Eb@Base 0.9.1-3~
 _ZN5vmime3net4smtp16SMTPServiceInfosC2Eb@Base 0.9.1-3~
 _ZN5vmime3net4smtp16SMTPServiceInfosD0Ev@Base 0.9.1-3~
 _ZN5vmime3net4smtp16SMTPServiceInfosD1Ev@Base 0.9.1-3~
 _ZN5vmime3net4smtp16SMTPServiceInfosD2Ev@Base 0.9.1-3~
 _ZN5vmime3net6events11folderEventC1ENS_7utility3refINS0_6folderEEENS2_5TypesERKNS3_4pathESA_@Base 0.9.1-3~
 _ZN5vmime3net6events11folderEventC2ENS_7utility3refINS0_6folderEEENS2_5TypesERKNS3_4pathESA_@Base 0.9.1-3~
 _ZN5vmime3net6events11folderEventD1Ev@Base 0.9.1-3~
 _ZN5vmime3net6events11folderEventD2Ev@Base 0.9.1-3~
 _ZN5vmime3net6events17messageCountEventC1ENS_7utility3refINS0_6folderEEENS2_5TypesERKSt6vectorIiSaIiEE@Base 0.9.1-3~
 _ZN5vmime3net6events17messageCountEventC2ENS_7utility3refINS0_6folderEEENS2_5TypesERKSt6vectorIiSaIiEE@Base 0.9.1-3~
 _ZN5vmime3net6events17messageCountEventD1Ev@Base 0.9.1-3~
 _ZN5vmime3net6events17messageCountEventD2Ev@Base 0.9.1-3~
 _ZN5vmime3net6events19messageChangedEventC1ENS_7utility3refINS0_6folderEEENS2_5TypesERKSt6vectorIiSaIiEE@Base 0.9.1-3~
 _ZN5vmime3net6events19messageChangedEventC2ENS_7utility3refINS0_6folderEEENS2_5TypesERKSt6vectorIiSaIiEE@Base 0.9.1-3~
 _ZN5vmime3net6events19messageChangedEventD1Ev@Base 0.9.1-3~
 _ZN5vmime3net6events19messageChangedEventD2Ev@Base 0.9.1-3~
 _ZN5vmime3net6folder12notifyFolderERKNS0_6events11folderEventE@Base 0.9.1-3~
 _ZN5vmime3net6folder17addFolderListenerEPNS0_6events14folderListenerE@Base 0.9.1-3~
 _ZN5vmime3net6folder18notifyMessageCountERKNS0_6events17messageCountEventE@Base 0.9.1-3~
 _ZN5vmime3net6folder20notifyMessageChangedERKNS0_6events19messageChangedEventE@Base 0.9.1-3~
 _ZN5vmime3net6folder20removeFolderListenerEPNS0_6events14folderListenerE@Base 0.9.1-3~
 _ZN5vmime3net6folder23addMessageCountListenerEPNS0_6events20messageCountListenerE@Base 0.9.1-3~
 _ZN5vmime3net6folder25addMessageChangedListenerEPNS0_6events22messageChangedListenerE@Base 0.9.1-3~
 _ZN5vmime3net6folder26removeMessageCountListenerEPNS0_6events20messageCountListenerE@Base 0.9.1-3~
 _ZN5vmime3net6folder28removeMessageChangedListenerEPNS0_6events22messageChangedListenerE@Base 0.9.1-3~
 _ZN5vmime3net6folderD0Ev@Base 0.9.1-3~
 _ZN5vmime3net6folderD1Ev@Base 0.9.1-3~
 _ZN5vmime3net6folderD2Ev@Base 0.9.1-3~
 _ZN5vmime3net7maildir11maildirPart12getStructureEv@Base 0.9.1-3~
 _ZN5vmime3net7maildir11maildirPart13initStructureERKNS_8bodyPartE@Base 0.9.1-3~
 _ZN5vmime3net7maildir11maildirPartC1ENS_7utility3refIS2_EEiRKNS_8bodyPartE@Base 0.9.1-3~
 _ZN5vmime3net7maildir11maildirPartC2ENS_7utility3refIS2_EEiRKNS_8bodyPartE@Base 0.9.1-3~
 _ZN5vmime3net7maildir11maildirPartD0Ev@Base 0.9.1-3~
 _ZN5vmime3net7maildir11maildirPartD1Ev@Base 0.9.1-3~
 _ZN5vmime3net7maildir11maildirPartD2Ev@Base 0.9.1-3~
 _ZN5vmime3net7maildir12maildirStore10disconnectEv@Base 0.9.1-3~
 _ZN5vmime3net7maildir12maildirStore13getRootFolderEv@Base 0.9.1-3~
 _ZN5vmime3net7maildir12maildirStore14registerFolderEPNS1_13maildirFolderE@Base 0.9.1-3~
 _ZN5vmime3net7maildir12maildirStore16getDefaultFolderEv@Base 0.9.1-3~
 _ZN5vmime3net7maildir12maildirStore16getInfosInstanceEv@Base 0.9.1-3~
 _ZN5vmime3net7maildir12maildirStore16unregisterFolderEPNS1_13maildirFolderE@Base 0.9.1-3~
 _ZN5vmime3net7maildir12maildirStore4noopEv@Base 0.9.1-3~
 _ZN5vmime3net7maildir12maildirStore7connectEv@Base 0.9.1-3~
 _ZN5vmime3net7maildir12maildirStore8sm_infosE@Base 0.9.1-3~
 _ZN5vmime3net7maildir12maildirStore9getFolderERKNS_7utility4pathE@Base 0.9.1-3~
 _ZN5vmime3net7maildir12maildirStore9getFormatEv@Base 0.9.1-3~
 _ZN5vmime3net7maildir12maildirStoreC1ENS_7utility3refINS0_7sessionEEENS4_INS_8security13authenticatorEEE@Base 0.9.1-3~
 _ZN5vmime3net7maildir12maildirStoreC2ENS_7utility3refINS0_7sessionEEENS4_INS_8security13authenticatorEEE@Base 0.9.1-3~
 _ZN5vmime3net7maildir12maildirStoreD0Ev@Base 0.9.1-3~
 _ZN5vmime3net7maildir12maildirStoreD1Ev@Base 0.9.1-3~
 _ZN5vmime3net7maildir12maildirStoreD2Ev@Base 0.9.1-3~
 _ZN5vmime3net7maildir12maildirUtils10buildFlagsEi@Base 0.9.1-3~
 _ZN5vmime3net7maildir12maildirUtils10generateIdEv@Base 0.9.1-3~
 _ZN5vmime3net7maildir12maildirUtils12extractFlagsERKNS_4wordE@Base 0.9.1-3~
 _ZN5vmime3net7maildir12maildirUtils13buildFilenameERKNS_4wordES5_@Base 0.9.1-3~
 _ZN5vmime3net7maildir12maildirUtils13buildFilenameERKNS_4wordEi@Base 0.9.1-3~
 _ZN5vmime3net7maildir12maildirUtils13isMessageFileERKNS_7utility4fileE@Base 0.9.1-3~
 _ZN5vmime3net7maildir12maildirUtils17recursiveFSDeleteENS_7utility3refINS3_4fileEEE@Base 0.9.1-3~
 _ZN5vmime3net7maildir12maildirUtils19messageIdComparatorC1ERKNS_4wordE@Base 0.9.1-3~
 _ZN5vmime3net7maildir12maildirUtils19messageIdComparatorC2ERKNS_4wordE@Base 0.9.1-3~
 _ZN5vmime3net7maildir12maildirUtils9extractIdERKNS_4wordE@Base 0.9.1-3~
 _ZN5vmime3net7maildir13maildirFolder10addMessageENS_7utility3refINS_7messageEEEiPNS_8datetimeEPNS3_16progressListenerE@Base 0.9.1-3~
 _ZN5vmime3net7maildir13maildirFolder10addMessageERNS_7utility11inputStreamEiiPNS_8datetimeEPNS3_16progressListenerE@Base 0.9.1-3~
 _ZN5vmime3net7maildir13maildirFolder10getFoldersEb@Base 0.9.1-3~
 _ZN5vmime3net7maildir13maildirFolder10getMessageEi@Base 0.9.1-3~
 _ZN5vmime3net7maildir13maildirFolder10scanFolderEv@Base 0.9.1-3~
 _ZN5vmime3net7maildir13maildirFolder11copyMessageERKNS_7utility4pathEi@Base 0.9.1-3~
 _ZN5vmime3net7maildir13maildirFolder11getMessagesERKSt6vectorIiSaIiEE@Base 0.9.1-3~
 _ZN5vmime3net7maildir13maildirFolder11getMessagesEii@Base 0.9.1-3~
 _ZN5vmime3net7maildir13maildirFolder11listFoldersERSt6vectorINS_7utility3refINS0_6folderEEESaIS7_EEb@Base 0.9.1-3~
 _ZN5vmime3net7maildir13maildirFolder12copyMessagesERKNS_7utility4pathERKSt6vectorIiSaIiEE@Base 0.9.1-3~
 _ZN5vmime3net7maildir13maildirFolder12copyMessagesERKNS_7utility4pathEii@Base 0.9.1-3~
 _ZN5vmime3net7maildir13maildirFolder12fetchMessageENS_7utility3refINS0_7messageEEEi@Base 0.9.1-3~
 _ZN5vmime3net7maildir13maildirFolder13deleteMessageEi@Base 0.9.1-3~
 _ZN5vmime3net7maildir13maildirFolder13fetchMessagesERSt6vectorINS_7utility3refINS0_7messageEEESaIS7_EEiPNS4_16progressListenerE@Base 0.9.1-3~
 _ZN5vmime3net7maildir13maildirFolder14deleteMessagesERKSt6vectorIiSaIiEE@Base 0.9.1-3~
 _ZN5vmime3net7maildir13maildirFolder14deleteMessagesEii@Base 0.9.1-3~
 _ZN5vmime3net7maildir13maildirFolder15copyMessageImplERKNS_7utility4pathES6_RKNS_4wordERNS3_11inputStreamEmPNS3_16progressListenerE@Base 0.9.1-3~
 _ZN5vmime3net7maildir13maildirFolder15getMessageCountEv@Base 0.9.1-3~
 _ZN5vmime3net7maildir13maildirFolder15registerMessageEPNS1_14maildirMessageE@Base 0.9.1-3~
 _ZN5vmime3net7maildir13maildirFolder15setMessageFlagsERKSt6vectorIiSaIiEEii@Base 0.9.1-3~
 _ZN5vmime3net7maildir13maildirFolder15setMessageFlagsEiiii@Base 0.9.1-3~
 _ZN5vmime3net7maildir13maildirFolder16copyMessagesImplERKNS_7utility4pathERKSt6vectorIiSaIiEE@Base 0.9.1-3~
 _ZN5vmime3net7maildir13maildirFolder17unregisterMessageEPNS1_14maildirMessageE@Base 0.9.1-3~
 _ZN5vmime3net7maildir13maildirFolder19onStoreDisconnectedEv@Base 0.9.1-3~
 _ZN5vmime3net7maildir13maildirFolder19setMessageFlagsImplERKSt6vectorIiSaIiEEii@Base 0.9.1-3~
 _ZN5vmime3net7maildir13maildirFolder20notifyMessagesCopiedERKNS_7utility4pathE@Base 0.9.1-3~
 _ZN5vmime3net7maildir13maildirFolder4openEib@Base 0.9.1-3~
 _ZN5vmime3net7maildir13maildirFolder5closeEb@Base 0.9.1-3~
 _ZN5vmime3net7maildir13maildirFolder6createEi@Base 0.9.1-3~
 _ZN5vmime3net7maildir13maildirFolder6existsEv@Base 0.9.1-3~
 _ZN5vmime3net7maildir13maildirFolder6renameERKNS_7utility4pathE@Base 0.9.1-3~
 _ZN5vmime3net7maildir13maildirFolder6statusERiS3_@Base 0.9.1-3~
 _ZN5vmime3net7maildir13maildirFolder7destroyEv@Base 0.9.1-3~
 _ZN5vmime3net7maildir13maildirFolder7expungeEv@Base 0.9.1-3~
 _ZN5vmime3net7maildir13maildirFolder7getTypeEv@Base 0.9.1-3~
 _ZN5vmime3net7maildir13maildirFolder7onCloseEv@Base 0.9.1-3~
 _ZN5vmime3net7maildir13maildirFolder8getFlagsEv@Base 0.9.1-3~
 _ZN5vmime3net7maildir13maildirFolder8getStoreEv@Base 0.9.1-3~
 _ZN5vmime3net7maildir13maildirFolder9getFolderERKNS_4wordE@Base 0.9.1-3~
 _ZN5vmime3net7maildir13maildirFolder9getParentEv@Base 0.9.1-3~
 _ZN5vmime3net7maildir13maildirFolderC1ERKNS_7utility4pathENS3_3refINS1_12maildirStoreEEE@Base 0.9.1-3~
 _ZN5vmime3net7maildir13maildirFolderC2ERKNS_7utility4pathENS3_3refINS1_12maildirStoreEEE@Base 0.9.1-3~
 _ZN5vmime3net7maildir13maildirFolderD0Ev@Base 0.9.1-3~
 _ZN5vmime3net7maildir13maildirFolderD1Ev@Base 0.9.1-3~
 _ZN5vmime3net7maildir13maildirFolderD2Ev@Base 0.9.1-3~
 _ZN5vmime3net7maildir13maildirFormat10getContextEv@Base 0.9.1-3~
 _ZN5vmime3net7maildir13maildirFormat6detectENS_7utility3refINS1_12maildirStoreEEE@Base 0.9.1-3~
 _ZN5vmime3net7maildir13maildirFormat7CUR_DIRE@Base 0.9.1-3~
 _ZN5vmime3net7maildir13maildirFormat7NEW_DIRE@Base 0.9.1-3~
 _ZN5vmime3net7maildir13maildirFormat7TMP_DIRE@Base 0.9.1-3~
 _ZN5vmime3net7maildir13maildirFormat7contextC1ENS_7utility3refINS1_12maildirStoreEEE@Base 0.9.1-3~
 _ZN5vmime3net7maildir13maildirFormat7contextC2ENS_7utility3refINS1_12maildirStoreEEE@Base 0.9.1-3~
 _ZN5vmime3net7maildir13maildirFormat7contextD0Ev@Base 0.9.1-3~
 _ZN5vmime3net7maildir13maildirFormat7contextD1Ev@Base 0.9.1-3~
 _ZN5vmime3net7maildir13maildirFormat7contextD2Ev@Base 0.9.1-3~
 _ZN5vmime3net7maildir13maildirFormatC1ENS_7utility3refINS2_7contextEEE@Base 0.9.1-3~
 _ZN5vmime3net7maildir13maildirFormatC2ENS_7utility3refINS2_7contextEEE@Base 0.9.1-3~
 _ZN5vmime3net7maildir14maildirMessage12getStructureEv@Base 0.9.1-3~
 _ZN5vmime3net7maildir14maildirMessage14onFolderClosedEv@Base 0.9.1-3~
 _ZN5vmime3net7maildir14maildirMessage15fetchPartHeaderENS_7utility3refINS0_4partEEE@Base 0.9.1-3~
 _ZN5vmime3net7maildir14maildirMessage16getParsedMessageEv@Base 0.9.1-3~
 _ZN5vmime3net7maildir14maildirMessage17getOrCreateHeaderEv@Base 0.9.1-3~
 _ZN5vmime3net7maildir14maildirMessage5fetchENS_7utility3refINS1_13maildirFolderEEEi@Base 0.9.1-3~
 _ZN5vmime3net7maildir14maildirMessage8setFlagsEii@Base 0.9.1-3~
 _ZN5vmime3net7maildir14maildirMessageC1ENS_7utility3refINS1_13maildirFolderEEEi@Base 0.9.1-3~
 _ZN5vmime3net7maildir14maildirMessageC2ENS_7utility3refINS1_13maildirFolderEEEi@Base 0.9.1-3~
 _ZN5vmime3net7maildir14maildirMessageD0Ev@Base 0.9.1-3~
 _ZN5vmime3net7maildir14maildirMessageD1Ev@Base 0.9.1-3~
 _ZN5vmime3net7maildir14maildirMessageD2Ev@Base 0.9.1-3~
 _ZN5vmime3net7maildir16maildirStructure16m_emptyStructureE@Base 0.9.1-3~
 _ZN5vmime3net7maildir16maildirStructure9getPartAtEi@Base 0.9.1-3~
 _ZN5vmime3net7maildir16maildirStructureD0Ev@Base 0.9.1-3~
 _ZN5vmime3net7maildir16maildirStructureD1Ev@Base 0.9.1-3~
 _ZN5vmime3net7maildir16maildirStructureD2Ev@Base 0.9.1-3~
 _ZN5vmime3net7maildir19maildirServiceInfos5propsD1Ev@Base 0.9.1-3~
 _ZN5vmime3net7maildir19maildirServiceInfos5propsD2Ev@Base 0.9.1-3~
 _ZN5vmime3net7maildir19maildirServiceInfosC1Ev@Base 0.9.1-3~
 _ZN5vmime3net7maildir19maildirServiceInfosC2Ev@Base 0.9.1-3~
 _ZN5vmime3net7maildir19maildirServiceInfosD0Ev@Base 0.9.1-3~
 _ZN5vmime3net7maildir19maildirServiceInfosD1Ev@Base 0.9.1-3~
 _ZN5vmime3net7maildir19maildirServiceInfosD2Ev@Base 0.9.1-3~
 _ZN5vmime3net7maildir6format18kmailMaildirFormat12createFolderERKNS_7utility4pathE@Base 0.9.1-3~
 _ZN5vmime3net7maildir6format18kmailMaildirFormat12renameFolderERKNS_7utility4pathES7_@Base 0.9.1-3~
 _ZN5vmime3net7maildir6format18kmailMaildirFormat13destroyFolderERKNS_7utility4pathE@Base 0.9.1-3~
 _ZN5vmime3net7maildir6format18kmailMaildirFormat20isSubfolderDirectoryERKNS_7utility4fileE@Base 0.9.1-3~
 _ZN5vmime3net7maildir6format18kmailMaildirFormatC1ENS_7utility3refINS1_13maildirFormat7contextEEE@Base 0.9.1-3~
 _ZN5vmime3net7maildir6format18kmailMaildirFormatC2ENS_7utility3refINS1_13maildirFormat7contextEEE@Base 0.9.1-3~
 _ZN5vmime3net7maildir6format18kmailMaildirFormatD0Ev@Base 0.9.1-3~
 _ZN5vmime3net7maildir6format18kmailMaildirFormatD1Ev@Base 0.9.1-3~
 _ZN5vmime3net7maildir6format18kmailMaildirFormatD2Ev@Base 0.9.1-3~
 _ZN5vmime3net7maildir6format20courierMaildirFormat12createFolderERKNS_7utility4pathE@Base 0.9.1-3~
 _ZN5vmime3net7maildir6format20courierMaildirFormat12renameFolderERKNS_7utility4pathES7_@Base 0.9.1-3~
 _ZN5vmime3net7maildir6format20courierMaildirFormat13destroyFolderERKNS_7utility4pathE@Base 0.9.1-3~
 _ZN5vmime3net7maildir6format20courierMaildirFormat14toModifiedUTF7B5cxx11ERKNS_4wordE@Base 0.9.1-3~
 _ZN5vmime3net7maildir6format20courierMaildirFormat16fromModifiedUTF7ERKNSt7__cxx1112basic_stringIcSt11char_traitsIcESaIcEEE@Base 0.9.1-3~
 _ZN5vmime3net7maildir6format20courierMaildirFormat16renameFolderImplERKNS_7utility4pathES7_@Base 0.9.1-3~
 _ZN5vmime3net7maildir6format20courierMaildirFormat20isSubfolderDirectoryERKNS_7utility4fileE@Base 0.9.1-3~
 _ZN5vmime3net7maildir6format20courierMaildirFormatC1ENS_7utility3refINS1_13maildirFormat7contextEEE@Base 0.9.1-3~
 _ZN5vmime3net7maildir6format20courierMaildirFormatC2ENS_7utility3refINS1_13maildirFormat7contextEEE@Base 0.9.1-3~
 _ZN5vmime3net7maildir6format20courierMaildirFormatD0Ev@Base 0.9.1-3~
 _ZN5vmime3net7maildir6format20courierMaildirFormatD1Ev@Base 0.9.1-3~
 _ZN5vmime3net7maildir6format20courierMaildirFormatD2Ev@Base 0.9.1-3~
 _ZN5vmime3net7service10getSessionEv@Base 0.9.1-3~
 _ZN5vmime3net7service16getAuthenticatorEv@Base 0.9.1-3~
 _ZN5vmime3net7service16getSocketFactoryEv@Base 0.9.1-3~
 _ZN5vmime3net7service16setAuthenticatorENS_7utility3refINS_8security13authenticatorEEE@Base 0.9.1-3~
 _ZN5vmime3net7service16setSocketFactoryENS_7utility3refINS0_13socketFactoryEEE@Base 0.9.1-3~
 _ZN5vmime3net7service22getCertificateVerifierEv@Base 0.9.1-3~
 _ZN5vmime3net7service22setCertificateVerifierENS_7utility3refINS_8security4cert19certificateVerifierEEE@Base 0.9.1-3~
 _ZN5vmime3net7service24getTimeoutHandlerFactoryEv@Base 0.9.1-3~
 _ZN5vmime3net7service24setTimeoutHandlerFactoryENS_7utility3refINS0_21timeoutHandlerFactoryEEE@Base 0.9.1-3~
 _ZN5vmime3net7serviceC1ENS_7utility3refINS0_7sessionEEERKNS0_12serviceInfosENS3_INS_8security13authenticatorEEE@Base 0.9.1-3~
 _ZN5vmime3net7serviceC2ENS_7utility3refINS0_7sessionEEERKNS0_12serviceInfosENS3_INS_8security13authenticatorEEE@Base 0.9.1-3~
 _ZN5vmime3net7serviceD0Ev@Base 0.9.1-3~
 _ZN5vmime3net7serviceD1Ev@Base 0.9.1-3~
 _ZN5vmime3net7serviceD2Ev@Base 0.9.1-3~
 _ZN5vmime3net7session12getTransportENS_7utility3refINS_8security13authenticatorEEE@Base 0.9.1-3~
 _ZN5vmime3net7session12getTransportERKNS_7utility3urlENS2_3refINS_8security13authenticatorEEE@Base 0.9.1-3~
 _ZN5vmime3net7session12getTransportERKNSt7__cxx1112basic_stringIcSt11char_traitsIcESaIcEEENS_7utility3refINS_8security13authenticatorEEE@Base 0.9.1-3~
 _ZN5vmime3net7session13getPropertiesEv@Base 0.9.1-3~
 _ZN5vmime3net7session8getStoreENS_7utility3refINS_8security13authenticatorEEE@Base 0.9.1-3~
 _ZN5vmime3net7session8getStoreERKNS_7utility3urlENS2_3refINS_8security13authenticatorEEE@Base 0.9.1-3~
 _ZN5vmime3net7session8getStoreERKNSt7__cxx1112basic_stringIcSt11char_traitsIcESaIcEEENS_7utility3refINS_8security13authenticatorEEE@Base 0.9.1-3~
 _ZN5vmime3net7sessionC1ERKNS_11propertySetE@Base 0.9.1-3~
 _ZN5vmime3net7sessionC1ERKS1_@Base 0.9.1-3~
 _ZN5vmime3net7sessionC1Ev@Base 0.9.1-3~
 _ZN5vmime3net7sessionC2ERKNS_11propertySetE@Base 0.9.1-3~
 _ZN5vmime3net7sessionC2ERKS1_@Base 0.9.1-3~
 _ZN5vmime3net7sessionC2Ev@Base 0.9.1-3~
 _ZN5vmime3net7sessionD0Ev@Base 0.9.1-3~
 _ZN5vmime3net7sessionD1Ev@Base 0.9.1-3~
 _ZN5vmime3net7sessionD2Ev@Base 0.9.1-3~
 _ZN5vmime3net8sendmail17sendmailTransport10disconnectEv@Base 0.9.1-3~
 _ZN5vmime3net8sendmail17sendmailTransport12internalSendESt6vectorINSt7__cxx1112basic_stringIcSt11char_traitsIcESaIcEEESaIS9_EERNS_7utility11inputStreamEmPNSC_16progressListenerE@Base 0.9.1-3~
 _ZN5vmime3net8sendmail17sendmailTransport16getInfosInstanceEv@Base 0.9.1-3~
 _ZN5vmime3net8sendmail17sendmailTransport18internalDisconnectEv@Base 0.9.1-3~
 _ZN5vmime3net8sendmail17sendmailTransport4noopEv@Base 0.9.1-3~
 _ZN5vmime3net8sendmail17sendmailTransport4sendERKNS_7mailboxERKNS_11mailboxListERNS_7utility11inputStreamEmPNS9_16progressListenerE@Base 0.9.1-3~
 _ZN5vmime3net8sendmail17sendmailTransport7connectEv@Base 0.9.1-3~
 _ZN5vmime3net8sendmail17sendmailTransport8sm_infosE@Base 0.9.1-3~
 _ZN5vmime3net8sendmail17sendmailTransportC1ENS_7utility3refINS0_7sessionEEENS4_INS_8security13authenticatorEEE@Base 0.9.1-3~
 _ZN5vmime3net8sendmail17sendmailTransportC2ENS_7utility3refINS0_7sessionEEENS4_INS_8security13authenticatorEEE@Base 0.9.1-3~
 _ZN5vmime3net8sendmail17sendmailTransportD0Ev@Base 0.9.1-3~
 _ZN5vmime3net8sendmail17sendmailTransportD1Ev@Base 0.9.1-3~
 _ZN5vmime3net8sendmail17sendmailTransportD2Ev@Base 0.9.1-3~
 _ZN5vmime3net8sendmail20sendmailServiceInfos5propsD1Ev@Base 0.9.1-3~
 _ZN5vmime3net8sendmail20sendmailServiceInfos5propsD2Ev@Base 0.9.1-3~
 _ZN5vmime3net8sendmail20sendmailServiceInfosC1Ev@Base 0.9.1-3~
 _ZN5vmime3net8sendmail20sendmailServiceInfosC2Ev@Base 0.9.1-3~
 _ZN5vmime3net8sendmail20sendmailServiceInfosD0Ev@Base 0.9.1-3~
 _ZN5vmime3net8sendmail20sendmailServiceInfosD1Ev@Base 0.9.1-3~
 _ZN5vmime3net8sendmail20sendmailServiceInfosD2Ev@Base 0.9.1-3~
 _ZN5vmime3net9transport4sendENS_7utility3refINS_7messageEEEPNS2_16progressListenerE@Base 0.9.1-3~
 _ZN5vmime3net9transportC1ENS_7utility3refINS0_7sessionEEERKNS0_12serviceInfosENS3_INS_8security13authenticatorEEE@Base 0.9.1-3~
 _ZN5vmime3net9transportC2ENS_7utility3refINS0_7sessionEEERKNS0_12serviceInfosENS3_INS_8security13authenticatorEEE@Base 0.9.1-3~
 _ZN5vmime4CRLFB5cxx11E@Base 0.9.1-3~
 _ZN5vmime4body10appendPartENS_7utility3refINS_8bodyPartEEE@Base 0.9.1-3~
 _ZN5vmime4body10removePartENS_7utility3refINS_8bodyPartEEE@Base 0.9.1-3~
 _ZN5vmime4body10removePartEi@Base 0.9.1-3~
 _ZN5vmime4body10setCharsetERKNS_7charsetE@Base 0.9.1-3~
 _ZN5vmime4body11getPartListEv@Base 0.9.1-3~
 _ZN5vmime4body11initNewPartENS_7utility3refINS_8bodyPartEEE@Base 0.9.1-3~
 _ZN5vmime4body11setContentsENS_7utility3refIKNS_14contentHandlerEEE@Base 0.9.1-3~
 _ZN5vmime4body11setContentsENS_7utility3refIKNS_14contentHandlerEEERKNS_9mediaTypeE@Base 0.9.1-3~
 _ZN5vmime4body11setContentsENS_7utility3refIKNS_14contentHandlerEEERKNS_9mediaTypeERKNS_7charsetE@Base 0.9.1-3~
 _ZN5vmime4body11setContentsENS_7utility3refIKNS_14contentHandlerEEERKNS_9mediaTypeERKNS_7charsetERKNS_8encodingE@Base 0.9.1-3~
 _ZN5vmime4body11setEncodingERKNS_8encodingE@Base 0.9.1-3~
 _ZN5vmime4body13setEpilogTextERKNSt7__cxx1112basic_stringIcSt11char_traitsIcESaIcEEE@Base 0.9.1-3~
 _ZN5vmime4body13setParentPartENS_7utility3refINS_8bodyPartEEE@Base 0.9.1-3~
 _ZN5vmime4body13setPrologTextERKNSt7__cxx1112basic_stringIcSt11char_traitsIcESaIcEEE@Base 0.9.1-3~
 _ZN5vmime4body14removeAllPartsEv@Base 0.9.1-3~
 _ZN5vmime4body14setContentTypeERKNS_9mediaTypeE@Base 0.9.1-3~
 _ZN5vmime4body14setContentTypeERKNS_9mediaTypeERKNS_7charsetE@Base 0.9.1-3~
 _ZN5vmime4body15insertPartAfterENS_7utility3refINS_8bodyPartEEES4_@Base 0.9.1-3~
 _ZN5vmime4body15insertPartAfterEiNS_7utility3refINS_8bodyPartEEE@Base 0.9.1-3~
 _ZN5vmime4body15isValidBoundaryERKNSt7__cxx1112basic_stringIcSt11char_traitsIcESaIcEEE@Base 0.9.1-3~
 _ZN5vmime4body16insertPartBeforeENS_7utility3refINS_8bodyPartEEES4_@Base 0.9.1-3~
 _ZN5vmime4body16insertPartBeforeEiNS_7utility3refINS_8bodyPartEEE@Base 0.9.1-3~
 _ZN5vmime4body28generateRandomBoundaryStringB5cxx11Ev@Base 0.9.1-3~
 _ZN5vmime4body5parseERKNSt7__cxx1112basic_stringIcSt11char_traitsIcESaIcEEEmmPm@Base 0.9.1-3~
 _ZN5vmime4body8copyFromERKNS_9componentE@Base 0.9.1-3~
 _ZN5vmime4body9getPartAtEi@Base 0.9.1-3~
 _ZN5vmime4bodyC1Ev@Base 0.9.1-3~
 _ZN5vmime4bodyC2Ev@Base 0.9.1-3~
 _ZN5vmime4bodyD0Ev@Base 0.9.1-3~
 _ZN5vmime4bodyD1Ev@Base 0.9.1-3~
 _ZN5vmime4bodyD2Ev@Base 0.9.1-3~
 _ZN5vmime4bodyaSERKS0_@Base 0.9.1-3~
 _ZN5vmime4misc16importanceHelper13getImportanceENS_7utility3refIKNS_7messageEEE@Base 0.9.1-3~
 _ZN5vmime4misc16importanceHelper13setImportanceENS_7utility3refINS_7messageEEENS1_10ImportanceE@Base 0.9.1-3~
 _ZN5vmime4misc16importanceHelper15resetImportanceENS_7utility3refINS_7messageEEE@Base 0.9.1-3~
 _ZN5vmime4misc16importanceHelper19getImportanceHeaderENS_7utility3refIKNS_6headerEEE@Base 0.9.1-3~
 _ZN5vmime4misc16importanceHelper19setImportanceHeaderENS_7utility3refINS_6headerEEENS1_10ImportanceE@Base 0.9.1-3~
 _ZN5vmime4misc16importanceHelper21resetImportanceHeaderENS_7utility3refINS_6headerEEE@Base 0.9.1-3~
 _ZN5vmime4nullE@Base 0.9.1-3~
 _ZN5vmime4path12setLocalPartERKNSt7__cxx1112basic_stringIcSt11char_traitsIcESaIcEEE@Base 0.9.1-3~
 _ZN5vmime4path5parseERKNSt7__cxx1112basic_stringIcSt11char_traitsIcESaIcEEEmmPm@Base 0.9.1-3~
 _ZN5vmime4path8copyFromERKNS_9componentE@Base 0.9.1-3~
 _ZN5vmime4path9setDomainERKNSt7__cxx1112basic_stringIcSt11char_traitsIcESaIcEEE@Base 0.9.1-3~
 _ZN5vmime4pathC1ERKNSt7__cxx1112basic_stringIcSt11char_traitsIcESaIcEEES8_@Base 0.9.1-3~
 _ZN5vmime4pathC1ERKS0_@Base 0.9.1-3~
 _ZN5vmime4pathC1Ev@Base 0.9.1-3~
 _ZN5vmime4pathC2ERKNSt7__cxx1112basic_stringIcSt11char_traitsIcESaIcEEES8_@Base 0.9.1-3~
 _ZN5vmime4pathC2ERKS0_@Base 0.9.1-3~
 _ZN5vmime4pathC2Ev@Base 0.9.1-3~
 _ZN5vmime4pathD0Ev@Base 0.9.1-3~
 _ZN5vmime4pathD1Ev@Base 0.9.1-3~
 _ZN5vmime4pathD2Ev@Base 0.9.1-3~
 _ZN5vmime4pathaSERKS0_@Base 0.9.1-3~
 _ZN5vmime4text10appendWordENS_7utility3refINS_4wordEEE@Base 0.9.1-3~
 _ZN5vmime4text10removeWordEi@Base 0.9.1-3~
 _ZN5vmime4text11getWordListEv@Base 0.9.1-3~
 _ZN5vmime4text13newFromStringERKNSt7__cxx1112basic_stringIcSt11char_traitsIcESaIcEEERKNS_7charsetE@Base 0.9.1-3~
 _ZN5vmime4text14removeAllWordsEv@Base 0.9.1-3~
 _ZN5vmime4text15decodeAndUnfoldERKNSt7__cxx1112basic_stringIcSt11char_traitsIcESaIcEEE@Base 0.9.1-3~
 _ZN5vmime4text15decodeAndUnfoldERKNSt7__cxx1112basic_stringIcSt11char_traitsIcESaIcEEEPS0_@Base 0.9.1-3~
 _ZN5vmime4text15insertWordAfterEiNS_7utility3refINS_4wordEEE@Base 0.9.1-3~
 _ZN5vmime4text16createFromStringERKNSt7__cxx1112basic_stringIcSt11char_traitsIcESaIcEEERKNS_7charsetE@Base 0.9.1-3~
 _ZN5vmime4text16insertWordBeforeEiNS_7utility3refINS_4wordEEE@Base 0.9.1-3~
 _ZN5vmime4text5parseERKNSt7__cxx1112basic_stringIcSt11char_traitsIcESaIcEEEmmPm@Base 0.9.1-3~
 _ZN5vmime4text8copyFromERKNS_9componentE@Base 0.9.1-3~
 _ZN5vmime4text9getWordAtEi@Base 0.9.1-3~
 _ZN5vmime4textC1ERKNS_4wordE@Base 0.9.1-3~
 _ZN5vmime4textC1ERKNSt7__cxx1112basic_stringIcSt11char_traitsIcESaIcEEE@Base 0.9.1-3~
 _ZN5vmime4textC1ERKNSt7__cxx1112basic_stringIcSt11char_traitsIcESaIcEEERKNS_7charsetE@Base 0.9.1-3~
 _ZN5vmime4textC1ERKS0_@Base 0.9.1-3~
 _ZN5vmime4textC1Ev@Base 0.9.1-3~
 _ZN5vmime4textC2ERKNS_4wordE@Base 0.9.1-3~
 _ZN5vmime4textC2ERKNSt7__cxx1112basic_stringIcSt11char_traitsIcESaIcEEE@Base 0.9.1-3~
 _ZN5vmime4textC2ERKNSt7__cxx1112basic_stringIcSt11char_traitsIcESaIcEEERKNS_7charsetE@Base 0.9.1-3~
 _ZN5vmime4textC2ERKS0_@Base 0.9.1-3~
 _ZN5vmime4textC2Ev@Base 0.9.1-3~
 _ZN5vmime4textD0Ev@Base 0.9.1-3~
 _ZN5vmime4textD1Ev@Base 0.9.1-3~
 _ZN5vmime4textD2Ev@Base 0.9.1-3~
 _ZN5vmime4textaSERKNS_9componentE@Base 0.9.1-3~
 _ZN5vmime4textaSERKS0_@Base 0.9.1-3~
 _ZN5vmime4word10setCharsetERKNS_7charsetE@Base 0.9.1-3~
 _ZN5vmime4word13parseMultipleERKNSt7__cxx1112basic_stringIcSt11char_traitsIcESaIcEEEmmPm@Base 0.9.1-3~
 _ZN5vmime4word14parseWithStateERKNSt7__cxx1112basic_stringIcSt11char_traitsIcESaIcEEEmmPmPNS0_11parserStateE@Base 0.9.1-3~
 _ZN5vmime4word5parseERKNSt7__cxx1112basic_stringIcSt11char_traitsIcESaIcEEEmmPm@Base 0.9.1-3~
 _ZN5vmime4word8copyFromERKNS_9componentE@Base 0.9.1-3~
 _ZN5vmime4word9getBufferB5cxx11Ev@Base 0.9.1-3~
 _ZN5vmime4word9parseNextERKNSt7__cxx1112basic_stringIcSt11char_traitsIcESaIcEEEmmPmPNS0_11parserStateE@Base 0.9.1-3~
 _ZN5vmime4word9setBufferERKNSt7__cxx1112basic_stringIcSt11char_traitsIcESaIcEEE@Base 0.9.1-3~
 _ZN5vmime4wordC1ERKNSt7__cxx1112basic_stringIcSt11char_traitsIcESaIcEEE@Base 0.9.1-3~
 _ZN5vmime4wordC1ERKNSt7__cxx1112basic_stringIcSt11char_traitsIcESaIcEEERKNS_7charsetE@Base 0.9.1-3~
 _ZN5vmime4wordC1ERKS0_@Base 0.9.1-3~
 _ZN5vmime4wordC1Ev@Base 0.9.1-3~
 _ZN5vmime4wordC2ERKNSt7__cxx1112basic_stringIcSt11char_traitsIcESaIcEEE@Base 0.9.1-3~
 _ZN5vmime4wordC2ERKNSt7__cxx1112basic_stringIcSt11char_traitsIcESaIcEEERKNS_7charsetE@Base 0.9.1-3~
 _ZN5vmime4wordC2ERKS0_@Base 0.9.1-3~
 _ZN5vmime4wordC2Ev@Base 0.9.1-3~
 _ZN5vmime4wordD0Ev@Base 0.9.1-3~
 _ZN5vmime4wordD1Ev@Base 0.9.1-3~
 _ZN5vmime4wordD2Ev@Base 0.9.1-3~
 _ZN5vmime4wordaSERKNSt7__cxx1112basic_stringIcSt11char_traitsIcESaIcEEE@Base 0.9.1-3~
 _ZN5vmime4wordaSERKS0_@Base 0.9.1-3~
 _ZN5vmime5relay11getWithListB5cxx11Ev@Base 0.9.1-3~
 _ZN5vmime5relay5parseERKNSt7__cxx1112basic_stringIcSt11char_traitsIcESaIcEEEmmPm@Base 0.9.1-3~
 _ZN5vmime5relay5setByERKNSt7__cxx1112basic_stringIcSt11char_traitsIcESaIcEEE@Base 0.9.1-3~
 _ZN5vmime5relay5setIdERKNSt7__cxx1112basic_stringIcSt11char_traitsIcESaIcEEE@Base 0.9.1-3~
 _ZN5vmime5relay6setForERKNSt7__cxx1112basic_stringIcSt11char_traitsIcESaIcEEE@Base 0.9.1-3~
 _ZN5vmime5relay6setViaERKNSt7__cxx1112basic_stringIcSt11char_traitsIcESaIcEEE@Base 0.9.1-3~
 _ZN5vmime5relay7setDateERKNS_8datetimeE@Base 0.9.1-3~
 _ZN5vmime5relay7setFromERKNSt7__cxx1112basic_stringIcSt11char_traitsIcESaIcEEE@Base 0.9.1-3~
 _ZN5vmime5relay8copyFromERKNS_9componentE@Base 0.9.1-3~
 _ZN5vmime5relayC1ERKS0_@Base 0.9.1-3~
 _ZN5vmime5relayC1Ev@Base 0.9.1-3~
 _ZN5vmime5relayC2ERKS0_@Base 0.9.1-3~
 _ZN5vmime5relayC2Ev@Base 0.9.1-3~
 _ZN5vmime5relayD0Ev@Base 0.9.1-3~
 _ZN5vmime5relayD1Ev@Base 0.9.1-3~
 _ZN5vmime5relayD2Ev@Base 0.9.1-3~
 _ZN5vmime5relayaSERKS0_@Base 0.9.1-3~
 _ZN5vmime6fields10CONTENT_IDE@Base 0.9.1-3~
 _ZN5vmime6fields10MESSAGE_IDE@Base 0.9.1-3~
 _ZN5vmime6fields10REFERENCESE@Base 0.9.1-3~
 _ZN5vmime6fields10USER_AGENTE@Base 0.9.1-3~
 _ZN5vmime6fields10X_PRIORITYE@Base 0.9.1-3~
 _ZN5vmime6fields11DISPOSITIONE@Base 0.9.1-3~
 _ZN5vmime6fields11IN_REPLY_TOE@Base 0.9.1-3~
 _ZN5vmime6fields11MDN_GATEWAYE@Base 0.9.1-3~
 _ZN5vmime6fields11RETURN_PATHE@Base 0.9.1-3~
 _ZN5vmime6fields12CONTENT_TYPEE@Base 0.9.1-3~
 _ZN5vmime6fields12DELIVERED_TOE@Base 0.9.1-3~
 _ZN5vmime6fields12MIME_VERSIONE@Base 0.9.1-3~
 _ZN5vmime6fields12ORGANIZATIONE@Base 0.9.1-3~
 _ZN5vmime6fields12REPORTING_UAE@Base 0.9.1-3~
 _ZN5vmime6fields15FINAL_RECIPIENTE@Base 0.9.1-3~
 _ZN5vmime6fields16CONTENT_LOCATIONE@Base 0.9.1-3~
 _ZN5vmime6fields18ORIGINAL_RECIPIENTE@Base 0.9.1-3~
 _ZN5vmime6fields19CONTENT_DESCRIPTIONE@Base 0.9.1-3~
 _ZN5vmime6fields19CONTENT_DISPOSITIONE@Base 0.9.1-3~
 _ZN5vmime6fields19ORIGINAL_MESSAGE_IDE@Base 0.9.1-3~
 _ZN5vmime6fields25CONTENT_TRANSFER_ENCODINGE@Base 0.9.1-3~
 _ZN5vmime6fields27DISPOSITION_NOTIFICATION_TOE@Base 0.9.1-3~
 _ZN5vmime6fields2CCE@Base 0.9.1-3~
 _ZN5vmime6fields2TOE@Base 0.9.1-3~
 _ZN5vmime6fields32DISPOSITION_NOTIFICATION_OPTIONSE@Base 0.9.1-3~
 _ZN5vmime6fields3BCCE@Base 0.9.1-3~
 _ZN5vmime6fields4DATEE@Base 0.9.1-3~
 _ZN5vmime6fields4FROME@Base 0.9.1-3~
 _ZN5vmime6fields5ERRORE@Base 0.9.1-3~
 _ZN5vmime6fields6SENDERE@Base 0.9.1-3~
 _ZN5vmime6fields7FAILUREE@Base 0.9.1-3~
 _ZN5vmime6fields7SUBJECTE@Base 0.9.1-3~
 _ZN5vmime6fields7WARNINGE@Base 0.9.1-3~
 _ZN5vmime6fields8RECEIVEDE@Base 0.9.1-3~
 _ZN5vmime6fields8REPLY_TOE@Base 0.9.1-3~
 _ZN5vmime6fields8X_MAILERE@Base 0.9.1-3~
 _ZN5vmime6header10getFieldAtEi@Base 0.9.1-3~
 _ZN5vmime6header11appendFieldENS_7utility3refINS_11headerFieldEEE@Base 0.9.1-3~
 _ZN5vmime6header11removeFieldENS_7utility3refINS_11headerFieldEEE@Base 0.9.1-3~
 _ZN5vmime6header11removeFieldEi@Base 0.9.1-3~
 _ZN5vmime6header12fieldHasNameC1ERKNSt7__cxx1112basic_stringIcSt11char_traitsIcESaIcEEE@Base 0.9.1-3~
 _ZN5vmime6header12fieldHasNameC2ERKNSt7__cxx1112basic_stringIcSt11char_traitsIcESaIcEEE@Base 0.9.1-3~
 _ZN5vmime6header12fieldHasNameclERKNS_7utility3refIKNS_11headerFieldEEE@Base 0.9.1-3~
 _ZN5vmime6header12getFieldListEv@Base 0.9.1-3~
 _ZN5vmime6header13findAllFieldsERKNSt7__cxx1112basic_stringIcSt11char_traitsIcESaIcEEE@Base 0.9.1-3~
 _ZN5vmime6header15fieldHasNotNameC1ERKNSt7__cxx1112basic_stringIcSt11char_traitsIcESaIcEEE@Base 0.9.1-3~
 _ZN5vmime6header15fieldHasNotNameC2ERKNSt7__cxx1112basic_stringIcSt11char_traitsIcESaIcEEE@Base 0.9.1-3~
 _ZN5vmime6header15fieldHasNotNameclERKNS_7utility3refIKNS_11headerFieldEEE@Base 0.9.1-3~
 _ZN5vmime6header15removeAllFieldsERKNSt7__cxx1112basic_stringIcSt11char_traitsIcESaIcEEE@Base 0.9.1-3~
 _ZN5vmime6header15removeAllFieldsEv@Base 0.9.1-3~
 _ZN5vmime6header16insertFieldAfterENS_7utility3refINS_11headerFieldEEES4_@Base 0.9.1-3~
 _ZN5vmime6header16insertFieldAfterEiNS_7utility3refINS_11headerFieldEEE@Base 0.9.1-3~
 _ZN5vmime6header17insertFieldBeforeENS_7utility3refINS_11headerFieldEEES4_@Base 0.9.1-3~
 _ZN5vmime6header17insertFieldBeforeEiNS_7utility3refINS_11headerFieldEEE@Base 0.9.1-3~
 _ZN5vmime6header5parseERKNSt7__cxx1112basic_stringIcSt11char_traitsIcESaIcEEEmmPm@Base 0.9.1-3~
 _ZN5vmime6header8copyFromERKNS_9componentE@Base 0.9.1-3~
 _ZN5vmime6header8getFieldERKNSt7__cxx1112basic_stringIcSt11char_traitsIcESaIcEEE@Base 0.9.1-3~
 _ZN5vmime6headerC1Ev@Base 0.9.1-3~
 _ZN5vmime6headerC2Ev@Base 0.9.1-3~
 _ZN5vmime6headerD0Ev@Base 0.9.1-3~
 _ZN5vmime6headerD1Ev@Base 0.9.1-3~
 _ZN5vmime6headerD2Ev@Base 0.9.1-3~
 _ZN5vmime6headeraSERKS0_@Base 0.9.1-3~
 _ZN5vmime6libapiB5cxx11Ev@Base 0.9.1-3~
 _ZN5vmime6object11thisWeakRefEv@Base 0.9.1-3~
 _ZN5vmime6object13setRefManagerEPNS_7utility10refManagerE@Base 0.9.1-3~
 _ZN5vmime6object7thisRefEv@Base 0.9.1-3~
 _ZN5vmime6objectC1ERKS0_@Base 0.9.1-3~
 _ZN5vmime6objectC1Ev@Base 0.9.1-3~
 _ZN5vmime6objectC2ERKS0_@Base 0.9.1-3~
 _ZN5vmime6objectC2Ev@Base 0.9.1-3~
 _ZN5vmime6objectD0Ev@Base 0.9.1-3~
 _ZN5vmime6objectD1Ev@Base 0.9.1-3~
 _ZN5vmime6objectD2Ev@Base 0.9.1-3~
 _ZN5vmime6objectaSERKS0_@Base 0.9.1-3~
 _ZN5vmime7address9parseNextERKNSt7__cxx1112basic_stringIcSt11char_traitsIcESaIcEEEmmPm@Base 0.9.1-3~
 _ZN5vmime7addressC1Ev@Base 0.9.1-3~
 _ZN5vmime7addressC2Ev@Base 0.9.1-3~
 _ZN5vmime7charset16getLocaleCharsetEv@Base 0.9.1-3~
 _ZN5vmime7charset5parseERKNSt7__cxx1112basic_stringIcSt11char_traitsIcESaIcEEEmmPm@Base 0.9.1-3~
 _ZN5vmime7charset7convertERKNSt7__cxx1112basic_stringIcSt11char_traitsIcESaIcEEERS6_RKS0_SB_@Base 0.9.1-3~
 _ZN5vmime7charset7convertERNS_7utility11inputStreamERNS1_12outputStreamERKS0_S7_@Base 0.9.1-3~
 _ZN5vmime7charset8copyFromERKNS_9componentE@Base 0.9.1-3~
 _ZN5vmime7charsetC1EPKc@Base 0.9.1-3~
 _ZN5vmime7charsetC1ERKNSt7__cxx1112basic_stringIcSt11char_traitsIcESaIcEEE@Base 0.9.1-3~
 _ZN5vmime7charsetC1Ev@Base 0.9.1-3~
 _ZN5vmime7charsetC2EPKc@Base 0.9.1-3~
 _ZN5vmime7charsetC2ERKNSt7__cxx1112basic_stringIcSt11char_traitsIcESaIcEEE@Base 0.9.1-3~
 _ZN5vmime7charsetC2Ev@Base 0.9.1-3~
 _ZN5vmime7charsetD0Ev@Base 0.9.1-3~
 _ZN5vmime7charsetD1Ev@Base 0.9.1-3~
 _ZN5vmime7charsetD2Ev@Base 0.9.1-3~
 _ZN5vmime7charsetaSERKS0_@Base 0.9.1-3~
 _ZN5vmime7creator6createINS_3net3tls10TLSSessionENS_7utility3refINS_8security4cert19certificateVerifierEEEEENS6_IT_EERKT0_@Base 0.9.1-3~
 _ZN5vmime7creator6createINS_3net3tls25TLSSecuredConnectionInfosENSt7__cxx1112basic_stringIcSt11char_traitsIcESaIcEEEtNS_7utility3refINS3_10TLSSessionEEENSC_INS3_9TLSSocketEEEEENSC_IT_EERKT0_RKT1_RKT2_RKT3_@Base 0.9.1-3~
 _ZN5vmime7creator6createINS_3net4imap10IMAPParserENS_7utility3refINS3_7IMAPTagEEENS6_INS2_6socketEEENS6_INS2_14timeoutHandlerEEEEENS6_IT_EERKT0_RKT1_RKT2_@Base 0.9.1-3~
 _ZN5vmime7creator6createINS_3net4imap29IMAPMessagePartContentHandlerENS_7utility3refINS3_11IMAPMessageEEENS6_INS2_4partEEENS_8encodingEEENS6_IT_EERKT0_RKT1_RKT2_@Base 0.9.1-3~
 _ZN5vmime7libnameB5cxx11Ev@Base 0.9.1-3~
 _ZN5vmime7mailbox5clearEv@Base 0.9.1-3~
 _ZN5vmime7mailbox5parseERKNSt7__cxx1112basic_stringIcSt11char_traitsIcESaIcEEEmmPm@Base 0.9.1-3~
 _ZN5vmime7mailbox7setNameERKNS_4textE@Base 0.9.1-3~
 _ZN5vmime7mailbox8copyFromERKNS_9componentE@Base 0.9.1-3~
 _ZN5vmime7mailbox8setEmailERKNSt7__cxx1112basic_stringIcSt11char_traitsIcESaIcEEE@Base 0.9.1-3~
 _ZN5vmime7mailboxC1ERKNS_4textERKNSt7__cxx1112basic_stringIcSt11char_traitsIcESaIcEEE@Base 0.9.1-3~
 _ZN5vmime7mailboxC1ERKNSt7__cxx1112basic_stringIcSt11char_traitsIcESaIcEEE@Base 0.9.1-3~
 _ZN5vmime7mailboxC1ERKS0_@Base 0.9.1-3~
 _ZN5vmime7mailboxC1Ev@Base 0.9.1-3~
 _ZN5vmime7mailboxC2ERKNS_4textERKNSt7__cxx1112basic_stringIcSt11char_traitsIcESaIcEEE@Base 0.9.1-3~
 _ZN5vmime7mailboxC2ERKNSt7__cxx1112basic_stringIcSt11char_traitsIcESaIcEEE@Base 0.9.1-3~
 _ZN5vmime7mailboxC2ERKS0_@Base 0.9.1-3~
 _ZN5vmime7mailboxC2Ev@Base 0.9.1-3~
 _ZN5vmime7mailboxD0Ev@Base 0.9.1-3~
 _ZN5vmime7mailboxD1Ev@Base 0.9.1-3~
 _ZN5vmime7mailboxD2Ev@Base 0.9.1-3~
 _ZN5vmime7mailboxaSERKS0_@Base 0.9.1-3~
 _ZN5vmime7message5parseERKNSt7__cxx1112basic_stringIcSt11char_traitsIcESaIcEEE@Base 0.9.1-3~
 _ZN5vmime7messageC1Ev@Base 0.9.1-3~
 _ZN5vmime7messageC2Ev@Base 0.9.1-3~
 _ZN5vmime7messageD0Ev@Base 0.9.1-3~
 _ZN5vmime7messageD1Ev@Base 0.9.1-3~
 _ZN5vmime7messageD2Ev@Base 0.9.1-3~
 _ZN5vmime7options11getInstanceEv@Base 0.9.1-3~
 _ZN5vmime7options16multipartOptions13setEpilogTextERKNSt7__cxx1112basic_stringIcSt11char_traitsIcESaIcEEE@Base 0.9.1-3~
 _ZN5vmime7options16multipartOptions13setPrologTextERKNSt7__cxx1112basic_stringIcSt11char_traitsIcESaIcEEE@Base 0.9.1-3~
 _ZN5vmime7options16multipartOptionsC1Ev@Base 0.9.1-3~
 _ZN5vmime7options16multipartOptionsC2Ev@Base 0.9.1-3~
 _ZN5vmime7optionsD1Ev@Base 0.9.1-3~
 _ZN5vmime7optionsD2Ev@Base 0.9.1-3~
 _ZN5vmime7utility10refCounter9decrementEv@Base 0.9.1-3~
 _ZN5vmime7utility10refCounter9incrementEv@Base 0.9.1-3~
 _ZN5vmime7utility10refCounterC1El@Base 0.9.1-3~
 _ZN5vmime7utility10refCounterC2El@Base 0.9.1-3~
 _ZN5vmime7utility10refCounterD1Ev@Base 0.9.1-3~
 _ZN5vmime7utility10refCounterD2Ev@Base 0.9.1-3~
 _ZN5vmime7utility10refManager16deleteObjectImplEPNS_6objectE@Base 0.9.1-3~
 _ZN5vmime7utility10refManager6createEPNS_6objectE@Base 0.9.1-3~
 _ZN5vmime7utility11stringProxy3setERKNSt7__cxx1112basic_stringIcSt11char_traitsIcESaIcEEEmm@Base 0.9.1-3~
 _ZN5vmime7utility11stringProxy6detachEv@Base 0.9.1-3~
 _ZN5vmime7utility11stringProxyC1ERKNSt7__cxx1112basic_stringIcSt11char_traitsIcESaIcEEEmm@Base 0.9.1-3~
 _ZN5vmime7utility11stringProxyC1ERKS1_@Base 0.9.1-3~
 _ZN5vmime7utility11stringProxyC1Ev@Base 0.9.1-3~
 _ZN5vmime7utility11stringProxyC2ERKNSt7__cxx1112basic_stringIcSt11char_traitsIcESaIcEEEmm@Base 0.9.1-3~
 _ZN5vmime7utility11stringProxyC2ERKS1_@Base 0.9.1-3~
 _ZN5vmime7utility11stringProxyC2Ev@Base 0.9.1-3~
 _ZN5vmime7utility11stringProxyaSERKNSt7__cxx1112basic_stringIcSt11char_traitsIcESaIcEEE@Base 0.9.1-3~
 _ZN5vmime7utility11stringProxyaSERKS1_@Base 0.9.1-3~
 _ZN5vmime7utility11stringUtils15countASCIIcharsEN9__gnu_cxx17__normal_iteratorIPKcNSt7__cxx1112basic_stringIcSt11char_traitsIcESaIcEEEEESC_@Base 0.9.1-3~
 _ZN5vmime7utility11stringUtils19isStringEqualNoCaseEN9__gnu_cxx17__normal_iteratorIPKcNSt7__cxx1112basic_stringIcSt11char_traitsIcESaIcEEEEESC_S5_m@Base 0.9.1-3~
 _ZN5vmime7utility11stringUtils19isStringEqualNoCaseERKNSt7__cxx1112basic_stringIcSt11char_traitsIcESaIcEEEPKcm@Base 0.9.1-3~
 _ZN5vmime7utility11stringUtils19isStringEqualNoCaseERKNSt7__cxx1112basic_stringIcSt11char_traitsIcESaIcEEES9_@Base 0.9.1-3~
 _ZN5vmime7utility11stringUtils21findFirstNonASCIIcharEN9__gnu_cxx17__normal_iteratorIPKcNSt7__cxx1112basic_stringIcSt11char_traitsIcESaIcEEEEESC_@Base 0.9.1-3~
 _ZN5vmime7utility11stringUtils4trimERKNSt7__cxx1112basic_stringIcSt11char_traitsIcESaIcEEE@Base 0.9.1-3~
 _ZN5vmime7utility11stringUtils7toLowerERKNSt7__cxx1112basic_stringIcSt11char_traitsIcESaIcEEE@Base 0.9.1-3~
 _ZN5vmime7utility11stringUtils7toUpperERKNSt7__cxx1112basic_stringIcSt11char_traitsIcESaIcEEE@Base 0.9.1-3~
 _ZN5vmime7utility11stringUtils7unquoteERKNSt7__cxx1112basic_stringIcSt11char_traitsIcESaIcEEE@Base 0.9.1-3~
 _ZN5vmime7utility13datetimeUtils10isLeapYearEi@Base 0.9.1-3~
 _ZN5vmime7utility13datetimeUtils11toLocalTimeERKNS_8datetimeEi@Base 0.9.1-3~
 _ZN5vmime7utility13datetimeUtils12getDayOfWeekEiii@Base 0.9.1-3~
 _ZN5vmime7utility13datetimeUtils13getWeekOfYearEiiib@Base 0.9.1-3~
 _ZN5vmime7utility13datetimeUtils14getDaysInMonthEii@Base 0.9.1-3~
 _ZN5vmime7utility13datetimeUtils15toUniversalTimeERKNS_8datetimeE@Base 0.9.1-3~
 _ZN5vmime7utility14refManagerImpl11releaseWeakEv@Base 0.9.1-3~
 _ZN5vmime7utility14refManagerImpl12deleteObjectEv@Base 0.9.1-3~
 _ZN5vmime7utility14refManagerImpl13deleteManagerEv@Base 0.9.1-3~
 _ZN5vmime7utility14refManagerImpl13releaseStrongEv@Base 0.9.1-3~
 _ZN5vmime7utility14refManagerImpl7addWeakEv@Base 0.9.1-3~
 _ZN5vmime7utility14refManagerImpl9addStrongEv@Base 0.9.1-3~
 _ZN5vmime7utility14refManagerImpl9getObjectEv@Base 0.9.1-3~
 _ZN5vmime7utility14refManagerImplC1EPNS_6objectE@Base 0.9.1-3~
 _ZN5vmime7utility14refManagerImplC2EPNS_6objectE@Base 0.9.1-3~
 _ZN5vmime7utility14refManagerImplD0Ev@Base 0.9.1-3~
 _ZN5vmime7utility14refManagerImplD1Ev@Base 0.9.1-3~
 _ZN5vmime7utility14refManagerImplD2Ev@Base 0.9.1-3~
 _ZN5vmime7utility18bufferedStreamCopyERNS0_11inputStreamERNS0_12outputStreamE@Base 0.9.1-3~
 _ZN5vmime7utility18bufferedStreamCopyERNS0_11inputStreamERNS0_12outputStreamEmPNS0_16progressListenerE@Base 0.9.1-3~
 _ZN5vmime7utility18inputStreamAdapter4readEPcm@Base 0.9.1-3~
 _ZN5vmime7utility18inputStreamAdapter4skipEm@Base 0.9.1-3~
 _ZN5vmime7utility18inputStreamAdapter5resetEv@Base 0.9.1-3~
 _ZN5vmime7utility18inputStreamAdapterC1ERSi@Base 0.9.1-3~
 _ZN5vmime7utility18inputStreamAdapterC2ERSi@Base 0.9.1-3~
 _ZN5vmime7utility18inputStreamAdapterD0Ev@Base 0.9.1-3~
 _ZN5vmime7utility18inputStreamAdapterD1Ev@Base 0.9.1-3~
 _ZN5vmime7utility18inputStreamAdapterD2Ev@Base 0.9.1-3~
 _ZN5vmime7utility19filteredInputStream12getBlockSizeEv@Base 0.9.1-3~
 _ZN5vmime7utility19outputStreamAdapter5flushEv@Base 0.9.1-3~
 _ZN5vmime7utility19outputStreamAdapter5writeEPKcm@Base 0.9.1-3~
 _ZN5vmime7utility19outputStreamAdapterC1ERSo@Base 0.9.1-3~
 _ZN5vmime7utility19outputStreamAdapterC2ERSo@Base 0.9.1-3~
 _ZN5vmime7utility19outputStreamAdapterD0Ev@Base 0.9.1-3~
 _ZN5vmime7utility19outputStreamAdapterD1Ev@Base 0.9.1-3~
 _ZN5vmime7utility19outputStreamAdapterD2Ev@Base 0.9.1-3~
 _ZN5vmime7utility20filteredOutputStream12getBlockSizeEv@Base 0.9.1-3~
 _ZN5vmime7utility22dotFilteredInputStream22getPreviousInputStreamEv@Base 0.9.1-3~
 _ZN5vmime7utility22dotFilteredInputStream4readEPcm@Base 0.9.1-3~
 _ZN5vmime7utility22dotFilteredInputStream4skipEm@Base 0.9.1-3~
 _ZN5vmime7utility22dotFilteredInputStream5resetEv@Base 0.9.1-3~
 _ZN5vmime7utility22dotFilteredInputStreamC1ERNS0_11inputStreamE@Base 0.9.1-3~
 _ZN5vmime7utility22dotFilteredInputStreamC2ERNS0_11inputStreamE@Base 0.9.1-3~
 _ZN5vmime7utility22dotFilteredInputStreamD0Ev@Base 0.9.1-3~
 _ZN5vmime7utility22dotFilteredInputStreamD1Ev@Base 0.9.1-3~
 _ZN5vmime7utility22dotFilteredInputStreamD2Ev@Base 0.9.1-3~
 _ZN5vmime7utility23dotFilteredOutputStream19getNextOutputStreamEv@Base 0.9.1-3~
 _ZN5vmime7utility23dotFilteredOutputStream5flushEv@Base 0.9.1-3~
 _ZN5vmime7utility23dotFilteredOutputStream5writeEPKcm@Base 0.9.1-3~
 _ZN5vmime7utility23dotFilteredOutputStreamC1ERNS0_12outputStreamE@Base 0.9.1-3~
 _ZN5vmime7utility23dotFilteredOutputStreamC2ERNS0_12outputStreamE@Base 0.9.1-3~
 _ZN5vmime7utility23dotFilteredOutputStreamD0Ev@Base 0.9.1-3~
 _ZN5vmime7utility23dotFilteredOutputStreamD1Ev@Base 0.9.1-3~
 _ZN5vmime7utility23dotFilteredOutputStreamD2Ev@Base 0.9.1-3~
 _ZN5vmime7utility24inputStreamSocketAdapter12getBlockSizeEv@Base 0.9.1-3~
 _ZN5vmime7utility24inputStreamSocketAdapter4readEPcm@Base 0.9.1-3~
 _ZN5vmime7utility24inputStreamSocketAdapter4skipEm@Base 0.9.1-3~
 _ZN5vmime7utility24inputStreamSocketAdapter5resetEv@Base 0.9.1-3~
 _ZN5vmime7utility24inputStreamSocketAdapterC1ERNS_3net6socketE@Base 0.9.1-3~
 _ZN5vmime7utility24inputStreamSocketAdapterC2ERNS_3net6socketE@Base 0.9.1-3~
 _ZN5vmime7utility24inputStreamSocketAdapterD0Ev@Base 0.9.1-3~
 _ZN5vmime7utility24inputStreamSocketAdapterD1Ev@Base 0.9.1-3~
 _ZN5vmime7utility24inputStreamSocketAdapterD2Ev@Base 0.9.1-3~
 _ZN5vmime7utility24inputStreamStringAdapter4readEPcm@Base 0.9.1-3~
 _ZN5vmime7utility24inputStreamStringAdapter4skipEm@Base 0.9.1-3~
 _ZN5vmime7utility24inputStreamStringAdapter5resetEv@Base 0.9.1-3~
 _ZN5vmime7utility24inputStreamStringAdapterC1ERKNSt7__cxx1112basic_stringIcSt11char_traitsIcESaIcEEE@Base 0.9.1-3~
 _ZN5vmime7utility24inputStreamStringAdapterC1ERKNSt7__cxx1112basic_stringIcSt11char_traitsIcESaIcEEEmm@Base 0.9.1-3~
 _ZN5vmime7utility24inputStreamStringAdapterC2ERKNSt7__cxx1112basic_stringIcSt11char_traitsIcESaIcEEE@Base 0.9.1-3~
 _ZN5vmime7utility24inputStreamStringAdapterC2ERKNSt7__cxx1112basic_stringIcSt11char_traitsIcESaIcEEEmm@Base 0.9.1-3~
 _ZN5vmime7utility24inputStreamStringAdapterD0Ev@Base 0.9.1-3~
 _ZN5vmime7utility24inputStreamStringAdapterD1Ev@Base 0.9.1-3~
 _ZN5vmime7utility24inputStreamStringAdapterD2Ev@Base 0.9.1-3~
 _ZN5vmime7utility25inputStreamPointerAdapter4readEPcm@Base 0.9.1-3~
 _ZN5vmime7utility25inputStreamPointerAdapter4skipEm@Base 0.9.1-3~
 _ZN5vmime7utility25inputStreamPointerAdapter5resetEv@Base 0.9.1-3~
 _ZN5vmime7utility25inputStreamPointerAdapterC1EPSib@Base 0.9.1-3~
 _ZN5vmime7utility25inputStreamPointerAdapterC1ERKS1_@Base 0.9.1-3~
 _ZN5vmime7utility25inputStreamPointerAdapterC2EPSib@Base 0.9.1-3~
 _ZN5vmime7utility25inputStreamPointerAdapterC2ERKS1_@Base 0.9.1-3~
 _ZN5vmime7utility25inputStreamPointerAdapterD0Ev@Base 0.9.1-3~
 _ZN5vmime7utility25inputStreamPointerAdapterD1Ev@Base 0.9.1-3~
 _ZN5vmime7utility25inputStreamPointerAdapterD2Ev@Base 0.9.1-3~
 _ZN5vmime7utility25outputStreamSocketAdapter12getBlockSizeEv@Base 0.9.1-3~
 _ZN5vmime7utility25outputStreamSocketAdapter5flushEv@Base 0.9.1-3~
 _ZN5vmime7utility25outputStreamSocketAdapter5writeEPKcm@Base 0.9.1-3~
 _ZN5vmime7utility25outputStreamSocketAdapterC1ERNS_3net6socketE@Base 0.9.1-3~
 _ZN5vmime7utility25outputStreamSocketAdapterC2ERNS_3net6socketE@Base 0.9.1-3~
 _ZN5vmime7utility25outputStreamSocketAdapterD0Ev@Base 0.9.1-3~
 _ZN5vmime7utility25outputStreamSocketAdapterD1Ev@Base 0.9.1-3~
 _ZN5vmime7utility25outputStreamSocketAdapterD2Ev@Base 0.9.1-3~
 _ZN5vmime7utility25outputStreamStringAdapter12getBlockSizeEv@Base 0.9.1-3~
 _ZN5vmime7utility25outputStreamStringAdapter5flushEv@Base 0.9.1-3~
 _ZN5vmime7utility25outputStreamStringAdapter5writeEPKcm@Base 0.9.1-3~
 _ZN5vmime7utility25outputStreamStringAdapterC1ERNSt7__cxx1112basic_stringIcSt11char_traitsIcESaIcEEE@Base 0.9.1-3~
 _ZN5vmime7utility25outputStreamStringAdapterC2ERNSt7__cxx1112basic_stringIcSt11char_traitsIcESaIcEEE@Base 0.9.1-3~
 _ZN5vmime7utility25outputStreamStringAdapterD0Ev@Base 0.9.1-3~
 _ZN5vmime7utility25outputStreamStringAdapterD1Ev@Base 0.9.1-3~
 _ZN5vmime7utility25outputStreamStringAdapterD2Ev@Base 0.9.1-3~
 _ZN5vmime7utility27charsetFilteredOutputStream19getNextOutputStreamEv@Base 0.9.1-3~
 _ZN5vmime7utility27charsetFilteredOutputStream5flushEv@Base 0.9.1-3~
 _ZN5vmime7utility27charsetFilteredOutputStream5writeEPKcm@Base 0.9.1-3~
 _ZN5vmime7utility27charsetFilteredOutputStreamC1ERKNS_7charsetES4_RNS0_12outputStreamE@Base 0.9.1-3~
 _ZN5vmime7utility27charsetFilteredOutputStreamC2ERKNS_7charsetES4_RNS0_12outputStreamE@Base 0.9.1-3~
 _ZN5vmime7utility27charsetFilteredOutputStreamD0Ev@Base 0.9.1-3~
 _ZN5vmime7utility27charsetFilteredOutputStreamD1Ev@Base 0.9.1-3~
 _ZN5vmime7utility27charsetFilteredOutputStreamD2Ev@Base 0.9.1-3~
 _ZN5vmime7utility27progressListenerSizeAdapter4stopEi@Base 0.9.1-3~
 _ZN5vmime7utility27progressListenerSizeAdapter5startEi@Base 0.9.1-3~
 _ZN5vmime7utility27progressListenerSizeAdapter8progressEii@Base 0.9.1-3~
 _ZN5vmime7utility27progressListenerSizeAdapterC1EPNS0_16progressListenerEi@Base 0.9.1-3~
 _ZN5vmime7utility27progressListenerSizeAdapterC2EPNS0_16progressListenerEi@Base 0.9.1-3~
 _ZN5vmime7utility27progressListenerSizeAdapterD0Ev@Base 0.9.1-3~
 _ZN5vmime7utility27progressListenerSizeAdapterD1Ev@Base 0.9.1-3~
 _ZN5vmime7utility27progressListenerSizeAdapterD2Ev@Base 0.9.1-3~
 _ZN5vmime7utility28CRLFToLFFilteredOutputStream19getNextOutputStreamEv@Base 0.9.1-3~
 _ZN5vmime7utility28CRLFToLFFilteredOutputStream5flushEv@Base 0.9.1-3~
 _ZN5vmime7utility28CRLFToLFFilteredOutputStream5writeEPKcm@Base 0.9.1-3~
 _ZN5vmime7utility28CRLFToLFFilteredOutputStreamC1ERNS0_12outputStreamE@Base 0.9.1-3~
 _ZN5vmime7utility28CRLFToLFFilteredOutputStreamC2ERNS0_12outputStreamE@Base 0.9.1-3~
 _ZN5vmime7utility28CRLFToLFFilteredOutputStreamD0Ev@Base 0.9.1-3~
 _ZN5vmime7utility28CRLFToLFFilteredOutputStreamD1Ev@Base 0.9.1-3~
 _ZN5vmime7utility28CRLFToLFFilteredOutputStreamD2Ev@Base 0.9.1-3~
 _ZN5vmime7utility28inputStreamByteBufferAdapter4readEPcm@Base 0.9.1-3~
 _ZN5vmime7utility28inputStreamByteBufferAdapter4skipEm@Base 0.9.1-3~
 _ZN5vmime7utility28inputStreamByteBufferAdapter5resetEv@Base 0.9.1-3~
 _ZN5vmime7utility28inputStreamByteBufferAdapterC1EPKhm@Base 0.9.1-3~
 _ZN5vmime7utility28inputStreamByteBufferAdapterC2EPKhm@Base 0.9.1-3~
 _ZN5vmime7utility28inputStreamByteBufferAdapterD0Ev@Base 0.9.1-3~
 _ZN5vmime7utility28inputStreamByteBufferAdapterD1Ev@Base 0.9.1-3~
 _ZN5vmime7utility28inputStreamByteBufferAdapterD2Ev@Base 0.9.1-3~
 _ZN5vmime7utility28outputStreamByteArrayAdapter5flushEv@Base 0.9.1-3~
 _ZN5vmime7utility28outputStreamByteArrayAdapter5writeEPKcm@Base 0.9.1-3~
 _ZN5vmime7utility28outputStreamByteArrayAdapterC1ERSt6vectorIhSaIhEE@Base 0.9.1-3~
 _ZN5vmime7utility28outputStreamByteArrayAdapterC2ERSt6vectorIhSaIhEE@Base 0.9.1-3~
 _ZN5vmime7utility28outputStreamByteArrayAdapterD0Ev@Base 0.9.1-3~
 _ZN5vmime7utility28outputStreamByteArrayAdapterD1Ev@Base 0.9.1-3~
 _ZN5vmime7utility28outputStreamByteArrayAdapterD2Ev@Base 0.9.1-3~
 _ZN5vmime7utility29inputStreamStringProxyAdapter4readEPcm@Base 0.9.1-3~
 _ZN5vmime7utility29inputStreamStringProxyAdapter4skipEm@Base 0.9.1-3~
 _ZN5vmime7utility29inputStreamStringProxyAdapter5resetEv@Base 0.9.1-3~
 _ZN5vmime7utility29inputStreamStringProxyAdapterC1ERKNS0_11stringProxyE@Base 0.9.1-3~
 _ZN5vmime7utility29inputStreamStringProxyAdapterC2ERKNS0_11stringProxyE@Base 0.9.1-3~
 _ZN5vmime7utility29inputStreamStringProxyAdapterD0Ev@Base 0.9.1-3~
 _ZN5vmime7utility29inputStreamStringProxyAdapterD1Ev@Base 0.9.1-3~
 _ZN5vmime7utility29inputStreamStringProxyAdapterD2Ev@Base 0.9.1-3~
 _ZN5vmime7utility31stopSequenceFilteredInputStreamILi1EE4readEPcm@Base 0.9.1-3~
 _ZN5vmime7utility31stopSequenceFilteredInputStreamILi3EE22getPreviousInputStreamEv@Base 0.9.1-3~
 _ZN5vmime7utility31stopSequenceFilteredInputStreamILi3EE4readEPcm@Base 0.9.1-3~
 _ZN5vmime7utility31stopSequenceFilteredInputStreamILi3EE4skipEm@Base 0.9.1-3~
 _ZN5vmime7utility31stopSequenceFilteredInputStreamILi3EE5resetEv@Base 0.9.1-3~
 _ZN5vmime7utility31stopSequenceFilteredInputStreamILi3EED0Ev@Base 0.9.1-3~
 _ZN5vmime7utility31stopSequenceFilteredInputStreamILi3EED1Ev@Base 0.9.1-3~
 _ZN5vmime7utility31stopSequenceFilteredInputStreamILi3EED2Ev@Base 0.9.1-3~
 _ZN5vmime7utility31stopSequenceFilteredInputStreamILi5EE22getPreviousInputStreamEv@Base 0.9.1-3~
 _ZN5vmime7utility31stopSequenceFilteredInputStreamILi5EE4readEPcm@Base 0.9.1-3~
 _ZN5vmime7utility31stopSequenceFilteredInputStreamILi5EE4skipEm@Base 0.9.1-3~
 _ZN5vmime7utility31stopSequenceFilteredInputStreamILi5EE5resetEv@Base 0.9.1-3~
 _ZN5vmime7utility31stopSequenceFilteredInputStreamILi5EED0Ev@Base 0.9.1-3~
 _ZN5vmime7utility31stopSequenceFilteredInputStreamILi5EED1Ev@Base 0.9.1-3~
 _ZN5vmime7utility31stopSequenceFilteredInputStreamILi5EED2Ev@Base 0.9.1-3~
 _ZN5vmime7utility3refIKNS0_7encoder14encoderFactory17registeredEncoderEED0Ev@Base 0.9.1-3~
 _ZN5vmime7utility3refIKNS0_7encoder14encoderFactory17registeredEncoderEED1Ev@Base 0.9.1-3~
 _ZN5vmime7utility3refIKNS0_7encoder14encoderFactory17registeredEncoderEED2Ev@Base 0.9.1-3~
 _ZN5vmime7utility3refIKNS_10attachmentEED0Ev@Base 0.9.1-3~
 _ZN5vmime7utility3refIKNS_10attachmentEED1Ev@Base 0.9.1-3~
 _ZN5vmime7utility3refIKNS_10attachmentEED2Ev@Base 0.9.1-3~
 _ZN5vmime7utility3refIKNS_11addressListEED0Ev@Base 0.9.1-3~
 _ZN5vmime7utility3refIKNS_11addressListEED1Ev@Base 0.9.1-3~
 _ZN5vmime7utility3refIKNS_11addressListEED2Ev@Base 0.9.1-3~
 _ZN5vmime7utility3refIKNS_11dispositionEED0Ev@Base 0.9.1-3~
 _ZN5vmime7utility3refIKNS_11dispositionEED1Ev@Base 0.9.1-3~
 _ZN5vmime7utility3refIKNS_11dispositionEED2Ev@Base 0.9.1-3~
 _ZN5vmime7utility3refIKNS_11headerFieldEED0Ev@Base 0.9.1-3~
 _ZN5vmime7utility3refIKNS_11headerFieldEED1Ev@Base 0.9.1-3~
 _ZN5vmime7utility3refIKNS_11headerFieldEED2Ev@Base 0.9.1-3~
 _ZN5vmime7utility3refIKNS_11mailboxListEED0Ev@Base 0.9.1-3~
 _ZN5vmime7utility3refIKNS_11mailboxListEED1Ev@Base 0.9.1-3~
 _ZN5vmime7utility3refIKNS_11mailboxListEED2Ev@Base 0.9.1-3~
 _ZN5vmime7utility3refIKNS_11propertySet8propertyEED0Ev@Base 0.9.1-3~
 _ZN5vmime7utility3refIKNS_11propertySet8propertyEED1Ev@Base 0.9.1-3~
 _ZN5vmime7utility3refIKNS_11propertySet8propertyEED2Ev@Base 0.9.1-3~
 _ZN5vmime7utility3refIKNS_12htmlTextPart14embeddedObjectEED0Ev@Base 0.9.1-3~
 _ZN5vmime7utility3refIKNS_12htmlTextPart14embeddedObjectEED1Ev@Base 0.9.1-3~
 _ZN5vmime7utility3refIKNS_12htmlTextPart14embeddedObjectEED2Ev@Base 0.9.1-3~
 _ZN5vmime7utility3refIKNS_12mailboxGroupEED0Ev@Base 0.9.1-3~
 _ZN5vmime7utility3refIKNS_12mailboxGroupEED1Ev@Base 0.9.1-3~
 _ZN5vmime7utility3refIKNS_12mailboxGroupEED2Ev@Base 0.9.1-3~
 _ZN5vmime7utility3refIKNS_14contentHandlerEED0Ev@Base 0.9.1-3~
 _ZN5vmime7utility3refIKNS_14contentHandlerEED1Ev@Base 0.9.1-3~
 _ZN5vmime7utility3refIKNS_14contentHandlerEED2Ev@Base 0.9.1-3~
 _ZN5vmime7utility3refIKNS_16contentTypeFieldEED0Ev@Base 0.9.1-3~
 _ZN5vmime7utility3refIKNS_16contentTypeFieldEED1Ev@Base 0.9.1-3~
 _ZN5vmime7utility3refIKNS_16contentTypeFieldEED2Ev@Base 0.9.1-3~
 _ZN5vmime7utility3refIKNS_16headerFieldValueEED0Ev@Base 0.9.1-3~
 _ZN5vmime7utility3refIKNS_16headerFieldValueEED1Ev@Base 0.9.1-3~
 _ZN5vmime7utility3refIKNS_16headerFieldValueEED2Ev@Base 0.9.1-3~
 _ZN5vmime7utility3refIKNS_18contentDispositionEED0Ev@Base 0.9.1-3~
 _ZN5vmime7utility3refIKNS_18contentDispositionEED1Ev@Base 0.9.1-3~
 _ZN5vmime7utility3refIKNS_18contentDispositionEED2Ev@Base 0.9.1-3~
 _ZN5vmime7utility3refIKNS_23contentDispositionFieldEED0Ev@Base 0.9.1-3~
 _ZN5vmime7utility3refIKNS_23contentDispositionFieldEED1Ev@Base 0.9.1-3~
 _ZN5vmime7utility3refIKNS_23contentDispositionFieldEED2Ev@Base 0.9.1-3~
 _ZN5vmime7utility3refIKNS_3net14serviceFactory17registeredServiceEED0Ev@Base 0.9.1-3~
 _ZN5vmime7utility3refIKNS_3net14serviceFactory17registeredServiceEED1Ev@Base 0.9.1-3~
 _ZN5vmime7utility3refIKNS_3net14serviceFactory17registeredServiceEED2Ev@Base 0.9.1-3~
 _ZN5vmime7utility3refIKNS_3net4imap10IMAPFolderEED0Ev@Base 0.9.1-3~
 _ZN5vmime7utility3refIKNS_3net4imap10IMAPFolderEED1Ev@Base 0.9.1-3~
 _ZN5vmime7utility3refIKNS_3net4imap10IMAPFolderEED2Ev@Base 0.9.1-3~
 _ZN5vmime7utility3refIKNS_3net4imap10IMAPParserEED0Ev@Base 0.9.1-3~
 _ZN5vmime7utility3refIKNS_3net4imap10IMAPParserEED1Ev@Base 0.9.1-3~
 _ZN5vmime7utility3refIKNS_3net4imap10IMAPParserEED2Ev@Base 0.9.1-3~
 _ZN5vmime7utility3refIKNS_3net4imap11IMAPMessageEED0Ev@Base 0.9.1-3~
 _ZN5vmime7utility3refIKNS_3net4imap11IMAPMessageEED1Ev@Base 0.9.1-3~
 _ZN5vmime7utility3refIKNS_3net4imap11IMAPMessageEED2Ev@Base 0.9.1-3~
 _ZN5vmime7utility3refIKNS_3net4imap7IMAPTagEED0Ev@Base 0.9.1-3~
 _ZN5vmime7utility3refIKNS_3net4imap7IMAPTagEED1Ev@Base 0.9.1-3~
 _ZN5vmime7utility3refIKNS_3net4imap7IMAPTagEED2Ev@Base 0.9.1-3~
 _ZN5vmime7utility3refIKNS_3net4imap8IMAPPartEED0Ev@Base 0.9.1-3~
 _ZN5vmime7utility3refIKNS_3net4imap8IMAPPartEED1Ev@Base 0.9.1-3~
 _ZN5vmime7utility3refIKNS_3net4imap8IMAPPartEED2Ev@Base 0.9.1-3~
 _ZN5vmime7utility3refIKNS_3net4imap9IMAPStoreEED0Ev@Base 0.9.1-3~
 _ZN5vmime7utility3refIKNS_3net4imap9IMAPStoreEED1Ev@Base 0.9.1-3~
 _ZN5vmime7utility3refIKNS_3net4imap9IMAPStoreEED2Ev@Base 0.9.1-3~
 _ZN5vmime7utility3refIKNS_3net4partEED0Ev@Base 0.9.1-3~
 _ZN5vmime7utility3refIKNS_3net4partEED1Ev@Base 0.9.1-3~
 _ZN5vmime7utility3refIKNS_3net4partEED2Ev@Base 0.9.1-3~
 _ZN5vmime7utility3refIKNS_3net4pop310POP3FolderEED0Ev@Base 0.9.1-3~
 _ZN5vmime7utility3refIKNS_3net4pop310POP3FolderEED1Ev@Base 0.9.1-3~
 _ZN5vmime7utility3refIKNS_3net4pop310POP3FolderEED2Ev@Base 0.9.1-3~
 _ZN5vmime7utility3refIKNS_3net4pop39POP3StoreEED0Ev@Base 0.9.1-3~
 _ZN5vmime7utility3refIKNS_3net4pop39POP3StoreEED1Ev@Base 0.9.1-3~
 _ZN5vmime7utility3refIKNS_3net4pop39POP3StoreEED2Ev@Base 0.9.1-3~
 _ZN5vmime7utility3refIKNS_3net5storeEED0Ev@Base 0.9.1-3~
 _ZN5vmime7utility3refIKNS_3net5storeEED1Ev@Base 0.9.1-3~
 _ZN5vmime7utility3refIKNS_3net5storeEED2Ev@Base 0.9.1-3~
 _ZN5vmime7utility3refIKNS_3net6socketEED0Ev@Base 0.9.1-3~
 _ZN5vmime7utility3refIKNS_3net6socketEED1Ev@Base 0.9.1-3~
 _ZN5vmime7utility3refIKNS_3net6socketEED2Ev@Base 0.9.1-3~
 _ZN5vmime7utility3refIKNS_3net7maildir11maildirPartEED0Ev@Base 0.9.1-3~
 _ZN5vmime7utility3refIKNS_3net7maildir11maildirPartEED1Ev@Base 0.9.1-3~
 _ZN5vmime7utility3refIKNS_3net7maildir11maildirPartEED2Ev@Base 0.9.1-3~
 _ZN5vmime7utility3refIKNS_3net7maildir12maildirStoreEED0Ev@Base 0.9.1-3~
 _ZN5vmime7utility3refIKNS_3net7maildir12maildirStoreEED1Ev@Base 0.9.1-3~
 _ZN5vmime7utility3refIKNS_3net7maildir12maildirStoreEED2Ev@Base 0.9.1-3~
 _ZN5vmime7utility3refIKNS_3net7maildir13maildirFolderEED0Ev@Base 0.9.1-3~
 _ZN5vmime7utility3refIKNS_3net7maildir13maildirFolderEED1Ev@Base 0.9.1-3~
 _ZN5vmime7utility3refIKNS_3net7maildir13maildirFolderEED2Ev@Base 0.9.1-3~
 _ZN5vmime7utility3refIKNS_3net7maildir13maildirFormat7contextEED0Ev@Base 0.9.1-3~
 _ZN5vmime7utility3refIKNS_3net7maildir13maildirFormat7contextEED1Ev@Base 0.9.1-3~
 _ZN5vmime7utility3refIKNS_3net7maildir13maildirFormat7contextEED2Ev@Base 0.9.1-3~
 _ZN5vmime7utility3refIKNS_3net7maildir13maildirFormatEED0Ev@Base 0.9.1-3~
 _ZN5vmime7utility3refIKNS_3net7maildir13maildirFormatEED1Ev@Base 0.9.1-3~
 _ZN5vmime7utility3refIKNS_3net7maildir13maildirFormatEED2Ev@Base 0.9.1-3~
 _ZN5vmime7utility3refIKNS_3net7serviceEED0Ev@Base 0.9.1-3~
 _ZN5vmime7utility3refIKNS_3net7serviceEED1Ev@Base 0.9.1-3~
 _ZN5vmime7utility3refIKNS_3net7serviceEED2Ev@Base 0.9.1-3~
 _ZN5vmime7utility3refIKNS_3net7sessionEED0Ev@Base 0.9.1-3~
 _ZN5vmime7utility3refIKNS_3net7sessionEED1Ev@Base 0.9.1-3~
 _ZN5vmime7utility3refIKNS_3net7sessionEED2Ev@Base 0.9.1-3~
 _ZN5vmime7utility3refIKNS_3net9structureEED0Ev@Base 0.9.1-3~
 _ZN5vmime7utility3refIKNS_3net9structureEED1Ev@Base 0.9.1-3~
 _ZN5vmime7utility3refIKNS_3net9structureEED2Ev@Base 0.9.1-3~
 _ZN5vmime7utility3refIKNS_4bodyEED0Ev@Base 0.9.1-3~
 _ZN5vmime7utility3refIKNS_4bodyEED1Ev@Base 0.9.1-3~
 _ZN5vmime7utility3refIKNS_4bodyEED2Ev@Base 0.9.1-3~
 _ZN5vmime7utility3refIKNS_4pathEED0Ev@Base 0.9.1-3~
 _ZN5vmime7utility3refIKNS_4pathEED1Ev@Base 0.9.1-3~
 _ZN5vmime7utility3refIKNS_4pathEED2Ev@Base 0.9.1-3~
 _ZN5vmime7utility3refIKNS_4textEED0Ev@Base 0.9.1-3~
 _ZN5vmime7utility3refIKNS_4textEED1Ev@Base 0.9.1-3~
 _ZN5vmime7utility3refIKNS_4textEED2Ev@Base 0.9.1-3~
 _ZN5vmime7utility3refIKNS_4wordEED0Ev@Base 0.9.1-3~
 _ZN5vmime7utility3refIKNS_4wordEED1Ev@Base 0.9.1-3~
 _ZN5vmime7utility3refIKNS_4wordEED2Ev@Base 0.9.1-3~
 _ZN5vmime7utility3refIKNS_5relayEED0Ev@Base 0.9.1-3~
 _ZN5vmime7utility3refIKNS_5relayEED1Ev@Base 0.9.1-3~
 _ZN5vmime7utility3refIKNS_5relayEED2Ev@Base 0.9.1-3~
 _ZN5vmime7utility3refIKNS_6headerEED0Ev@Base 0.9.1-3~
 _ZN5vmime7utility3refIKNS_6headerEED1Ev@Base 0.9.1-3~
 _ZN5vmime7utility3refIKNS_6headerEED2Ev@Base 0.9.1-3~
 _ZN5vmime7utility3refIKNS_6objectEED0Ev@Base 0.9.1-3~
 _ZN5vmime7utility3refIKNS_6objectEED1Ev@Base 0.9.1-3~
 _ZN5vmime7utility3refIKNS_6objectEED2Ev@Base 0.9.1-3~
 _ZN5vmime7utility3refIKNS_7addressEED0Ev@Base 0.9.1-3~
 _ZN5vmime7utility3refIKNS_7addressEED1Ev@Base 0.9.1-3~
 _ZN5vmime7utility3refIKNS_7addressEED2Ev@Base 0.9.1-3~
 _ZN5vmime7utility3refIKNS_7mailboxEED0Ev@Base 0.9.1-3~
 _ZN5vmime7utility3refIKNS_7mailboxEED1Ev@Base 0.9.1-3~
 _ZN5vmime7utility3refIKNS_7mailboxEED2Ev@Base 0.9.1-3~
 _ZN5vmime7utility3refIKNS_7messageEED0Ev@Base 0.9.1-3~
 _ZN5vmime7utility3refIKNS_7messageEED1Ev@Base 0.9.1-3~
 _ZN5vmime7utility3refIKNS_7messageEED2Ev@Base 0.9.1-3~
 _ZN5vmime7utility3refIKNS_8bodyPartEED0Ev@Base 0.9.1-3~
 _ZN5vmime7utility3refIKNS_8bodyPartEED1Ev@Base 0.9.1-3~
 _ZN5vmime7utility3refIKNS_8bodyPartEED2Ev@Base 0.9.1-3~
 _ZN5vmime7utility3refIKNS_8datetimeEED0Ev@Base 0.9.1-3~
 _ZN5vmime7utility3refIKNS_8datetimeEED1Ev@Base 0.9.1-3~
 _ZN5vmime7utility3refIKNS_8datetimeEED2Ev@Base 0.9.1-3~
 _ZN5vmime7utility3refIKNS_8encodingEED0Ev@Base 0.9.1-3~
 _ZN5vmime7utility3refIKNS_8encodingEED1Ev@Base 0.9.1-3~
 _ZN5vmime7utility3refIKNS_8encodingEED2Ev@Base 0.9.1-3~
 _ZN5vmime7utility3refIKNS_8security13authenticatorEED0Ev@Base 0.9.1-3~
 _ZN5vmime7utility3refIKNS_8security13authenticatorEED1Ev@Base 0.9.1-3~
 _ZN5vmime7utility3refIKNS_8security13authenticatorEED2Ev@Base 0.9.1-3~
 _ZN5vmime7utility3refIKNS_8security4cert11certificateEED0Ev@Base 0.9.1-3~
 _ZN5vmime7utility3refIKNS_8security4cert11certificateEED1Ev@Base 0.9.1-3~
 _ZN5vmime7utility3refIKNS_8security4cert11certificateEED2Ev@Base 0.9.1-3~
 _ZN5vmime7utility3refIKNS_8security4cert15X509CertificateEED0Ev@Base 0.9.1-3~
 _ZN5vmime7utility3refIKNS_8security4cert15X509CertificateEED1Ev@Base 0.9.1-3~
 _ZN5vmime7utility3refIKNS_8security4cert15X509CertificateEED2Ev@Base 0.9.1-3~
 _ZN5vmime7utility3refIKNS_8security4cert16certificateChainEED0Ev@Base 0.9.1-3~
 _ZN5vmime7utility3refIKNS_8security4cert16certificateChainEED1Ev@Base 0.9.1-3~
 _ZN5vmime7utility3refIKNS_8security4cert16certificateChainEED2Ev@Base 0.9.1-3~
 _ZN5vmime7utility3refIKNS_8security4sasl11SASLSessionEED0Ev@Base 0.9.1-3~
 _ZN5vmime7utility3refIKNS_8security4sasl11SASLSessionEED1Ev@Base 0.9.1-3~
 _ZN5vmime7utility3refIKNS_8security4sasl11SASLSessionEED2Ev@Base 0.9.1-3~
 _ZN5vmime7utility3refIKNS_8textPartEED0Ev@Base 0.9.1-3~
 _ZN5vmime7utility3refIKNS_8textPartEED1Ev@Base 0.9.1-3~
 _ZN5vmime7utility3refIKNS_8textPartEED2Ev@Base 0.9.1-3~
 _ZN5vmime7utility3refIKNS_9componentEED0Ev@Base 0.9.1-3~
 _ZN5vmime7utility3refIKNS_9componentEED1Ev@Base 0.9.1-3~
 _ZN5vmime7utility3refIKNS_9componentEED2Ev@Base 0.9.1-3~
 _ZN5vmime7utility3refIKNS_9mediaTypeEED0Ev@Base 0.9.1-3~
 _ZN5vmime7utility3refIKNS_9mediaTypeEED1Ev@Base 0.9.1-3~
 _ZN5vmime7utility3refIKNS_9mediaTypeEED2Ev@Base 0.9.1-3~
 _ZN5vmime7utility3refIKNS_9messageIdEED0Ev@Base 0.9.1-3~
 _ZN5vmime7utility3refIKNS_9messageIdEED1Ev@Base 0.9.1-3~
 _ZN5vmime7utility3refIKNS_9messageIdEED2Ev@Base 0.9.1-3~
 _ZN5vmime7utility3refIKNS_9parameterEED0Ev@Base 0.9.1-3~
 _ZN5vmime7utility3refIKNS_9parameterEED1Ev@Base 0.9.1-3~
 _ZN5vmime7utility3refIKNS_9parameterEED2Ev@Base 0.9.1-3~
 _ZN5vmime7utility3refINS0_10fileReaderEED0Ev@Base 0.9.1-3~
 _ZN5vmime7utility3refINS0_10fileReaderEED1Ev@Base 0.9.1-3~
 _ZN5vmime7utility3refINS0_10fileReaderEED2Ev@Base 0.9.1-3~
 _ZN5vmime7utility3refINS0_10fileWriterEED0Ev@Base 0.9.1-3~
 _ZN5vmime7utility3refINS0_10fileWriterEED1Ev@Base 0.9.1-3~
 _ZN5vmime7utility3refINS0_10fileWriterEED2Ev@Base 0.9.1-3~
 _ZN5vmime7utility3refINS0_11inputStreamEED0Ev@Base 0.9.1-3~
 _ZN5vmime7utility3refINS0_11inputStreamEED1Ev@Base 0.9.1-3~
 _ZN5vmime7utility3refINS0_11inputStreamEED2Ev@Base 0.9.1-3~
 _ZN5vmime7utility3refINS0_12childProcessEED0Ev@Base 0.9.1-3~
 _ZN5vmime7utility3refINS0_12childProcessEED1Ev@Base 0.9.1-3~
 _ZN5vmime7utility3refINS0_12childProcessEED2Ev@Base 0.9.1-3~
 _ZN5vmime7utility3refINS0_12fileIteratorEED0Ev@Base 0.9.1-3~
 _ZN5vmime7utility3refINS0_12fileIteratorEED1Ev@Base 0.9.1-3~
 _ZN5vmime7utility3refINS0_12fileIteratorEED2Ev@Base 0.9.1-3~
 _ZN5vmime7utility3refINS0_12outputStreamEED0Ev@Base 0.9.1-3~
 _ZN5vmime7utility3refINS0_12outputStreamEED1Ev@Base 0.9.1-3~
 _ZN5vmime7utility3refINS0_12outputStreamEED2Ev@Base 0.9.1-3~
 _ZN5vmime7utility3refINS0_17fileSystemFactoryEED0Ev@Base 0.9.1-3~
 _ZN5vmime7utility3refINS0_17fileSystemFactoryEED1Ev@Base 0.9.1-3~
 _ZN5vmime7utility3refINS0_17fileSystemFactoryEED2Ev@Base 0.9.1-3~
 _ZN5vmime7utility3refINS0_19childProcessFactoryEED0Ev@Base 0.9.1-3~
 _ZN5vmime7utility3refINS0_19childProcessFactoryEED1Ev@Base 0.9.1-3~
 _ZN5vmime7utility3refINS0_19childProcessFactoryEED2Ev@Base 0.9.1-3~
 _ZN5vmime7utility3refINS0_25inputStreamPointerAdapterEED0Ev@Base 0.9.1-3~
 _ZN5vmime7utility3refINS0_25inputStreamPointerAdapterEED1Ev@Base 0.9.1-3~
 _ZN5vmime7utility3refINS0_25inputStreamPointerAdapterEED2Ev@Base 0.9.1-3~
 _ZN5vmime7utility3refINS0_4fileEED0Ev@Base 0.9.1-3~
 _ZN5vmime7utility3refINS0_4fileEED1Ev@Base 0.9.1-3~
 _ZN5vmime7utility3refINS0_4fileEED2Ev@Base 0.9.1-3~
 _ZN5vmime7utility3refINS0_7encoder10b64EncoderEED0Ev@Base 0.9.1-3~
 _ZN5vmime7utility3refINS0_7encoder10b64EncoderEED1Ev@Base 0.9.1-3~
 _ZN5vmime7utility3refINS0_7encoder10b64EncoderEED2Ev@Base 0.9.1-3~
 _ZN5vmime7utility3refINS0_7encoder13binaryEncoderEED0Ev@Base 0.9.1-3~
 _ZN5vmime7utility3refINS0_7encoder13binaryEncoderEED1Ev@Base 0.9.1-3~
 _ZN5vmime7utility3refINS0_7encoder13binaryEncoderEED2Ev@Base 0.9.1-3~
 _ZN5vmime7utility3refINS0_7encoder14encoderFactory17registeredEncoderEED0Ev@Base 0.9.1-3~
 _ZN5vmime7utility3refINS0_7encoder14encoderFactory17registeredEncoderEED1Ev@Base 0.9.1-3~
 _ZN5vmime7utility3refINS0_7encoder14encoderFactory17registeredEncoderEED2Ev@Base 0.9.1-3~
 _ZN5vmime7utility3refINS0_7encoder14encoderFactory21registeredEncoderImplINS2_10b64EncoderEEEED0Ev@Base 0.9.1-3~
 _ZN5vmime7utility3refINS0_7encoder14encoderFactory21registeredEncoderImplINS2_10b64EncoderEEEED1Ev@Base 0.9.1-3~
 _ZN5vmime7utility3refINS0_7encoder14encoderFactory21registeredEncoderImplINS2_10b64EncoderEEEED2Ev@Base 0.9.1-3~
 _ZN5vmime7utility3refINS0_7encoder14encoderFactory21registeredEncoderImplINS2_13binaryEncoderEEEED0Ev@Base 0.9.1-3~
 _ZN5vmime7utility3refINS0_7encoder14encoderFactory21registeredEncoderImplINS2_13binaryEncoderEEEED1Ev@Base 0.9.1-3~
 _ZN5vmime7utility3refINS0_7encoder14encoderFactory21registeredEncoderImplINS2_13binaryEncoderEEEED2Ev@Base 0.9.1-3~
 _ZN5vmime7utility3refINS0_7encoder14encoderFactory21registeredEncoderImplINS2_15eightBitEncoderEEEED0Ev@Base 0.9.1-3~
 _ZN5vmime7utility3refINS0_7encoder14encoderFactory21registeredEncoderImplINS2_15eightBitEncoderEEEED1Ev@Base 0.9.1-3~
 _ZN5vmime7utility3refINS0_7encoder14encoderFactory21registeredEncoderImplINS2_15eightBitEncoderEEEED2Ev@Base 0.9.1-3~
 _ZN5vmime7utility3refINS0_7encoder14encoderFactory21registeredEncoderImplINS2_15sevenBitEncoderEEEED0Ev@Base 0.9.1-3~
 _ZN5vmime7utility3refINS0_7encoder14encoderFactory21registeredEncoderImplINS2_15sevenBitEncoderEEEED1Ev@Base 0.9.1-3~
 _ZN5vmime7utility3refINS0_7encoder14encoderFactory21registeredEncoderImplINS2_15sevenBitEncoderEEEED2Ev@Base 0.9.1-3~
 _ZN5vmime7utility3refINS0_7encoder14encoderFactory21registeredEncoderImplINS2_9qpEncoderEEEED0Ev@Base 0.9.1-3~
 _ZN5vmime7utility3refINS0_7encoder14encoderFactory21registeredEncoderImplINS2_9qpEncoderEEEED1Ev@Base 0.9.1-3~
 _ZN5vmime7utility3refINS0_7encoder14encoderFactory21registeredEncoderImplINS2_9qpEncoderEEEED2Ev@Base 0.9.1-3~
 _ZN5vmime7utility3refINS0_7encoder14encoderFactory21registeredEncoderImplINS2_9uuEncoderEEEED0Ev@Base 0.9.1-3~
 _ZN5vmime7utility3refINS0_7encoder14encoderFactory21registeredEncoderImplINS2_9uuEncoderEEEED1Ev@Base 0.9.1-3~
 _ZN5vmime7utility3refINS0_7encoder14encoderFactory21registeredEncoderImplINS2_9uuEncoderEEEED2Ev@Base 0.9.1-3~
 _ZN5vmime7utility3refINS0_7encoder15eightBitEncoderEED0Ev@Base 0.9.1-3~
 _ZN5vmime7utility3refINS0_7encoder15eightBitEncoderEED1Ev@Base 0.9.1-3~
 _ZN5vmime7utility3refINS0_7encoder15eightBitEncoderEED2Ev@Base 0.9.1-3~
 _ZN5vmime7utility3refINS0_7encoder15sevenBitEncoderEED0Ev@Base 0.9.1-3~
 _ZN5vmime7utility3refINS0_7encoder15sevenBitEncoderEED1Ev@Base 0.9.1-3~
 _ZN5vmime7utility3refINS0_7encoder15sevenBitEncoderEED2Ev@Base 0.9.1-3~
 _ZN5vmime7utility3refINS0_7encoder7encoderEED0Ev@Base 0.9.1-3~
 _ZN5vmime7utility3refINS0_7encoder7encoderEED1Ev@Base 0.9.1-3~
 _ZN5vmime7utility3refINS0_7encoder7encoderEED2Ev@Base 0.9.1-3~
 _ZN5vmime7utility3refINS0_7encoder9qpEncoderEED0Ev@Base 0.9.1-3~
 _ZN5vmime7utility3refINS0_7encoder9qpEncoderEED1Ev@Base 0.9.1-3~
 _ZN5vmime7utility3refINS0_7encoder9qpEncoderEED2Ev@Base 0.9.1-3~
 _ZN5vmime7utility3refINS0_7encoder9uuEncoderEED0Ev@Base 0.9.1-3~
 _ZN5vmime7utility3refINS0_7encoder9uuEncoderEED1Ev@Base 0.9.1-3~
 _ZN5vmime7utility3refINS0_7encoder9uuEncoderEED2Ev@Base 0.9.1-3~
 _ZN5vmime7utility3refINS_10attachmentEED0Ev@Base 0.9.1-3~
 _ZN5vmime7utility3refINS_10attachmentEED1Ev@Base 0.9.1-3~
 _ZN5vmime7utility3refINS_10attachmentEED2Ev@Base 0.9.1-3~
 _ZN5vmime7utility3refINS_11addressListEED0Ev@Base 0.9.1-3~
 _ZN5vmime7utility3refINS_11addressListEED1Ev@Base 0.9.1-3~
 _ZN5vmime7utility3refINS_11addressListEED2Ev@Base 0.9.1-3~
 _ZN5vmime7utility3refINS_11dispositionEED0Ev@Base 0.9.1-3~
 _ZN5vmime7utility3refINS_11dispositionEED1Ev@Base 0.9.1-3~
 _ZN5vmime7utility3refINS_11dispositionEED2Ev@Base 0.9.1-3~
 _ZN5vmime7utility3refINS_11headerFieldEED0Ev@Base 0.9.1-3~
 _ZN5vmime7utility3refINS_11headerFieldEED1Ev@Base 0.9.1-3~
 _ZN5vmime7utility3refINS_11headerFieldEED2Ev@Base 0.9.1-3~
 _ZN5vmime7utility3refINS_11mailboxListEED0Ev@Base 0.9.1-3~
 _ZN5vmime7utility3refINS_11mailboxListEED1Ev@Base 0.9.1-3~
 _ZN5vmime7utility3refINS_11mailboxListEED2Ev@Base 0.9.1-3~
 _ZN5vmime7utility3refINS_11propertySet8propertyEED0Ev@Base 0.9.1-3~
 _ZN5vmime7utility3refINS_11propertySet8propertyEED1Ev@Base 0.9.1-3~
 _ZN5vmime7utility3refINS_11propertySet8propertyEED2Ev@Base 0.9.1-3~
 _ZN5vmime7utility3refINS_12htmlTextPart14embeddedObjectEED0Ev@Base 0.9.1-3~
 _ZN5vmime7utility3refINS_12htmlTextPart14embeddedObjectEED1Ev@Base 0.9.1-3~
 _ZN5vmime7utility3refINS_12htmlTextPart14embeddedObjectEED2Ev@Base 0.9.1-3~
 _ZN5vmime7utility3refINS_12htmlTextPartEED0Ev@Base 0.9.1-3~
 _ZN5vmime7utility3refINS_12htmlTextPartEED1Ev@Base 0.9.1-3~
 _ZN5vmime7utility3refINS_12htmlTextPartEED2Ev@Base 0.9.1-3~
 _ZN5vmime7utility3refINS_12mailboxFieldEED0Ev@Base 0.9.1-3~
 _ZN5vmime7utility3refINS_12mailboxFieldEED1Ev@Base 0.9.1-3~
 _ZN5vmime7utility3refINS_12mailboxFieldEED2Ev@Base 0.9.1-3~
 _ZN5vmime7utility3refINS_12mailboxGroupEED0Ev@Base 0.9.1-3~
 _ZN5vmime7utility3refINS_12mailboxGroupEED1Ev@Base 0.9.1-3~
 _ZN5vmime7utility3refINS_12mailboxGroupEED2Ev@Base 0.9.1-3~
 _ZN5vmime7utility3refINS_13plainTextPartEED0Ev@Base 0.9.1-3~
 _ZN5vmime7utility3refINS_13plainTextPartEED1Ev@Base 0.9.1-3~
 _ZN5vmime7utility3refINS_13plainTextPartEED2Ev@Base 0.9.1-3~
 _ZN5vmime7utility3refINS_14contentHandlerEED0Ev@Base 0.9.1-3~
 _ZN5vmime7utility3refINS_14contentHandlerEED1Ev@Base 0.9.1-3~
 _ZN5vmime7utility3refINS_14contentHandlerEED2Ev@Base 0.9.1-3~
 _ZN5vmime7utility3refINS_16contentTypeFieldEED0Ev@Base 0.9.1-3~
 _ZN5vmime7utility3refINS_16contentTypeFieldEED1Ev@Base 0.9.1-3~
 _ZN5vmime7utility3refINS_16contentTypeFieldEED2Ev@Base 0.9.1-3~
 _ZN5vmime7utility3refINS_16headerFieldValueEED0Ev@Base 0.9.1-3~
 _ZN5vmime7utility3refINS_16headerFieldValueEED1Ev@Base 0.9.1-3~
 _ZN5vmime7utility3refINS_16headerFieldValueEED2Ev@Base 0.9.1-3~
 _ZN5vmime7utility3refINS_17messageIdSequenceEED0Ev@Base 0.9.1-3~
 _ZN5vmime7utility3refINS_17messageIdSequenceEED1Ev@Base 0.9.1-3~
 _ZN5vmime7utility3refINS_17messageIdSequenceEED2Ev@Base 0.9.1-3~
 _ZN5vmime7utility3refINS_18bodyPartAttachmentEED0Ev@Base 0.9.1-3~
 _ZN5vmime7utility3refINS_18bodyPartAttachmentEED1Ev@Base 0.9.1-3~
 _ZN5vmime7utility3refINS_18bodyPartAttachmentEED2Ev@Base 0.9.1-3~
 _ZN5vmime7utility3refINS_18contentDispositionEED0Ev@Base 0.9.1-3~
 _ZN5vmime7utility3refINS_18contentDispositionEED1Ev@Base 0.9.1-3~
 _ZN5vmime7utility3refINS_18contentDispositionEED2Ev@Base 0.9.1-3~
 _ZN5vmime7utility3refINS_19emptyContentHandlerEED0Ev@Base 0.9.1-3~
 _ZN5vmime7utility3refINS_19emptyContentHandlerEED1Ev@Base 0.9.1-3~
 _ZN5vmime7utility3refINS_19emptyContentHandlerEED2Ev@Base 0.9.1-3~
 _ZN5vmime7utility3refINS_20streamContentHandlerEED0Ev@Base 0.9.1-3~
 _ZN5vmime7utility3refINS_20streamContentHandlerEED1Ev@Base 0.9.1-3~
 _ZN5vmime7utility3refINS_20streamContentHandlerEED2Ev@Base 0.9.1-3~
 _ZN5vmime7utility3refINS_20stringContentHandlerEED0Ev@Base 0.9.1-3~
 _ZN5vmime7utility3refINS_20stringContentHandlerEED1Ev@Base 0.9.1-3~
 _ZN5vmime7utility3refINS_20stringContentHandlerEED2Ev@Base 0.9.1-3~
 _ZN5vmime7utility3refINS_23contentDispositionFieldEED0Ev@Base 0.9.1-3~
 _ZN5vmime7utility3refINS_23contentDispositionFieldEED1Ev@Base 0.9.1-3~
 _ZN5vmime7utility3refINS_23contentDispositionFieldEED2Ev@Base 0.9.1-3~
 _ZN5vmime7utility3refINS_23parsedMessageAttachmentEED0Ev@Base 0.9.1-3~
 _ZN5vmime7utility3refINS_23parsedMessageAttachmentEED1Ev@Base 0.9.1-3~
 _ZN5vmime7utility3refINS_23parsedMessageAttachmentEED2Ev@Base 0.9.1-3~
 _ZN5vmime7utility3refINS_24parameterizedHeaderFieldEED0Ev@Base 0.9.1-3~
 _ZN5vmime7utility3refINS_24parameterizedHeaderFieldEED1Ev@Base 0.9.1-3~
 _ZN5vmime7utility3refINS_24parameterizedHeaderFieldEED2Ev@Base 0.9.1-3~
 _ZN5vmime7utility3refINS_26generatedMessageAttachmentEED0Ev@Base 0.9.1-3~
 _ZN5vmime7utility3refINS_26generatedMessageAttachmentEED1Ev@Base 0.9.1-3~
 _ZN5vmime7utility3refINS_26generatedMessageAttachmentEED2Ev@Base 0.9.1-3~
 _ZN5vmime7utility3refINS_3net13socketFactoryEED0Ev@Base 0.9.1-3~
 _ZN5vmime7utility3refINS_3net13socketFactoryEED1Ev@Base 0.9.1-3~
 _ZN5vmime7utility3refINS_3net13socketFactoryEED2Ev@Base 0.9.1-3~
 _ZN5vmime7utility3refINS_3net14serviceFactory17registeredServiceEED0Ev@Base 0.9.1-3~
 _ZN5vmime7utility3refINS_3net14serviceFactory17registeredServiceEED1Ev@Base 0.9.1-3~
 _ZN5vmime7utility3refINS_3net14serviceFactory17registeredServiceEED2Ev@Base 0.9.1-3~
 _ZN5vmime7utility3refINS_3net14timeoutHandlerEED0Ev@Base 0.9.1-3~
 _ZN5vmime7utility3refINS_3net14timeoutHandlerEED1Ev@Base 0.9.1-3~
 _ZN5vmime7utility3refINS_3net14timeoutHandlerEED2Ev@Base 0.9.1-3~
 _ZN5vmime7utility3refINS_3net15connectionInfosEED0Ev@Base 0.9.1-3~
 _ZN5vmime7utility3refINS_3net15connectionInfosEED1Ev@Base 0.9.1-3~
 _ZN5vmime7utility3refINS_3net15connectionInfosEED2Ev@Base 0.9.1-3~
 _ZN5vmime7utility3refINS_3net21registeredServiceImplINS2_4imap10IMAPSStoreEEEED0Ev@Base 0.9.1-3~
 _ZN5vmime7utility3refINS_3net21registeredServiceImplINS2_4imap10IMAPSStoreEEEED1Ev@Base 0.9.1-3~
 _ZN5vmime7utility3refINS_3net21registeredServiceImplINS2_4imap10IMAPSStoreEEEED2Ev@Base 0.9.1-3~
 _ZN5vmime7utility3refINS_3net21registeredServiceImplINS2_4imap9IMAPStoreEEEED0Ev@Base 0.9.1-3~
 _ZN5vmime7utility3refINS_3net21registeredServiceImplINS2_4imap9IMAPStoreEEEED1Ev@Base 0.9.1-3~
 _ZN5vmime7utility3refINS_3net21registeredServiceImplINS2_4imap9IMAPStoreEEEED2Ev@Base 0.9.1-3~
 _ZN5vmime7utility3refINS_3net21registeredServiceImplINS2_4pop310POP3SStoreEEEED0Ev@Base 0.9.1-3~
 _ZN5vmime7utility3refINS_3net21registeredServiceImplINS2_4pop310POP3SStoreEEEED1Ev@Base 0.9.1-3~
 _ZN5vmime7utility3refINS_3net21registeredServiceImplINS2_4pop310POP3SStoreEEEED2Ev@Base 0.9.1-3~
 _ZN5vmime7utility3refINS_3net21registeredServiceImplINS2_4pop39POP3StoreEEEED0Ev@Base 0.9.1-3~
 _ZN5vmime7utility3refINS_3net21registeredServiceImplINS2_4pop39POP3StoreEEEED1Ev@Base 0.9.1-3~
 _ZN5vmime7utility3refINS_3net21registeredServiceImplINS2_4pop39POP3StoreEEEED2Ev@Base 0.9.1-3~
 _ZN5vmime7utility3refINS_3net21registeredServiceImplINS2_4smtp13SMTPTransportEEEED0Ev@Base 0.9.1-3~
 _ZN5vmime7utility3refINS_3net21registeredServiceImplINS2_4smtp13SMTPTransportEEEED1Ev@Base 0.9.1-3~
 _ZN5vmime7utility3refINS_3net21registeredServiceImplINS2_4smtp13SMTPTransportEEEED2Ev@Base 0.9.1-3~
 _ZN5vmime7utility3refINS_3net21registeredServiceImplINS2_4smtp14SMTPSTransportEEEED0Ev@Base 0.9.1-3~
 _ZN5vmime7utility3refINS_3net21registeredServiceImplINS2_4smtp14SMTPSTransportEEEED1Ev@Base 0.9.1-3~
 _ZN5vmime7utility3refINS_3net21registeredServiceImplINS2_4smtp14SMTPSTransportEEEED2Ev@Base 0.9.1-3~
 _ZN5vmime7utility3refINS_3net21registeredServiceImplINS2_7maildir12maildirStoreEEEED0Ev@Base 0.9.1-3~
 _ZN5vmime7utility3refINS_3net21registeredServiceImplINS2_7maildir12maildirStoreEEEED1Ev@Base 0.9.1-3~
 _ZN5vmime7utility3refINS_3net21registeredServiceImplINS2_7maildir12maildirStoreEEEED2Ev@Base 0.9.1-3~
 _ZN5vmime7utility3refINS_3net21registeredServiceImplINS2_8sendmail17sendmailTransportEEEED0Ev@Base 0.9.1-3~
 _ZN5vmime7utility3refINS_3net21registeredServiceImplINS2_8sendmail17sendmailTransportEEEED1Ev@Base 0.9.1-3~
 _ZN5vmime7utility3refINS_3net21registeredServiceImplINS2_8sendmail17sendmailTransportEEEED2Ev@Base 0.9.1-3~
 _ZN5vmime7utility3refINS_3net21timeoutHandlerFactoryEED0Ev@Base 0.9.1-3~
 _ZN5vmime7utility3refINS_3net21timeoutHandlerFactoryEED1Ev@Base 0.9.1-3~
 _ZN5vmime7utility3refINS_3net21timeoutHandlerFactoryEED2Ev@Base 0.9.1-3~
 _ZN5vmime7utility3refINS_3net22defaultConnectionInfosEED0Ev@Base 0.9.1-3~
 _ZN5vmime7utility3refINS_3net22defaultConnectionInfosEED1Ev@Base 0.9.1-3~
 _ZN5vmime7utility3refINS_3net22defaultConnectionInfosEED2Ev@Base 0.9.1-3~
 _ZN5vmime7utility3refINS_3net3tls10TLSSessionEED0Ev@Base 0.9.1-3~
 _ZN5vmime7utility3refINS_3net3tls10TLSSessionEED1Ev@Base 0.9.1-3~
 _ZN5vmime7utility3refINS_3net3tls10TLSSessionEED2Ev@Base 0.9.1-3~
 _ZN5vmime7utility3refINS_3net3tls25TLSSecuredConnectionInfosEED0Ev@Base 0.9.1-3~
 _ZN5vmime7utility3refINS_3net3tls25TLSSecuredConnectionInfosEED1Ev@Base 0.9.1-3~
 _ZN5vmime7utility3refINS_3net3tls25TLSSecuredConnectionInfosEED2Ev@Base 0.9.1-3~
 _ZN5vmime7utility3refINS_3net3tls25TLSSocket_DeleteExWrapperEED0Ev@Base 0.9.1-3~
 _ZN5vmime7utility3refINS_3net3tls25TLSSocket_DeleteExWrapperEED1Ev@Base 0.9.1-3~
 _ZN5vmime7utility3refINS_3net3tls25TLSSocket_DeleteExWrapperEED2Ev@Base 0.9.1-3~
 _ZN5vmime7utility3refINS_3net3tls9TLSSocketEED0Ev@Base 0.9.1-3~
 _ZN5vmime7utility3refINS_3net3tls9TLSSocketEED1Ev@Base 0.9.1-3~
 _ZN5vmime7utility3refINS_3net3tls9TLSSocketEED2Ev@Base 0.9.1-3~
 _ZN5vmime7utility3refINS_3net4imap10IMAPFolderEED0Ev@Base 0.9.1-3~
 _ZN5vmime7utility3refINS_3net4imap10IMAPFolderEED1Ev@Base 0.9.1-3~
 _ZN5vmime7utility3refINS_3net4imap10IMAPFolderEED2Ev@Base 0.9.1-3~
 _ZN5vmime7utility3refINS_3net4imap10IMAPParserEED0Ev@Base 0.9.1-3~
 _ZN5vmime7utility3refINS_3net4imap10IMAPParserEED1Ev@Base 0.9.1-3~
 _ZN5vmime7utility3refINS_3net4imap10IMAPParserEED2Ev@Base 0.9.1-3~
 _ZN5vmime7utility3refINS_3net4imap10IMAPSStoreEED0Ev@Base 0.9.1-3~
 _ZN5vmime7utility3refINS_3net4imap10IMAPSStoreEED1Ev@Base 0.9.1-3~
 _ZN5vmime7utility3refINS_3net4imap10IMAPSStoreEED2Ev@Base 0.9.1-3~
 _ZN5vmime7utility3refINS_3net4imap11IMAPMessageEED0Ev@Base 0.9.1-3~
 _ZN5vmime7utility3refINS_3net4imap11IMAPMessageEED1Ev@Base 0.9.1-3~
 _ZN5vmime7utility3refINS_3net4imap11IMAPMessageEED2Ev@Base 0.9.1-3~
 _ZN5vmime7utility3refINS_3net4imap13IMAPStructureEED0Ev@Base 0.9.1-3~
 _ZN5vmime7utility3refINS_3net4imap13IMAPStructureEED1Ev@Base 0.9.1-3~
 _ZN5vmime7utility3refINS_3net4imap13IMAPStructureEED2Ev@Base 0.9.1-3~
 _ZN5vmime7utility3refINS_3net4imap14IMAPConnectionEED0Ev@Base 0.9.1-3~
 _ZN5vmime7utility3refINS_3net4imap14IMAPConnectionEED1Ev@Base 0.9.1-3~
 _ZN5vmime7utility3refINS_3net4imap14IMAPConnectionEED2Ev@Base 0.9.1-3~
 _ZN5vmime7utility3refINS_3net4imap29IMAPMessagePartContentHandlerEED0Ev@Base 0.9.1-3~
 _ZN5vmime7utility3refINS_3net4imap29IMAPMessagePartContentHandlerEED1Ev@Base 0.9.1-3~
 _ZN5vmime7utility3refINS_3net4imap29IMAPMessagePartContentHandlerEED2Ev@Base 0.9.1-3~
 _ZN5vmime7utility3refINS_3net4imap7IMAPTagEED0Ev@Base 0.9.1-3~
 _ZN5vmime7utility3refINS_3net4imap7IMAPTagEED1Ev@Base 0.9.1-3~
 _ZN5vmime7utility3refINS_3net4imap7IMAPTagEED2Ev@Base 0.9.1-3~
 _ZN5vmime7utility3refINS_3net4imap8IMAPPartEED0Ev@Base 0.9.1-3~
 _ZN5vmime7utility3refINS_3net4imap8IMAPPartEED1Ev@Base 0.9.1-3~
 _ZN5vmime7utility3refINS_3net4imap8IMAPPartEED2Ev@Base 0.9.1-3~
 _ZN5vmime7utility3refINS_3net4imap9IMAPStoreEED0Ev@Base 0.9.1-3~
 _ZN5vmime7utility3refINS_3net4imap9IMAPStoreEED1Ev@Base 0.9.1-3~
 _ZN5vmime7utility3refINS_3net4imap9IMAPStoreEED2Ev@Base 0.9.1-3~
 _ZN5vmime7utility3refINS_3net4partEED0Ev@Base 0.9.1-3~
 _ZN5vmime7utility3refINS_3net4partEED1Ev@Base 0.9.1-3~
 _ZN5vmime7utility3refINS_3net4partEED2Ev@Base 0.9.1-3~
 _ZN5vmime7utility3refINS_3net4pop310POP3FolderEED0Ev@Base 0.9.1-3~
 _ZN5vmime7utility3refINS_3net4pop310POP3FolderEED1Ev@Base 0.9.1-3~
 _ZN5vmime7utility3refINS_3net4pop310POP3FolderEED2Ev@Base 0.9.1-3~
 _ZN5vmime7utility3refINS_3net4pop310POP3SStoreEED0Ev@Base 0.9.1-3~
 _ZN5vmime7utility3refINS_3net4pop310POP3SStoreEED1Ev@Base 0.9.1-3~
 _ZN5vmime7utility3refINS_3net4pop310POP3SStoreEED2Ev@Base 0.9.1-3~
 _ZN5vmime7utility3refINS_3net4pop311POP3MessageEED0Ev@Base 0.9.1-3~
 _ZN5vmime7utility3refINS_3net4pop311POP3MessageEED1Ev@Base 0.9.1-3~
 _ZN5vmime7utility3refINS_3net4pop311POP3MessageEED2Ev@Base 0.9.1-3~
 _ZN5vmime7utility3refINS_3net4pop39POP3StoreEED0Ev@Base 0.9.1-3~
 _ZN5vmime7utility3refINS_3net4pop39POP3StoreEED1Ev@Base 0.9.1-3~
 _ZN5vmime7utility3refINS_3net4pop39POP3StoreEED2Ev@Base 0.9.1-3~
 _ZN5vmime7utility3refINS_3net4smtp12SMTPResponseEED0Ev@Base 0.9.1-3~
 _ZN5vmime7utility3refINS_3net4smtp12SMTPResponseEED1Ev@Base 0.9.1-3~
 _ZN5vmime7utility3refINS_3net4smtp12SMTPResponseEED2Ev@Base 0.9.1-3~
 _ZN5vmime7utility3refINS_3net4smtp13SMTPTransportEED0Ev@Base 0.9.1-3~
 _ZN5vmime7utility3refINS_3net4smtp13SMTPTransportEED1Ev@Base 0.9.1-3~
 _ZN5vmime7utility3refINS_3net4smtp13SMTPTransportEED2Ev@Base 0.9.1-3~
 _ZN5vmime7utility3refINS_3net4smtp14SMTPSTransportEED0Ev@Base 0.9.1-3~
 _ZN5vmime7utility3refINS_3net4smtp14SMTPSTransportEED1Ev@Base 0.9.1-3~
 _ZN5vmime7utility3refINS_3net4smtp14SMTPSTransportEED2Ev@Base 0.9.1-3~
 _ZN5vmime7utility3refINS_3net5storeEED0Ev@Base 0.9.1-3~
 _ZN5vmime7utility3refINS_3net5storeEED1Ev@Base 0.9.1-3~
 _ZN5vmime7utility3refINS_3net5storeEED2Ev@Base 0.9.1-3~
 _ZN5vmime7utility3refINS_3net6folderEED0Ev@Base 0.9.1-3~
 _ZN5vmime7utility3refINS_3net6folderEED1Ev@Base 0.9.1-3~
 _ZN5vmime7utility3refINS_3net6folderEED2Ev@Base 0.9.1-3~
 _ZN5vmime7utility3refINS_3net6socketEED0Ev@Base 0.9.1-3~
 _ZN5vmime7utility3refINS_3net6socketEED1Ev@Base 0.9.1-3~
 _ZN5vmime7utility3refINS_3net6socketEED2Ev@Base 0.9.1-3~
 _ZN5vmime7utility3refINS_3net7maildir11maildirPartEED0Ev@Base 0.9.1-3~
 _ZN5vmime7utility3refINS_3net7maildir11maildirPartEED1Ev@Base 0.9.1-3~
 _ZN5vmime7utility3refINS_3net7maildir11maildirPartEED2Ev@Base 0.9.1-3~
 _ZN5vmime7utility3refINS_3net7maildir12maildirStoreEED0Ev@Base 0.9.1-3~
 _ZN5vmime7utility3refINS_3net7maildir12maildirStoreEED1Ev@Base 0.9.1-3~
 _ZN5vmime7utility3refINS_3net7maildir12maildirStoreEED2Ev@Base 0.9.1-3~
 _ZN5vmime7utility3refINS_3net7maildir13maildirFolderEED0Ev@Base 0.9.1-3~
 _ZN5vmime7utility3refINS_3net7maildir13maildirFolderEED1Ev@Base 0.9.1-3~
 _ZN5vmime7utility3refINS_3net7maildir13maildirFolderEED2Ev@Base 0.9.1-3~
 _ZN5vmime7utility3refINS_3net7maildir13maildirFormat7contextEED0Ev@Base 0.9.1-3~
 _ZN5vmime7utility3refINS_3net7maildir13maildirFormat7contextEED1Ev@Base 0.9.1-3~
 _ZN5vmime7utility3refINS_3net7maildir13maildirFormat7contextEED2Ev@Base 0.9.1-3~
 _ZN5vmime7utility3refINS_3net7maildir13maildirFormatEED0Ev@Base 0.9.1-3~
 _ZN5vmime7utility3refINS_3net7maildir13maildirFormatEED1Ev@Base 0.9.1-3~
 _ZN5vmime7utility3refINS_3net7maildir13maildirFormatEED2Ev@Base 0.9.1-3~
 _ZN5vmime7utility3refINS_3net7maildir14maildirMessageEED0Ev@Base 0.9.1-3~
 _ZN5vmime7utility3refINS_3net7maildir14maildirMessageEED1Ev@Base 0.9.1-3~
 _ZN5vmime7utility3refINS_3net7maildir14maildirMessageEED2Ev@Base 0.9.1-3~
 _ZN5vmime7utility3refINS_3net7maildir16maildirStructureEED0Ev@Base 0.9.1-3~
 _ZN5vmime7utility3refINS_3net7maildir16maildirStructureEED1Ev@Base 0.9.1-3~
 _ZN5vmime7utility3refINS_3net7maildir16maildirStructureEED2Ev@Base 0.9.1-3~
 _ZN5vmime7utility3refINS_3net7maildir6format18kmailMaildirFormatEED0Ev@Base 0.9.1-3~
 _ZN5vmime7utility3refINS_3net7maildir6format18kmailMaildirFormatEED1Ev@Base 0.9.1-3~
 _ZN5vmime7utility3refINS_3net7maildir6format18kmailMaildirFormatEED2Ev@Base 0.9.1-3~
 _ZN5vmime7utility3refINS_3net7maildir6format20courierMaildirFormatEED0Ev@Base 0.9.1-3~
 _ZN5vmime7utility3refINS_3net7maildir6format20courierMaildirFormatEED1Ev@Base 0.9.1-3~
 _ZN5vmime7utility3refINS_3net7maildir6format20courierMaildirFormatEED2Ev@Base 0.9.1-3~
 _ZN5vmime7utility3refINS_3net7messageEED0Ev@Base 0.9.1-3~
 _ZN5vmime7utility3refINS_3net7messageEED1Ev@Base 0.9.1-3~
 _ZN5vmime7utility3refINS_3net7messageEED2Ev@Base 0.9.1-3~
 _ZN5vmime7utility3refINS_3net7serviceEED0Ev@Base 0.9.1-3~
 _ZN5vmime7utility3refINS_3net7serviceEED1Ev@Base 0.9.1-3~
 _ZN5vmime7utility3refINS_3net7serviceEED2Ev@Base 0.9.1-3~
 _ZN5vmime7utility3refINS_3net7sessionEED0Ev@Base 0.9.1-3~
 _ZN5vmime7utility3refINS_3net7sessionEED1Ev@Base 0.9.1-3~
 _ZN5vmime7utility3refINS_3net7sessionEED2Ev@Base 0.9.1-3~
 _ZN5vmime7utility3refINS_3net8sendmail17sendmailTransportEED0Ev@Base 0.9.1-3~
 _ZN5vmime7utility3refINS_3net8sendmail17sendmailTransportEED1Ev@Base 0.9.1-3~
 _ZN5vmime7utility3refINS_3net8sendmail17sendmailTransportEED2Ev@Base 0.9.1-3~
 _ZN5vmime7utility3refINS_3net9structureEED0Ev@Base 0.9.1-3~
 _ZN5vmime7utility3refINS_3net9structureEED1Ev@Base 0.9.1-3~
 _ZN5vmime7utility3refINS_3net9structureEED2Ev@Base 0.9.1-3~
 _ZN5vmime7utility3refINS_3net9transportEED0Ev@Base 0.9.1-3~
 _ZN5vmime7utility3refINS_3net9transportEED1Ev@Base 0.9.1-3~
 _ZN5vmime7utility3refINS_3net9transportEED2Ev@Base 0.9.1-3~
 _ZN5vmime7utility3refINS_4bodyEED0Ev@Base 0.9.1-3~
 _ZN5vmime7utility3refINS_4bodyEED1Ev@Base 0.9.1-3~
 _ZN5vmime7utility3refINS_4bodyEED2Ev@Base 0.9.1-3~
 _ZN5vmime7utility3refINS_4pathEED0Ev@Base 0.9.1-3~
 _ZN5vmime7utility3refINS_4pathEED1Ev@Base 0.9.1-3~
 _ZN5vmime7utility3refINS_4pathEED2Ev@Base 0.9.1-3~
 _ZN5vmime7utility3refINS_4textEED0Ev@Base 0.9.1-3~
 _ZN5vmime7utility3refINS_4textEED1Ev@Base 0.9.1-3~
 _ZN5vmime7utility3refINS_4textEED2Ev@Base 0.9.1-3~
 _ZN5vmime7utility3refINS_4wordEED0Ev@Base 0.9.1-3~
 _ZN5vmime7utility3refINS_4wordEED1Ev@Base 0.9.1-3~
 _ZN5vmime7utility3refINS_4wordEED2Ev@Base 0.9.1-3~
 _ZN5vmime7utility3refINS_5relayEED0Ev@Base 0.9.1-3~
 _ZN5vmime7utility3refINS_5relayEED1Ev@Base 0.9.1-3~
 _ZN5vmime7utility3refINS_5relayEED2Ev@Base 0.9.1-3~
 _ZN5vmime7utility3refINS_6headerEED0Ev@Base 0.9.1-3~
 _ZN5vmime7utility3refINS_6headerEED1Ev@Base 0.9.1-3~
 _ZN5vmime7utility3refINS_6headerEED2Ev@Base 0.9.1-3~
 _ZN5vmime7utility3refINS_6objectEED0Ev@Base 0.9.1-3~
 _ZN5vmime7utility3refINS_6objectEED1Ev@Base 0.9.1-3~
 _ZN5vmime7utility3refINS_6objectEED2Ev@Base 0.9.1-3~
 _ZN5vmime7utility3refINS_7addressEED0Ev@Base 0.9.1-3~
 _ZN5vmime7utility3refINS_7addressEED1Ev@Base 0.9.1-3~
 _ZN5vmime7utility3refINS_7addressEED2Ev@Base 0.9.1-3~
 _ZN5vmime7utility3refINS_7charsetEED0Ev@Base 0.9.1-3~
 _ZN5vmime7utility3refINS_7charsetEED1Ev@Base 0.9.1-3~
 _ZN5vmime7utility3refINS_7charsetEED2Ev@Base 0.9.1-3~
 _ZN5vmime7utility3refINS_7mailboxEED0Ev@Base 0.9.1-3~
 _ZN5vmime7utility3refINS_7mailboxEED1Ev@Base 0.9.1-3~
 _ZN5vmime7utility3refINS_7mailboxEED2Ev@Base 0.9.1-3~
 _ZN5vmime7utility3refINS_7messageEED0Ev@Base 0.9.1-3~
 _ZN5vmime7utility3refINS_7messageEED1Ev@Base 0.9.1-3~
 _ZN5vmime7utility3refINS_7messageEED2Ev@Base 0.9.1-3~
 _ZN5vmime7utility3refINS_8bodyPartEED0Ev@Base 0.9.1-3~
 _ZN5vmime7utility3refINS_8bodyPartEED1Ev@Base 0.9.1-3~
 _ZN5vmime7utility3refINS_8bodyPartEED2Ev@Base 0.9.1-3~
 _ZN5vmime7utility3refINS_8datetimeEED0Ev@Base 0.9.1-3~
 _ZN5vmime7utility3refINS_8datetimeEED1Ev@Base 0.9.1-3~
 _ZN5vmime7utility3refINS_8datetimeEED2Ev@Base 0.9.1-3~
 _ZN5vmime7utility3refINS_8encodingEED0Ev@Base 0.9.1-3~
 _ZN5vmime7utility3refINS_8encodingEED1Ev@Base 0.9.1-3~
 _ZN5vmime7utility3refINS_8encodingEED2Ev@Base 0.9.1-3~
 _ZN5vmime7utility3refINS_8platform7handlerEED0Ev@Base 0.9.1-3~
 _ZN5vmime7utility3refINS_8platform7handlerEED1Ev@Base 0.9.1-3~
 _ZN5vmime7utility3refINS_8platform7handlerEED2Ev@Base 0.9.1-3~
 _ZN5vmime7utility3refINS_8security13authenticatorEED0Ev@Base 0.9.1-3~
 _ZN5vmime7utility3refINS_8security13authenticatorEED1Ev@Base 0.9.1-3~
 _ZN5vmime7utility3refINS_8security13authenticatorEED2Ev@Base 0.9.1-3~
 _ZN5vmime7utility3refINS_8security4cert11certificateEED0Ev@Base 0.9.1-3~
 _ZN5vmime7utility3refINS_8security4cert11certificateEED1Ev@Base 0.9.1-3~
 _ZN5vmime7utility3refINS_8security4cert11certificateEED2Ev@Base 0.9.1-3~
 _ZN5vmime7utility3refINS_8security4cert15X509CertificateEED0Ev@Base 0.9.1-3~
 _ZN5vmime7utility3refINS_8security4cert15X509CertificateEED1Ev@Base 0.9.1-3~
 _ZN5vmime7utility3refINS_8security4cert15X509CertificateEED2Ev@Base 0.9.1-3~
 _ZN5vmime7utility3refINS_8security4cert16certificateChainEED0Ev@Base 0.9.1-3~
 _ZN5vmime7utility3refINS_8security4cert16certificateChainEED1Ev@Base 0.9.1-3~
 _ZN5vmime7utility3refINS_8security4cert16certificateChainEED2Ev@Base 0.9.1-3~
 _ZN5vmime7utility3refINS_8security4cert19certificateVerifierEED0Ev@Base 0.9.1-3~
 _ZN5vmime7utility3refINS_8security4cert19certificateVerifierEED1Ev@Base 0.9.1-3~
 _ZN5vmime7utility3refINS_8security4cert19certificateVerifierEED2Ev@Base 0.9.1-3~
 _ZN5vmime7utility3refINS_8security4cert26defaultCertificateVerifierEED0Ev@Base 0.9.1-3~
 _ZN5vmime7utility3refINS_8security4cert26defaultCertificateVerifierEED1Ev@Base 0.9.1-3~
 _ZN5vmime7utility3refINS_8security4cert26defaultCertificateVerifierEED2Ev@Base 0.9.1-3~
 _ZN5vmime7utility3refINS_8security4sasl10SASLSocketEED0Ev@Base 0.9.1-3~
 _ZN5vmime7utility3refINS_8security4sasl10SASLSocketEED1Ev@Base 0.9.1-3~
 _ZN5vmime7utility3refINS_8security4sasl10SASLSocketEED2Ev@Base 0.9.1-3~
 _ZN5vmime7utility3refINS_8security4sasl11SASLContextEED0Ev@Base 0.9.1-3~
 _ZN5vmime7utility3refINS_8security4sasl11SASLContextEED1Ev@Base 0.9.1-3~
 _ZN5vmime7utility3refINS_8security4sasl11SASLContextEED2Ev@Base 0.9.1-3~
 _ZN5vmime7utility3refINS_8security4sasl11SASLSessionEED0Ev@Base 0.9.1-3~
 _ZN5vmime7utility3refINS_8security4sasl11SASLSessionEED1Ev@Base 0.9.1-3~
 _ZN5vmime7utility3refINS_8security4sasl11SASLSessionEED2Ev@Base 0.9.1-3~
 _ZN5vmime7utility3refINS_8security4sasl13SASLMechanismEED0Ev@Base 0.9.1-3~
 _ZN5vmime7utility3refINS_8security4sasl13SASLMechanismEED1Ev@Base 0.9.1-3~
 _ZN5vmime7utility3refINS_8security4sasl13SASLMechanismEED2Ev@Base 0.9.1-3~
 _ZN5vmime7utility3refINS_8security4sasl17SASLAuthenticatorEED0Ev@Base 0.9.1-3~
 _ZN5vmime7utility3refINS_8security4sasl17SASLAuthenticatorEED1Ev@Base 0.9.1-3~
 _ZN5vmime7utility3refINS_8security4sasl17SASLAuthenticatorEED2Ev@Base 0.9.1-3~
 _ZN5vmime7utility3refINS_8security4sasl20SASLMechanismFactory19registeredMechanismEED0Ev@Base 0.9.1-3~
 _ZN5vmime7utility3refINS_8security4sasl20SASLMechanismFactory19registeredMechanismEED1Ev@Base 0.9.1-3~
 _ZN5vmime7utility3refINS_8security4sasl20SASLMechanismFactory19registeredMechanismEED2Ev@Base 0.9.1-3~
 _ZN5vmime7utility3refINS_8security4sasl20builtinSASLMechanismEED0Ev@Base 0.9.1-3~
 _ZN5vmime7utility3refINS_8security4sasl20builtinSASLMechanismEED1Ev@Base 0.9.1-3~
 _ZN5vmime7utility3refINS_8security4sasl20builtinSASLMechanismEED2Ev@Base 0.9.1-3~
 _ZN5vmime7utility3refINS_8security4sasl24defaultSASLAuthenticatorEED0Ev@Base 0.9.1-3~
 _ZN5vmime7utility3refINS_8security4sasl24defaultSASLAuthenticatorEED1Ev@Base 0.9.1-3~
 _ZN5vmime7utility3refINS_8security4sasl24defaultSASLAuthenticatorEED2Ev@Base 0.9.1-3~
 _ZN5vmime7utility3refINS_8security6digest13messageDigestEED0Ev@Base 0.9.1-3~
 _ZN5vmime7utility3refINS_8security6digest13messageDigestEED1Ev@Base 0.9.1-3~
 _ZN5vmime7utility3refINS_8security6digest13messageDigestEED2Ev@Base 0.9.1-3~
 _ZN5vmime7utility3refINS_8security6digest20messageDigestFactory22digestAlgorithmFactoryEED0Ev@Base 0.9.1-3~
 _ZN5vmime7utility3refINS_8security6digest20messageDigestFactory22digestAlgorithmFactoryEED1Ev@Base 0.9.1-3~
 _ZN5vmime7utility3refINS_8security6digest20messageDigestFactory22digestAlgorithmFactoryEED2Ev@Base 0.9.1-3~
 _ZN5vmime7utility3refINS_8security6digest20messageDigestFactory26digestAlgorithmFactoryImplINS3_3md516md5MessageDigestEEEED0Ev@Base 0.9.1-3~
 _ZN5vmime7utility3refINS_8security6digest20messageDigestFactory26digestAlgorithmFactoryImplINS3_3md516md5MessageDigestEEEED1Ev@Base 0.9.1-3~
 _ZN5vmime7utility3refINS_8security6digest20messageDigestFactory26digestAlgorithmFactoryImplINS3_3md516md5MessageDigestEEEED2Ev@Base 0.9.1-3~
 _ZN5vmime7utility3refINS_8security6digest20messageDigestFactory26digestAlgorithmFactoryImplINS3_4sha117sha1MessageDigestEEEED0Ev@Base 0.9.1-3~
 _ZN5vmime7utility3refINS_8security6digest20messageDigestFactory26digestAlgorithmFactoryImplINS3_4sha117sha1MessageDigestEEEED1Ev@Base 0.9.1-3~
 _ZN5vmime7utility3refINS_8security6digest20messageDigestFactory26digestAlgorithmFactoryImplINS3_4sha117sha1MessageDigestEEEED2Ev@Base 0.9.1-3~
 _ZN5vmime7utility3refINS_8security6digest3md516md5MessageDigestEED0Ev@Base 0.9.1-3~
 _ZN5vmime7utility3refINS_8security6digest3md516md5MessageDigestEED1Ev@Base 0.9.1-3~
 _ZN5vmime7utility3refINS_8security6digest3md516md5MessageDigestEED2Ev@Base 0.9.1-3~
 _ZN5vmime7utility3refINS_8security6digest4sha117sha1MessageDigestEED0Ev@Base 0.9.1-3~
 _ZN5vmime7utility3refINS_8security6digest4sha117sha1MessageDigestEED1Ev@Base 0.9.1-3~
 _ZN5vmime7utility3refINS_8security6digest4sha117sha1MessageDigestEED2Ev@Base 0.9.1-3~
 _ZN5vmime7utility3refINS_8textPartEED0Ev@Base 0.9.1-3~
 _ZN5vmime7utility3refINS_8textPartEED1Ev@Base 0.9.1-3~
 _ZN5vmime7utility3refINS_8textPartEED2Ev@Base 0.9.1-3~
 _ZN5vmime7utility3refINS_9componentEED0Ev@Base 0.9.1-3~
 _ZN5vmime7utility3refINS_9componentEED1Ev@Base 0.9.1-3~
 _ZN5vmime7utility3refINS_9componentEED2Ev@Base 0.9.1-3~
 _ZN5vmime7utility3refINS_9mediaTypeEED0Ev@Base 0.9.1-3~
 _ZN5vmime7utility3refINS_9mediaTypeEED1Ev@Base 0.9.1-3~
 _ZN5vmime7utility3refINS_9mediaTypeEED2Ev@Base 0.9.1-3~
 _ZN5vmime7utility3refINS_9messageIdEED0Ev@Base 0.9.1-3~
 _ZN5vmime7utility3refINS_9messageIdEED1Ev@Base 0.9.1-3~
 _ZN5vmime7utility3refINS_9messageIdEED2Ev@Base 0.9.1-3~
 _ZN5vmime7utility3refINS_9parameterEED0Ev@Base 0.9.1-3~
 _ZN5vmime7utility3refINS_9parameterEED1Ev@Base 0.9.1-3~
 _ZN5vmime7utility3refINS_9parameterEED2Ev@Base 0.9.1-3~
 _ZN5vmime7utility3refINS_9platforms5posix11posixSocketEED0Ev@Base 0.9.1-3~
 _ZN5vmime7utility3refINS_9platforms5posix11posixSocketEED1Ev@Base 0.9.1-3~
 _ZN5vmime7utility3refINS_9platforms5posix11posixSocketEED2Ev@Base 0.9.1-3~
 _ZN5vmime7utility3refINS_9platforms5posix15posixFileReaderEED0Ev@Base 0.9.1-3~
 _ZN5vmime7utility3refINS_9platforms5posix15posixFileReaderEED1Ev@Base 0.9.1-3~
 _ZN5vmime7utility3refINS_9platforms5posix15posixFileReaderEED2Ev@Base 0.9.1-3~
 _ZN5vmime7utility3refINS_9platforms5posix15posixFileWriterEED0Ev@Base 0.9.1-3~
 _ZN5vmime7utility3refINS_9platforms5posix15posixFileWriterEED1Ev@Base 0.9.1-3~
 _ZN5vmime7utility3refINS_9platforms5posix15posixFileWriterEED2Ev@Base 0.9.1-3~
 _ZN5vmime7utility3refINS_9platforms5posix17posixChildProcessEED0Ev@Base 0.9.1-3~
 _ZN5vmime7utility3refINS_9platforms5posix17posixChildProcessEED1Ev@Base 0.9.1-3~
 _ZN5vmime7utility3refINS_9platforms5posix17posixChildProcessEED2Ev@Base 0.9.1-3~
 _ZN5vmime7utility3refINS_9platforms5posix17posixFileIteratorEED0Ev@Base 0.9.1-3~
 _ZN5vmime7utility3refINS_9platforms5posix17posixFileIteratorEED1Ev@Base 0.9.1-3~
 _ZN5vmime7utility3refINS_9platforms5posix17posixFileIteratorEED2Ev@Base 0.9.1-3~
 _ZN5vmime7utility3refINS_9platforms5posix18posixSocketFactoryEED0Ev@Base 0.9.1-3~
 _ZN5vmime7utility3refINS_9platforms5posix18posixSocketFactoryEED1Ev@Base 0.9.1-3~
 _ZN5vmime7utility3refINS_9platforms5posix18posixSocketFactoryEED2Ev@Base 0.9.1-3~
 _ZN5vmime7utility3refINS_9platforms5posix22posixFileSystemFactoryEED0Ev@Base 0.9.1-3~
 _ZN5vmime7utility3refINS_9platforms5posix22posixFileSystemFactoryEED1Ev@Base 0.9.1-3~
 _ZN5vmime7utility3refINS_9platforms5posix22posixFileSystemFactoryEED2Ev@Base 0.9.1-3~
 _ZN5vmime7utility3refINS_9platforms5posix24posixChildProcessFactoryEED0Ev@Base 0.9.1-3~
 _ZN5vmime7utility3refINS_9platforms5posix24posixChildProcessFactoryEED1Ev@Base 0.9.1-3~
 _ZN5vmime7utility3refINS_9platforms5posix24posixChildProcessFactoryEED2Ev@Base 0.9.1-3~
 _ZN5vmime7utility3refINS_9platforms5posix26posixFileReaderInputStreamEED0Ev@Base 0.9.1-3~
 _ZN5vmime7utility3refINS_9platforms5posix26posixFileReaderInputStreamEED1Ev@Base 0.9.1-3~
 _ZN5vmime7utility3refINS_9platforms5posix26posixFileReaderInputStreamEED2Ev@Base 0.9.1-3~
 _ZN5vmime7utility3refINS_9platforms5posix27inputStreamPosixPipeAdapterEED0Ev@Base 0.9.1-3~
 _ZN5vmime7utility3refINS_9platforms5posix27inputStreamPosixPipeAdapterEED1Ev@Base 0.9.1-3~
 _ZN5vmime7utility3refINS_9platforms5posix27inputStreamPosixPipeAdapterEED2Ev@Base 0.9.1-3~
 _ZN5vmime7utility3refINS_9platforms5posix27posixFileWriterOutputStreamEED0Ev@Base 0.9.1-3~
 _ZN5vmime7utility3refINS_9platforms5posix27posixFileWriterOutputStreamEED1Ev@Base 0.9.1-3~
 _ZN5vmime7utility3refINS_9platforms5posix27posixFileWriterOutputStreamEED2Ev@Base 0.9.1-3~
 _ZN5vmime7utility3refINS_9platforms5posix28outputStreamPosixPipeAdapterEED0Ev@Base 0.9.1-3~
 _ZN5vmime7utility3refINS_9platforms5posix28outputStreamPosixPipeAdapterEED1Ev@Base 0.9.1-3~
 _ZN5vmime7utility3refINS_9platforms5posix28outputStreamPosixPipeAdapterEED2Ev@Base 0.9.1-3~
 _ZN5vmime7utility3refINS_9platforms5posix9posixFileEED0Ev@Base 0.9.1-3~
 _ZN5vmime7utility3refINS_9platforms5posix9posixFileEED1Ev@Base 0.9.1-3~
 _ZN5vmime7utility3refINS_9platforms5posix9posixFileEED2Ev@Base 0.9.1-3~
 _ZN5vmime7utility3url11setPasswordERKNSt7__cxx1112basic_stringIcSt11char_traitsIcESaIcEEE@Base 0.9.1-3~
 _ZN5vmime7utility3url11setProtocolERKNSt7__cxx1112basic_stringIcSt11char_traitsIcESaIcEEE@Base 0.9.1-3~
 _ZN5vmime7utility3url11setUsernameERKNSt7__cxx1112basic_stringIcSt11char_traitsIcESaIcEEE@Base 0.9.1-3~
 _ZN5vmime7utility3url12PROTOCOL_FTPB5cxx11E@Base 0.9.1-3~
 _ZN5vmime7utility3url13PROTOCOL_FILEB5cxx11E@Base 0.9.1-3~
 _ZN5vmime7utility3url13PROTOCOL_HTTPB5cxx11E@Base 0.9.1-3~
 _ZN5vmime7utility3url16UNSPECIFIED_PORTE@Base 0.9.1-3~
 _ZN5vmime7utility3url5parseERKNSt7__cxx1112basic_stringIcSt11char_traitsIcESaIcEEE@Base 0.9.1-3~
 _ZN5vmime7utility3url7setHostERKNSt7__cxx1112basic_stringIcSt11char_traitsIcESaIcEEE@Base 0.9.1-3~
 _ZN5vmime7utility3url7setPathERKNSt7__cxx1112basic_stringIcSt11char_traitsIcESaIcEEE@Base 0.9.1-3~
 _ZN5vmime7utility3url7setPortEt@Base 0.9.1-3~
 _ZN5vmime7utility3url9getParamsEv@Base 0.9.1-3~
 _ZN5vmime7utility3urlC1ERKNSt7__cxx1112basic_stringIcSt11char_traitsIcESaIcEEE@Base 0.9.1-3~
 _ZN5vmime7utility3urlC1ERKNSt7__cxx1112basic_stringIcSt11char_traitsIcESaIcEEES9_tS9_S9_S9_@Base 0.9.1-3~
 _ZN5vmime7utility3urlC1ERKS1_@Base 0.9.1-3~
 _ZN5vmime7utility3urlC2ERKNSt7__cxx1112basic_stringIcSt11char_traitsIcESaIcEEE@Base 0.9.1-3~
 _ZN5vmime7utility3urlC2ERKNSt7__cxx1112basic_stringIcSt11char_traitsIcESaIcEEES9_tS9_S9_S9_@Base 0.9.1-3~
 _ZN5vmime7utility3urlC2ERKS1_@Base 0.9.1-3~
 _ZN5vmime7utility3urlaSERKNSt7__cxx1112basic_stringIcSt11char_traitsIcESaIcEEE@Base 0.9.1-3~
 _ZN5vmime7utility3urlaSERKS1_@Base 0.9.1-3~
 _ZN5vmime7utility4path12renameParentERKS1_S3_@Base 0.9.1-3~
 _ZN5vmime7utility4path14getComponentAtEi@Base 0.9.1-3~
 _ZN5vmime7utility4path15appendComponentERKNS_4wordE@Base 0.9.1-3~
 _ZN5vmime7utility4path16getLastComponentEv@Base 0.9.1-3~
 _ZN5vmime7utility4pathC1ERKNS_4wordE@Base 0.9.1-3~
 _ZN5vmime7utility4pathC1ERKNSt7__cxx1112basic_stringIcSt11char_traitsIcESaIcEEE@Base 0.9.1-3~
 _ZN5vmime7utility4pathC1ERKS1_@Base 0.9.1-3~
 _ZN5vmime7utility4pathC1Ev@Base 0.9.1-3~
 _ZN5vmime7utility4pathC2ERKNS_4wordE@Base 0.9.1-3~
 _ZN5vmime7utility4pathC2ERKNSt7__cxx1112basic_stringIcSt11char_traitsIcESaIcEEE@Base 0.9.1-3~
 _ZN5vmime7utility4pathC2ERKS1_@Base 0.9.1-3~
 _ZN5vmime7utility4pathC2Ev@Base 0.9.1-3~
 _ZN5vmime7utility4pathD0Ev@Base 0.9.1-3~
 _ZN5vmime7utility4pathD1Ev@Base 0.9.1-3~
 _ZN5vmime7utility4pathD2Ev@Base 0.9.1-3~
 _ZN5vmime7utility4pathaSERKNS_4wordE@Base 0.9.1-3~
 _ZN5vmime7utility4pathaSERKS1_@Base 0.9.1-3~
 _ZN5vmime7utility4pathdVERKNS_4wordE@Base 0.9.1-3~
 _ZN5vmime7utility4pathdVERKS1_@Base 0.9.1-3~
 _ZN5vmime7utility4pathixEi@Base 0.9.1-3~
 _ZN5vmime7utility6random10getProcessEv@Base 0.9.1-3~
 _ZN5vmime7utility6random6m_nextE@Base 0.9.1-3~
 _ZN5vmime7utility6random7getNextEv@Base 0.9.1-3~
 _ZN5vmime7utility6random7getTimeEv@Base 0.9.1-3~
 _ZN5vmime7utility6random9getStringEiRKNSt7__cxx1112basic_stringIcSt11char_traitsIcESaIcEEE@Base 0.9.1-3~
 _ZN5vmime7utility6stream12getBlockSizeEv@Base 0.9.1-3~
 _ZN5vmime7utility6streamD0Ev@Base 0.9.1-3~
 _ZN5vmime7utility6streamD1Ev@Base 0.9.1-3~
 _ZN5vmime7utility6streamD2Ev@Base 0.9.1-3~
 _ZN5vmime7utility7encoder10b64Encoder11sm_alphabetE@Base 0.9.1-3~
 _ZN5vmime7utility7encoder10b64Encoder12sm_decodeMapE@Base 0.9.1-3~
 _ZN5vmime7utility7encoder10b64Encoder6decodeERNS0_11inputStreamERNS0_12outputStreamEPNS0_16progressListenerE@Base 0.9.1-3~
 _ZN5vmime7utility7encoder10b64Encoder6encodeERNS0_11inputStreamERNS0_12outputStreamEPNS0_16progressListenerE@Base 0.9.1-3~
 _ZN5vmime7utility7encoder10b64EncoderC1Ev@Base 0.9.1-3~
 _ZN5vmime7utility7encoder10b64EncoderC2Ev@Base 0.9.1-3~
 _ZN5vmime7utility7encoder10b64EncoderD0Ev@Base 0.9.1-3~
 _ZN5vmime7utility7encoder10b64EncoderD1Ev@Base 0.9.1-3~
 _ZN5vmime7utility7encoder10b64EncoderD2Ev@Base 0.9.1-3~
 _ZN5vmime7utility7encoder13binaryEncoderC1Ev@Base 0.9.1-3~
 _ZN5vmime7utility7encoder13binaryEncoderC2Ev@Base 0.9.1-3~
 _ZN5vmime7utility7encoder13binaryEncoderD0Ev@Base 0.9.1-3~
 _ZN5vmime7utility7encoder13binaryEncoderD1Ev@Base 0.9.1-3~
 _ZN5vmime7utility7encoder13binaryEncoderD2Ev@Base 0.9.1-3~
 _ZN5vmime7utility7encoder14defaultEncoder6decodeERNS0_11inputStreamERNS0_12outputStreamEPNS0_16progressListenerE@Base 0.9.1-3~
 _ZN5vmime7utility7encoder14defaultEncoder6encodeERNS0_11inputStreamERNS0_12outputStreamEPNS0_16progressListenerE@Base 0.9.1-3~
 _ZN5vmime7utility7encoder14defaultEncoderC1Ev@Base 0.9.1-3~
 _ZN5vmime7utility7encoder14defaultEncoderC2Ev@Base 0.9.1-3~
 _ZN5vmime7utility7encoder14defaultEncoderD0Ev@Base 0.9.1-3~
 _ZN5vmime7utility7encoder14defaultEncoderD1Ev@Base 0.9.1-3~
 _ZN5vmime7utility7encoder14defaultEncoderD2Ev@Base 0.9.1-3~
 _ZN5vmime7utility7encoder14encoderFactory11getInstanceEv@Base 0.9.1-3~
 _ZN5vmime7utility7encoder14encoderFactory21registeredEncoderImplINS1_10b64EncoderEED0Ev@Base 0.9.1-3~
 _ZN5vmime7utility7encoder14encoderFactory21registeredEncoderImplINS1_10b64EncoderEED1Ev@Base 0.9.1-3~
 _ZN5vmime7utility7encoder14encoderFactory21registeredEncoderImplINS1_10b64EncoderEED2Ev@Base 0.9.1-3~
 _ZN5vmime7utility7encoder14encoderFactory21registeredEncoderImplINS1_13binaryEncoderEED0Ev@Base 0.9.1-3~
 _ZN5vmime7utility7encoder14encoderFactory21registeredEncoderImplINS1_13binaryEncoderEED1Ev@Base 0.9.1-3~
 _ZN5vmime7utility7encoder14encoderFactory21registeredEncoderImplINS1_13binaryEncoderEED2Ev@Base 0.9.1-3~
 _ZN5vmime7utility7encoder14encoderFactory21registeredEncoderImplINS1_15eightBitEncoderEED0Ev@Base 0.9.1-3~
 _ZN5vmime7utility7encoder14encoderFactory21registeredEncoderImplINS1_15eightBitEncoderEED1Ev@Base 0.9.1-3~
 _ZN5vmime7utility7encoder14encoderFactory21registeredEncoderImplINS1_15eightBitEncoderEED2Ev@Base 0.9.1-3~
 _ZN5vmime7utility7encoder14encoderFactory21registeredEncoderImplINS1_15sevenBitEncoderEED0Ev@Base 0.9.1-3~
 _ZN5vmime7utility7encoder14encoderFactory21registeredEncoderImplINS1_15sevenBitEncoderEED1Ev@Base 0.9.1-3~
 _ZN5vmime7utility7encoder14encoderFactory21registeredEncoderImplINS1_15sevenBitEncoderEED2Ev@Base 0.9.1-3~
 _ZN5vmime7utility7encoder14encoderFactory21registeredEncoderImplINS1_9qpEncoderEED0Ev@Base 0.9.1-3~
 _ZN5vmime7utility7encoder14encoderFactory21registeredEncoderImplINS1_9qpEncoderEED1Ev@Base 0.9.1-3~
 _ZN5vmime7utility7encoder14encoderFactory21registeredEncoderImplINS1_9qpEncoderEED2Ev@Base 0.9.1-3~
 _ZN5vmime7utility7encoder14encoderFactory21registeredEncoderImplINS1_9uuEncoderEED0Ev@Base 0.9.1-3~
 _ZN5vmime7utility7encoder14encoderFactory21registeredEncoderImplINS1_9uuEncoderEED1Ev@Base 0.9.1-3~
 _ZN5vmime7utility7encoder14encoderFactory21registeredEncoderImplINS1_9uuEncoderEED2Ev@Base 0.9.1-3~
 _ZN5vmime7utility7encoder14encoderFactory6createERKNSt7__cxx1112basic_stringIcSt11char_traitsIcESaIcEEE@Base 0.9.1-3~
 _ZN5vmime7utility7encoder14encoderFactoryC1Ev@Base 0.9.1-3~
 _ZN5vmime7utility7encoder14encoderFactoryC2Ev@Base 0.9.1-3~
 _ZN5vmime7utility7encoder14encoderFactoryD1Ev@Base 0.9.1-3~
 _ZN5vmime7utility7encoder14encoderFactoryD2Ev@Base 0.9.1-3~
 _ZN5vmime7utility7encoder15eightBitEncoderC1Ev@Base 0.9.1-3~
 _ZN5vmime7utility7encoder15eightBitEncoderC2Ev@Base 0.9.1-3~
 _ZN5vmime7utility7encoder15eightBitEncoderD0Ev@Base 0.9.1-3~
 _ZN5vmime7utility7encoder15eightBitEncoderD1Ev@Base 0.9.1-3~
 _ZN5vmime7utility7encoder15eightBitEncoderD2Ev@Base 0.9.1-3~
 _ZN5vmime7utility7encoder15sevenBitEncoderC1Ev@Base 0.9.1-3~
 _ZN5vmime7utility7encoder15sevenBitEncoderC2Ev@Base 0.9.1-3~
 _ZN5vmime7utility7encoder15sevenBitEncoderD0Ev@Base 0.9.1-3~
 _ZN5vmime7utility7encoder15sevenBitEncoderD1Ev@Base 0.9.1-3~
 _ZN5vmime7utility7encoder15sevenBitEncoderD2Ev@Base 0.9.1-3~
 _ZN5vmime7utility7encoder7encoder10getResultsEv@Base 0.9.1-3~
 _ZN5vmime7utility7encoder7encoder13getPropertiesEv@Base 0.9.1-3~
 _ZN5vmime7utility7encoder7encoderC1Ev@Base 0.9.1-3~
 _ZN5vmime7utility7encoder7encoderC2Ev@Base 0.9.1-3~
 _ZN5vmime7utility7encoder7encoderD0Ev@Base 0.9.1-3~
 _ZN5vmime7utility7encoder7encoderD1Ev@Base 0.9.1-3~
 _ZN5vmime7utility7encoder7encoderD2Ev@Base 0.9.1-3~
 _ZN5vmime7utility7encoder9qpEncoder12sm_hexDigitsE@Base 0.9.1-3~
 _ZN5vmime7utility7encoder9qpEncoder17sm_hexDecodeTableE@Base 0.9.1-3~
 _ZN5vmime7utility7encoder9qpEncoder21sm_RFC2047EncodeTableE@Base 0.9.1-3~
 _ZN5vmime7utility7encoder9qpEncoder24RFC2047_getEncodedLengthEh@Base 0.9.1-3~
 _ZN5vmime7utility7encoder9qpEncoder31RFC2047_isEncodingNeededForCharEh@Base 0.9.1-3~
 _ZN5vmime7utility7encoder9qpEncoder6decodeERNS0_11inputStreamERNS0_12outputStreamEPNS0_16progressListenerE@Base 0.9.1-3~
 _ZN5vmime7utility7encoder9qpEncoder6encodeERNS0_11inputStreamERNS0_12outputStreamEPNS0_16progressListenerE@Base 0.9.1-3~
 _ZN5vmime7utility7encoder9qpEncoderC1Ev@Base 0.9.1-3~
 _ZN5vmime7utility7encoder9qpEncoderC2Ev@Base 0.9.1-3~
 _ZN5vmime7utility7encoder9qpEncoderD0Ev@Base 0.9.1-3~
 _ZN5vmime7utility7encoder9qpEncoderD1Ev@Base 0.9.1-3~
 _ZN5vmime7utility7encoder9qpEncoderD2Ev@Base 0.9.1-3~
 _ZN5vmime7utility7encoder9uuEncoder6decodeERNS0_11inputStreamERNS0_12outputStreamEPNS0_16progressListenerE@Base 0.9.1-3~
 _ZN5vmime7utility7encoder9uuEncoder6encodeERNS0_11inputStreamERNS0_12outputStreamEPNS0_16progressListenerE@Base 0.9.1-3~
 _ZN5vmime7utility7encoder9uuEncoderC1Ev@Base 0.9.1-3~
 _ZN5vmime7utility7encoder9uuEncoderC2Ev@Base 0.9.1-3~
 _ZN5vmime7utility7encoder9uuEncoderD0Ev@Base 0.9.1-3~
 _ZN5vmime7utility7encoder9uuEncoderD1Ev@Base 0.9.1-3~
 _ZN5vmime7utility7encoder9uuEncoderD2Ev@Base 0.9.1-3~
 _ZN5vmime7utility8urlUtils6decodeERKNSt7__cxx1112basic_stringIcSt11char_traitsIcESaIcEEE@Base 0.9.1-3~
 _ZN5vmime7utility8urlUtils6encodeERKNSt7__cxx1112basic_stringIcSt11char_traitsIcESaIcEEE@Base 0.9.1-3~
 _ZN5vmime7utility8weak_refINS_3net14timeoutHandlerEE7acquireEv@Base 0.9.1-3~
 _ZN5vmime7utility8weak_refINS_3net4imap10IMAPFolderEE7acquireEv@Base 0.9.1-3~
 _ZN5vmime7utility8weak_refINS_3net4imap9IMAPStoreEE7acquireEv@Base 0.9.1-3~
 _ZN5vmime7utility8weak_refINS_3net6socketEE7acquireEv@Base 0.9.1-3~
 _ZN5vmime7utility8weak_refINS_3net7maildir12maildirStoreEE7acquireEv@Base 0.9.1-3~
 _ZN5vmime7utility8weak_refINS_6headerEE7acquireEv@Base 0.9.1-3~
 _ZN5vmime7utilitylsERNS0_12outputStreamERKNS0_11stringProxyE@Base 0.9.1-3~
 _ZN5vmime7utilitylsERNS0_12outputStreamERKNSt7__cxx1112basic_stringIcSt11char_traitsIcESaIcEEE@Base 0.9.1-3~
 _ZN5vmime7utilitylsERNS0_12outputStreamEc@Base 0.9.1-3~
 _ZN5vmime7utilitylsERSoRKNS0_11stringProxyE@Base 0.9.1-3~
 _ZN5vmime8bodyPart13getParentPartEv@Base 0.9.1-3~
 _ZN5vmime8bodyPart5parseERKNSt7__cxx1112basic_stringIcSt11char_traitsIcESaIcEEEmmPm@Base 0.9.1-3~
 _ZN5vmime8bodyPart7getBodyEv@Base 0.9.1-3~
 _ZN5vmime8bodyPart8copyFromERKNS_9componentE@Base 0.9.1-3~
 _ZN5vmime8bodyPart9getHeaderEv@Base 0.9.1-3~
 _ZN5vmime8bodyPartC1ENS_7utility8weak_refIS0_EE@Base 0.9.1-3~
 _ZN5vmime8bodyPartC1Ev@Base 0.9.1-3~
 _ZN5vmime8bodyPartC2ENS_7utility8weak_refIS0_EE@Base 0.9.1-3~
 _ZN5vmime8bodyPartC2Ev@Base 0.9.1-3~
 _ZN5vmime8bodyPartD0Ev@Base 0.9.1-3~
 _ZN5vmime8bodyPartD1Ev@Base 0.9.1-3~
 _ZN5vmime8bodyPartD2Ev@Base 0.9.1-3~
 _ZN5vmime8bodyPartaSERKS0_@Base 0.9.1-3~
 _ZN5vmime8charsets10ISO8859_10E@Base 0.9.1-3~
 _ZN5vmime8charsets10ISO8859_13E@Base 0.9.1-3~
 _ZN5vmime8charsets10ISO8859_14E@Base 0.9.1-3~
 _ZN5vmime8charsets10ISO8859_15E@Base 0.9.1-3~
 _ZN5vmime8charsets10ISO8859_16E@Base 0.9.1-3~
 _ZN5vmime8charsets12WINDOWS_1250E@Base 0.9.1-3~
 _ZN5vmime8charsets12WINDOWS_1251E@Base 0.9.1-3~
 _ZN5vmime8charsets12WINDOWS_1252E@Base 0.9.1-3~
 _ZN5vmime8charsets12WINDOWS_1253E@Base 0.9.1-3~
 _ZN5vmime8charsets12WINDOWS_1254E@Base 0.9.1-3~
 _ZN5vmime8charsets12WINDOWS_1255E@Base 0.9.1-3~
 _ZN5vmime8charsets12WINDOWS_1256E@Base 0.9.1-3~
 _ZN5vmime8charsets12WINDOWS_1257E@Base 0.9.1-3~
 _ZN5vmime8charsets12WINDOWS_1258E@Base 0.9.1-3~
 _ZN5vmime8charsets5UTF_7E@Base 0.9.1-3~
 _ZN5vmime8charsets5UTF_8E@Base 0.9.1-3~
 _ZN5vmime8charsets6CP_437E@Base 0.9.1-3~
 _ZN5vmime8charsets6CP_737E@Base 0.9.1-3~
 _ZN5vmime8charsets6CP_775E@Base 0.9.1-3~
 _ZN5vmime8charsets6CP_850E@Base 0.9.1-3~
 _ZN5vmime8charsets6CP_852E@Base 0.9.1-3~
 _ZN5vmime8charsets6CP_853E@Base 0.9.1-3~
 _ZN5vmime8charsets6CP_855E@Base 0.9.1-3~
 _ZN5vmime8charsets6CP_857E@Base 0.9.1-3~
 _ZN5vmime8charsets6CP_858E@Base 0.9.1-3~
 _ZN5vmime8charsets6CP_860E@Base 0.9.1-3~
 _ZN5vmime8charsets6CP_861E@Base 0.9.1-3~
 _ZN5vmime8charsets6CP_862E@Base 0.9.1-3~
 _ZN5vmime8charsets6CP_863E@Base 0.9.1-3~
 _ZN5vmime8charsets6CP_864E@Base 0.9.1-3~
 _ZN5vmime8charsets6CP_865E@Base 0.9.1-3~
 _ZN5vmime8charsets6CP_866E@Base 0.9.1-3~
 _ZN5vmime8charsets6CP_869E@Base 0.9.1-3~
 _ZN5vmime8charsets6CP_874E@Base 0.9.1-3~
 _ZN5vmime8charsets6UTF_16E@Base 0.9.1-3~
 _ZN5vmime8charsets6UTF_32E@Base 0.9.1-3~
 _ZN5vmime8charsets7CP_1125E@Base 0.9.1-3~
 _ZN5vmime8charsets7CP_1250E@Base 0.9.1-3~
 _ZN5vmime8charsets7CP_1251E@Base 0.9.1-3~
 _ZN5vmime8charsets7CP_1252E@Base 0.9.1-3~
 _ZN5vmime8charsets7CP_1253E@Base 0.9.1-3~
 _ZN5vmime8charsets7CP_1254E@Base 0.9.1-3~
 _ZN5vmime8charsets7CP_1255E@Base 0.9.1-3~
 _ZN5vmime8charsets7CP_1256E@Base 0.9.1-3~
 _ZN5vmime8charsets7CP_1257E@Base 0.9.1-3~
 _ZN5vmime8charsets8US_ASCIIE@Base 0.9.1-3~
 _ZN5vmime8charsets9ISO8859_1E@Base 0.9.1-3~
 _ZN5vmime8charsets9ISO8859_2E@Base 0.9.1-3~
 _ZN5vmime8charsets9ISO8859_3E@Base 0.9.1-3~
 _ZN5vmime8charsets9ISO8859_4E@Base 0.9.1-3~
 _ZN5vmime8charsets9ISO8859_5E@Base 0.9.1-3~
 _ZN5vmime8charsets9ISO8859_6E@Base 0.9.1-3~
 _ZN5vmime8charsets9ISO8859_7E@Base 0.9.1-3~
 _ZN5vmime8charsets9ISO8859_8E@Base 0.9.1-3~
 _ZN5vmime8charsets9ISO8859_9E@Base 0.9.1-3~
 _ZN5vmime8datetime3nowEv@Base 0.9.1-3~
 _ZN5vmime8datetime5parseERKNSt7__cxx1112basic_stringIcSt11char_traitsIcESaIcEEEmmPm@Base 0.9.1-3~
 _ZN5vmime8datetime6setDayEi@Base 0.9.1-3~
 _ZN5vmime8datetime7setDateEiii@Base 0.9.1-3~
 _ZN5vmime8datetime7setHourEi@Base 0.9.1-3~
 _ZN5vmime8datetime7setTimeEiiii@Base 0.9.1-3~
 _ZN5vmime8datetime7setYearEi@Base 0.9.1-3~
 _ZN5vmime8datetime7setZoneEi@Base 0.9.1-3~
 _ZN5vmime8datetime8copyFromERKNS_9componentE@Base 0.9.1-3~
 _ZN5vmime8datetime8setMonthEi@Base 0.9.1-3~
 _ZN5vmime8datetime9setMinuteEi@Base 0.9.1-3~
 _ZN5vmime8datetime9setSecondEi@Base 0.9.1-3~
 _ZN5vmime8datetimeC1ERKNSt7__cxx1112basic_stringIcSt11char_traitsIcESaIcEEE@Base 0.9.1-3~
 _ZN5vmime8datetimeC1ERKS0_@Base 0.9.1-3~
 _ZN5vmime8datetimeC1Eiii@Base 0.9.1-3~
 _ZN5vmime8datetimeC1Eiiiiiii@Base 0.9.1-3~
 _ZN5vmime8datetimeC1Eli@Base 0.9.1-3~
 _ZN5vmime8datetimeC1Ev@Base 0.9.1-3~
 _ZN5vmime8datetimeC2ERKNSt7__cxx1112basic_stringIcSt11char_traitsIcESaIcEEE@Base 0.9.1-3~
 _ZN5vmime8datetimeC2ERKS0_@Base 0.9.1-3~
 _ZN5vmime8datetimeC2Eiii@Base 0.9.1-3~
 _ZN5vmime8datetimeC2Eiiiiiii@Base 0.9.1-3~
 _ZN5vmime8datetimeC2Eli@Base 0.9.1-3~
 _ZN5vmime8datetimeC2Ev@Base 0.9.1-3~
 _ZN5vmime8datetimeD0Ev@Base 0.9.1-3~
 _ZN5vmime8datetimeD1Ev@Base 0.9.1-3~
 _ZN5vmime8datetimeD2Ev@Base 0.9.1-3~
 _ZN5vmime8datetimeaSERKNSt7__cxx1112basic_stringIcSt11char_traitsIcESaIcEEE@Base 0.9.1-3~
 _ZN5vmime8datetimeaSERKS0_@Base 0.9.1-3~
 _ZN5vmime8encoding10decideImplEN9__gnu_cxx17__normal_iteratorIPKcNSt7__cxx1112basic_stringIcSt11char_traitsIcESaIcEEEEESB_@Base 0.9.1-3~
 _ZN5vmime8encoding5parseERKNSt7__cxx1112basic_stringIcSt11char_traitsIcESaIcEEEmmPm@Base 0.9.1-3~
 _ZN5vmime8encoding6decideENS_7utility3refIKNS_14contentHandlerEEENS0_13EncodingUsageE@Base 0.9.1-3~
 _ZN5vmime8encoding6decideENS_7utility3refIKNS_14contentHandlerEEERKNS_7charsetENS0_13EncodingUsageE@Base 0.9.1-3~
 _ZN5vmime8encoding7setNameERKNSt7__cxx1112basic_stringIcSt11char_traitsIcESaIcEEE@Base 0.9.1-3~
 _ZN5vmime8encoding8copyFromERKNS_9componentE@Base 0.9.1-3~
 _ZN5vmime8encodingC1ERKNSt7__cxx1112basic_stringIcSt11char_traitsIcESaIcEEE@Base 0.9.1-3~
 _ZN5vmime8encodingC1ERKS0_@Base 0.9.1-3~
 _ZN5vmime8encodingC1Ev@Base 0.9.1-3~
 _ZN5vmime8encodingC2ERKNSt7__cxx1112basic_stringIcSt11char_traitsIcESaIcEEE@Base 0.9.1-3~
 _ZN5vmime8encodingC2ERKS0_@Base 0.9.1-3~
 _ZN5vmime8encodingC2Ev@Base 0.9.1-3~
 _ZN5vmime8encodingD0Ev@Base 0.9.1-3~
 _ZN5vmime8encodingD1Ev@Base 0.9.1-3~
 _ZN5vmime8encodingD2Ev@Base 0.9.1-3~
 _ZN5vmime8encodingaSERKNSt7__cxx1112basic_stringIcSt11char_traitsIcESaIcEEE@Base 0.9.1-3~
 _ZN5vmime8encodingaSERKS0_@Base 0.9.1-3~
 _ZN5vmime8platform10getHandlerEv@Base 0.9.1-3~
 _ZN5vmime8platform10sm_handlerE@Base 0.9.1-3~
 _ZN5vmime8platform7handlerD0Ev@Base 0.9.1-3~
 _ZN5vmime8platform7handlerD1Ev@Base 0.9.1-3~
 _ZN5vmime8platform7handlerD2Ev@Base 0.9.1-3~
 _ZN5vmime8security20defaultAuthenticator10setServiceENS_7utility3refINS_3net7serviceEEE@Base 0.9.1-3~
 _ZN5vmime8security20defaultAuthenticatorC1Ev@Base 0.9.1-3~
 _ZN5vmime8security20defaultAuthenticatorC2Ev@Base 0.9.1-3~
 _ZN5vmime8security20defaultAuthenticatorD0Ev@Base 0.9.1-3~
 _ZN5vmime8security20defaultAuthenticatorD1Ev@Base 0.9.1-3~
 _ZN5vmime8security20defaultAuthenticatorD2Ev@Base 0.9.1-3~
 _ZN5vmime8security4cert15X509Certificate6importEPKhj@Base 0.9.1-3~
 _ZN5vmime8security4cert15X509Certificate6importERNS_7utility11inputStreamE@Base 0.9.1-3~
 _ZN5vmime8security4cert15X509CertificateC1ERKS2_@Base 0.9.1-3~
 _ZN5vmime8security4cert15X509CertificateC1Ev@Base 0.9.1-3~
 _ZN5vmime8security4cert15X509CertificateC2ERKS2_@Base 0.9.1-3~
 _ZN5vmime8security4cert15X509CertificateC2Ev@Base 0.9.1-3~
 _ZN5vmime8security4cert15X509CertificateD0Ev@Base 0.9.1-3~
 _ZN5vmime8security4cert15X509CertificateD1Ev@Base 0.9.1-3~
 _ZN5vmime8security4cert15X509CertificateD2Ev@Base 0.9.1-3~
 _ZN5vmime8security4cert16certificateChain5getAtEj@Base 0.9.1-3~
 _ZN5vmime8security4cert16certificateChainC1ERKSt6vectorINS_7utility3refINS1_11certificateEEESaIS7_EE@Base 0.9.1-3~
 _ZN5vmime8security4cert16certificateChainC2ERKSt6vectorINS_7utility3refINS1_11certificateEEESaIS7_EE@Base 0.9.1-3~
 _ZN5vmime8security4cert16certificateChainD0Ev@Base 0.9.1-3~
 _ZN5vmime8security4cert16certificateChainD1Ev@Base 0.9.1-3~
 _ZN5vmime8security4cert16certificateChainD2Ev@Base 0.9.1-3~
 _ZN5vmime8security4cert26defaultCertificateVerifier10verifyX509ENS_7utility3refINS1_16certificateChainEEE@Base 0.9.1-3~
 _ZN5vmime8security4cert26defaultCertificateVerifier14setX509RootCAsERKSt6vectorINS_7utility3refINS1_15X509CertificateEEESaIS7_EE@Base 0.9.1-3~
 _ZN5vmime8security4cert26defaultCertificateVerifier19setX509TrustedCertsERKSt6vectorINS_7utility3refINS1_15X509CertificateEEESaIS7_EE@Base 0.9.1-3~
 _ZN5vmime8security4cert26defaultCertificateVerifier6verifyENS_7utility3refINS1_16certificateChainEEE@Base 0.9.1-3~
 _ZN5vmime8security4cert26defaultCertificateVerifierC1ERKS2_@Base 0.9.1-3~
 _ZN5vmime8security4cert26defaultCertificateVerifierC1Ev@Base 0.9.1-3~
 _ZN5vmime8security4cert26defaultCertificateVerifierC2ERKS2_@Base 0.9.1-3~
 _ZN5vmime8security4cert26defaultCertificateVerifierC2Ev@Base 0.9.1-3~
 _ZN5vmime8security4cert26defaultCertificateVerifierD0Ev@Base 0.9.1-3~
 _ZN5vmime8security4cert26defaultCertificateVerifierD1Ev@Base 0.9.1-3~
 _ZN5vmime8security4cert26defaultCertificateVerifierD2Ev@Base 0.9.1-3~
 _ZN5vmime8security4sasl10SASLSocket10disconnectEv@Base 0.9.1-3~
 _ZN5vmime8security4sasl10SASLSocket10receiveRawEPci@Base 0.9.1-3~
 _ZN5vmime8security4sasl10SASLSocket4sendERKNSt7__cxx1112basic_stringIcSt11char_traitsIcESaIcEEE@Base 0.9.1-3~
 _ZN5vmime8security4sasl10SASLSocket7connectERKNSt7__cxx1112basic_stringIcSt11char_traitsIcESaIcEEEt@Base 0.9.1-3~
 _ZN5vmime8security4sasl10SASLSocket7receiveERNSt7__cxx1112basic_stringIcSt11char_traitsIcESaIcEEE@Base 0.9.1-3~
 _ZN5vmime8security4sasl10SASLSocket7sendRawEPKci@Base 0.9.1-3~
 _ZN5vmime8security4sasl10SASLSocketC1ENS_7utility3refINS1_11SASLSessionEEENS4_INS_3net6socketEEE@Base 0.9.1-3~
 _ZN5vmime8security4sasl10SASLSocketC2ENS_7utility3refINS1_11SASLSessionEEENS4_INS_3net6socketEEE@Base 0.9.1-3~
 _ZN5vmime8security4sasl10SASLSocketD0Ev@Base 0.9.1-3~
 _ZN5vmime8security4sasl10SASLSocketD1Ev@Base 0.9.1-3~
 _ZN5vmime8security4sasl10SASLSocketD2Ev@Base 0.9.1-3~
 _ZN5vmime8security4sasl11SASLContext13createSessionERKNSt7__cxx1112basic_stringIcSt11char_traitsIcESaIcEEENS_7utility3refINS0_13authenticatorEEENSC_INS1_13SASLMechanismEEE@Base 0.9.1-3~
 _ZN5vmime8security4sasl11SASLContext15createMechanismERKNSt7__cxx1112basic_stringIcSt11char_traitsIcESaIcEEE@Base 0.9.1-3~
 _ZN5vmime8security4sasl11SASLContext15getErrorMessageERKNSt7__cxx1112basic_stringIcSt11char_traitsIcESaIcEEEi@Base 0.9.1-3~
 _ZN5vmime8security4sasl11SASLContext16suggestMechanismERKSt6vectorINS_7utility3refINS1_13SASLMechanismEEESaIS7_EE@Base 0.9.1-3~
 _ZN5vmime8security4sasl11SASLContext9decodeB64ERKNSt7__cxx1112basic_stringIcSt11char_traitsIcESaIcEEEPPhPi@Base 0.9.1-3~
 _ZN5vmime8security4sasl11SASLContext9encodeB64B5cxx11EPKhi@Base 0.9.1-3~
 _ZN5vmime8security4sasl11SASLContextC1Ev@Base 0.9.1-3~
 _ZN5vmime8security4sasl11SASLContextC2Ev@Base 0.9.1-3~
 _ZN5vmime8security4sasl11SASLContextD0Ev@Base 0.9.1-3~
 _ZN5vmime8security4sasl11SASLContextD1Ev@Base 0.9.1-3~
 _ZN5vmime8security4sasl11SASLContextD2Ev@Base 0.9.1-3~
 _ZN5vmime8security4sasl11SASLSession10getContextEv@Base 0.9.1-3~
 _ZN5vmime8security4sasl11SASLSession12getMechanismEv@Base 0.9.1-3~
 _ZN5vmime8security4sasl11SASLSession13gsaslCallbackEP5GsaslP13Gsasl_session14Gsasl_property@Base 0.9.1-3~
 _ZN5vmime8security4sasl11SASLSession16getAuthenticatorEv@Base 0.9.1-3~
 _ZN5vmime8security4sasl11SASLSession16getSecuredSocketENS_7utility3refINS_3net6socketEEE@Base 0.9.1-3~
 _ZN5vmime8security4sasl11SASLSession17evaluateChallengeEPKhiPPhPi@Base 0.9.1-3~
 _ZN5vmime8security4sasl11SASLSession4initEv@Base 0.9.1-3~
 _ZN5vmime8security4sasl11SASLSessionC1ERKNSt7__cxx1112basic_stringIcSt11char_traitsIcESaIcEEENS_7utility3refINS1_11SASLContextEEENSC_INS0_13authenticatorEEENSC_INS1_13SASLMechanismEEE@Base 0.9.1-3~
 _ZN5vmime8security4sasl11SASLSessionC2ERKNSt7__cxx1112basic_stringIcSt11char_traitsIcESaIcEEENS_7utility3refINS1_11SASLContextEEENSC_INS0_13authenticatorEEENSC_INS1_13SASLMechanismEEE@Base 0.9.1-3~
 _ZN5vmime8security4sasl11SASLSessionD0Ev@Base 0.9.1-3~
 _ZN5vmime8security4sasl11SASLSessionD1Ev@Base 0.9.1-3~
 _ZN5vmime8security4sasl11SASLSessionD2Ev@Base 0.9.1-3~
 _ZN5vmime8security4sasl20SASLMechanismFactory11getInstanceEv@Base 0.9.1-3~
 _ZN5vmime8security4sasl20SASLMechanismFactory6createENS_7utility3refINS1_11SASLContextEEERKNSt7__cxx1112basic_stringIcSt11char_traitsIcESaIcEEE@Base 0.9.1-3~
 _ZN5vmime8security4sasl20SASLMechanismFactoryC1Ev@Base 0.9.1-3~
 _ZN5vmime8security4sasl20SASLMechanismFactoryC2Ev@Base 0.9.1-3~
 _ZN5vmime8security4sasl20SASLMechanismFactoryD0Ev@Base 0.9.1-3~
 _ZN5vmime8security4sasl20SASLMechanismFactoryD1Ev@Base 0.9.1-3~
 _ZN5vmime8security4sasl20SASLMechanismFactoryD2Ev@Base 0.9.1-3~
 _ZN5vmime8security4sasl20builtinSASLMechanism4stepENS_7utility3refINS1_11SASLSessionEEEPKhiPPhPi@Base 0.9.1-3~
 _ZN5vmime8security4sasl20builtinSASLMechanism6decodeENS_7utility3refINS1_11SASLSessionEEEPKhiPPhPi@Base 0.9.1-3~
 _ZN5vmime8security4sasl20builtinSASLMechanism6encodeENS_7utility3refINS1_11SASLSessionEEEPKhiPPhPi@Base 0.9.1-3~
 _ZN5vmime8security4sasl20builtinSASLMechanismC1ENS_7utility3refINS1_11SASLContextEEERKNSt7__cxx1112basic_stringIcSt11char_traitsIcESaIcEEE@Base 0.9.1-3~
 _ZN5vmime8security4sasl20builtinSASLMechanismC2ENS_7utility3refINS1_11SASLContextEEERKNSt7__cxx1112basic_stringIcSt11char_traitsIcESaIcEEE@Base 0.9.1-3~
 _ZN5vmime8security4sasl20builtinSASLMechanismD0Ev@Base 0.9.1-3~
 _ZN5vmime8security4sasl20builtinSASLMechanismD1Ev@Base 0.9.1-3~
 _ZN5vmime8security4sasl20builtinSASLMechanismD2Ev@Base 0.9.1-3~
 _ZN5vmime8security4sasl24defaultSASLAuthenticator10setServiceENS_7utility3refINS_3net7serviceEEE@Base 0.9.1-3~
 _ZN5vmime8security4sasl24defaultSASLAuthenticator14setSASLSessionENS_7utility3refINS1_11SASLSessionEEE@Base 0.9.1-3~
 _ZN5vmime8security4sasl24defaultSASLAuthenticator16setSASLMechanismENS_7utility3refINS1_13SASLMechanismEEE@Base 0.9.1-3~
 _ZN5vmime8security4sasl24defaultSASLAuthenticatorC1Ev@Base 0.9.1-3~
 _ZN5vmime8security4sasl24defaultSASLAuthenticatorC2Ev@Base 0.9.1-3~
 _ZN5vmime8security4sasl24defaultSASLAuthenticatorD0Ev@Base 0.9.1-3~
 _ZN5vmime8security4sasl24defaultSASLAuthenticatorD1Ev@Base 0.9.1-3~
 _ZN5vmime8security4sasl24defaultSASLAuthenticatorD2Ev@Base 0.9.1-3~
 _ZN5vmime8security6digest20messageDigestFactory11getInstanceEv@Base 0.9.1-3~
 _ZN5vmime8security6digest20messageDigestFactory26digestAlgorithmFactoryImplINS1_3md516md5MessageDigestEED0Ev@Base 0.9.1-3~
 _ZN5vmime8security6digest20messageDigestFactory26digestAlgorithmFactoryImplINS1_3md516md5MessageDigestEED1Ev@Base 0.9.1-3~
 _ZN5vmime8security6digest20messageDigestFactory26digestAlgorithmFactoryImplINS1_3md516md5MessageDigestEED2Ev@Base 0.9.1-3~
 _ZN5vmime8security6digest20messageDigestFactory26digestAlgorithmFactoryImplINS1_4sha117sha1MessageDigestEED0Ev@Base 0.9.1-3~
 _ZN5vmime8security6digest20messageDigestFactory26digestAlgorithmFactoryImplINS1_4sha117sha1MessageDigestEED1Ev@Base 0.9.1-3~
 _ZN5vmime8security6digest20messageDigestFactory26digestAlgorithmFactoryImplINS1_4sha117sha1MessageDigestEED2Ev@Base 0.9.1-3~
 _ZN5vmime8security6digest20messageDigestFactory6createERKNSt7__cxx1112basic_stringIcSt11char_traitsIcESaIcEEE@Base 0.9.1-3~
 _ZN5vmime8security6digest20messageDigestFactoryC1Ev@Base 0.9.1-3~
 _ZN5vmime8security6digest20messageDigestFactoryC2Ev@Base 0.9.1-3~
 _ZN5vmime8security6digest20messageDigestFactoryD1Ev@Base 0.9.1-3~
 _ZN5vmime8security6digest20messageDigestFactoryD2Ev@Base 0.9.1-3~
 _ZN5vmime8security6digest3md516md5MessageDigest15transformHelperEv@Base 0.9.1-3~
 _ZN5vmime8security6digest3md516md5MessageDigest4initEv@Base 0.9.1-3~
 _ZN5vmime8security6digest3md516md5MessageDigest5resetEv@Base 0.9.1-3~
 _ZN5vmime8security6digest3md516md5MessageDigest6updateEPKhm@Base 0.9.1-3~
 _ZN5vmime8security6digest3md516md5MessageDigest6updateEPKhmm@Base 0.9.1-3~
 _ZN5vmime8security6digest3md516md5MessageDigest6updateERKNSt7__cxx1112basic_stringIcSt11char_traitsIcESaIcEEE@Base 0.9.1-3~
 _ZN5vmime8security6digest3md516md5MessageDigest6updateEh@Base 0.9.1-3~
 _ZN5vmime8security6digest3md516md5MessageDigest8finalizeEPKhm@Base 0.9.1-3~
 _ZN5vmime8security6digest3md516md5MessageDigest8finalizeEPKhmm@Base 0.9.1-3~
 _ZN5vmime8security6digest3md516md5MessageDigest8finalizeERKNSt7__cxx1112basic_stringIcSt11char_traitsIcESaIcEEE@Base 0.9.1-3~
 _ZN5vmime8security6digest3md516md5MessageDigest8finalizeEv@Base 0.9.1-3~
 _ZN5vmime8security6digest3md516md5MessageDigest9transformEv@Base 0.9.1-3~
 _ZN5vmime8security6digest3md516md5MessageDigestC1Ev@Base 0.9.1-3~
 _ZN5vmime8security6digest3md516md5MessageDigestC2Ev@Base 0.9.1-3~
 _ZN5vmime8security6digest3md516md5MessageDigestD0Ev@Base 0.9.1-3~
 _ZN5vmime8security6digest3md516md5MessageDigestD1Ev@Base 0.9.1-3~
 _ZN5vmime8security6digest3md516md5MessageDigestD2Ev@Base 0.9.1-3~
 _ZN5vmime8security6digest4sha117sha1MessageDigest4initEv@Base 0.9.1-3~
 _ZN5vmime8security6digest4sha117sha1MessageDigest5resetEv@Base 0.9.1-3~
 _ZN5vmime8security6digest4sha117sha1MessageDigest6updateEPKhm@Base 0.9.1-3~
 _ZN5vmime8security6digest4sha117sha1MessageDigest6updateEPKhmm@Base 0.9.1-3~
 _ZN5vmime8security6digest4sha117sha1MessageDigest6updateERKNSt7__cxx1112basic_stringIcSt11char_traitsIcESaIcEEE@Base 0.9.1-3~
 _ZN5vmime8security6digest4sha117sha1MessageDigest6updateEh@Base 0.9.1-3~
 _ZN5vmime8security6digest4sha117sha1MessageDigest8finalizeEPKhm@Base 0.9.1-3~
 _ZN5vmime8security6digest4sha117sha1MessageDigest8finalizeEPKhmm@Base 0.9.1-3~
 _ZN5vmime8security6digest4sha117sha1MessageDigest8finalizeERKNSt7__cxx1112basic_stringIcSt11char_traitsIcESaIcEEE@Base 0.9.1-3~
 _ZN5vmime8security6digest4sha117sha1MessageDigest8finalizeEv@Base 0.9.1-3~
 _ZN5vmime8security6digest4sha117sha1MessageDigest9transformEPjPKh@Base 0.9.1-3~
 _ZN5vmime8security6digest4sha117sha1MessageDigestC1Ev@Base 0.9.1-3~
 _ZN5vmime8security6digest4sha117sha1MessageDigestC2Ev@Base 0.9.1-3~
 _ZN5vmime8security6digest4sha117sha1MessageDigestD0Ev@Base 0.9.1-3~
 _ZN5vmime8security6digest4sha117sha1MessageDigestD1Ev@Base 0.9.1-3~
 _ZN5vmime8security6digest4sha117sha1MessageDigestD2Ev@Base 0.9.1-3~
 _ZN5vmime9NULL_TEXTE@Base 0.9.1-3~
 _ZN5vmime9NULL_WORDE@Base 0.9.1-3~
 _ZN5vmime9component15setParsedBoundsEmm@Base 0.9.1-3~
 _ZN5vmime9component18getChildComponentsEv@Base 0.9.1-3~
 _ZN5vmime9component5parseERKNSt7__cxx1112basic_stringIcSt11char_traitsIcESaIcEEE@Base 0.9.1-3~
 _ZN5vmime9componentC1Ev@Base 0.9.1-3~
 _ZN5vmime9componentC2Ev@Base 0.9.1-3~
 _ZN5vmime9componentD0Ev@Base 0.9.1-3~
 _ZN5vmime9componentD1Ev@Base 0.9.1-3~
 _ZN5vmime9componentD2Ev@Base 0.9.1-3~
 _ZN5vmime9exception12NO_EXCEPTIONE@Base 0.9.1-3~
 _ZN5vmime9exception4whatEv@Base 0.9.1-3~
 _ZN5vmime9exceptionC1ERKNSt7__cxx1112basic_stringIcSt11char_traitsIcESaIcEEERKS0_@Base 0.9.1-3~
 _ZN5vmime9exceptionC1ERKS0_@Base 0.9.1-3~
 _ZN5vmime9exceptionC1Ev@Base 0.9.1-3~
 _ZN5vmime9exceptionC2ERKNSt7__cxx1112basic_stringIcSt11char_traitsIcESaIcEEERKS0_@Base 0.9.1-3~
 _ZN5vmime9exceptionC2ERKS0_@Base 0.9.1-3~
 _ZN5vmime9exceptionC2Ev@Base 0.9.1-3~
 _ZN5vmime9exceptionD0Ev@Base 0.9.1-3~
 _ZN5vmime9exceptionD1Ev@Base 0.9.1-3~
 _ZN5vmime9exceptionD2Ev@Base 0.9.1-3~
 _ZN5vmime9mediaType10setSubTypeERKNSt7__cxx1112basic_stringIcSt11char_traitsIcESaIcEEE@Base 0.9.1-3~
 _ZN5vmime9mediaType13setFromStringERKNSt7__cxx1112basic_stringIcSt11char_traitsIcESaIcEEE@Base 0.9.1-3~
 _ZN5vmime9mediaType5parseERKNSt7__cxx1112basic_stringIcSt11char_traitsIcESaIcEEEmmPm@Base 0.9.1-3~
 _ZN5vmime9mediaType7setTypeERKNSt7__cxx1112basic_stringIcSt11char_traitsIcESaIcEEE@Base 0.9.1-3~
 _ZN5vmime9mediaType8copyFromERKNS_9componentE@Base 0.9.1-3~
 _ZN5vmime9mediaTypeC1ERKNSt7__cxx1112basic_stringIcSt11char_traitsIcESaIcEEE@Base 0.9.1-3~
 _ZN5vmime9mediaTypeC1ERKNSt7__cxx1112basic_stringIcSt11char_traitsIcESaIcEEES8_@Base 0.9.1-3~
 _ZN5vmime9mediaTypeC1Ev@Base 0.9.1-3~
 _ZN5vmime9mediaTypeC2ERKNSt7__cxx1112basic_stringIcSt11char_traitsIcESaIcEEE@Base 0.9.1-3~
 _ZN5vmime9mediaTypeC2ERKNSt7__cxx1112basic_stringIcSt11char_traitsIcESaIcEEES8_@Base 0.9.1-3~
 _ZN5vmime9mediaTypeC2Ev@Base 0.9.1-3~
 _ZN5vmime9mediaTypeD0Ev@Base 0.9.1-3~
 _ZN5vmime9mediaTypeD1Ev@Base 0.9.1-3~
 _ZN5vmime9mediaTypeD2Ev@Base 0.9.1-3~
 _ZN5vmime9mediaTypeaSERKNSt7__cxx1112basic_stringIcSt11char_traitsIcESaIcEEE@Base 0.9.1-3~
 _ZN5vmime9mediaTypeaSERKS0_@Base 0.9.1-3~
 _ZN5vmime9messageId10generateIdEv@Base 0.9.1-3~
 _ZN5vmime9messageId5parseERKNSt7__cxx1112basic_stringIcSt11char_traitsIcESaIcEEEmmPm@Base 0.9.1-3~
 _ZN5vmime9messageId7setLeftERKNSt7__cxx1112basic_stringIcSt11char_traitsIcESaIcEEE@Base 0.9.1-3~
 _ZN5vmime9messageId8copyFromERKNS_9componentE@Base 0.9.1-3~
 _ZN5vmime9messageId8setRightERKNSt7__cxx1112basic_stringIcSt11char_traitsIcESaIcEEE@Base 0.9.1-3~
 _ZN5vmime9messageId9parseNextERKNSt7__cxx1112basic_stringIcSt11char_traitsIcESaIcEEEmmPm@Base 0.9.1-3~
 _ZN5vmime9messageIdC1ERKNSt7__cxx1112basic_stringIcSt11char_traitsIcESaIcEEE@Base 0.9.1-3~
 _ZN5vmime9messageIdC1ERKNSt7__cxx1112basic_stringIcSt11char_traitsIcESaIcEEES8_@Base 0.9.1-3~
 _ZN5vmime9messageIdC1ERKS0_@Base 0.9.1-3~
 _ZN5vmime9messageIdC1Ev@Base 0.9.1-3~
 _ZN5vmime9messageIdC2ERKNSt7__cxx1112basic_stringIcSt11char_traitsIcESaIcEEE@Base 0.9.1-3~
 _ZN5vmime9messageIdC2ERKNSt7__cxx1112basic_stringIcSt11char_traitsIcESaIcEEES8_@Base 0.9.1-3~
 _ZN5vmime9messageIdC2ERKS0_@Base 0.9.1-3~
 _ZN5vmime9messageIdC2Ev@Base 0.9.1-3~
 _ZN5vmime9messageIdD0Ev@Base 0.9.1-3~
 _ZN5vmime9messageIdD1Ev@Base 0.9.1-3~
 _ZN5vmime9messageIdD2Ev@Base 0.9.1-3~
 _ZN5vmime9messageIdaSERKNSt7__cxx1112basic_stringIcSt11char_traitsIcESaIcEEE@Base 0.9.1-3~
 _ZN5vmime9messageIdaSERKS0_@Base 0.9.1-3~
 _ZN5vmime9parameter5parseERKNSt7__cxx1112basic_stringIcSt11char_traitsIcESaIcEEEmmPm@Base 0.9.1-3~
 _ZN5vmime9parameter5parseERKSt6vectorINS0_10valueChunkESaIS2_EE@Base 0.9.1-3~
 _ZN5vmime9parameter8copyFromERKNS_9componentE@Base 0.9.1-3~
 _ZN5vmime9parameter8setValueERKNS_4wordE@Base 0.9.1-3~
 _ZN5vmime9parameter8setValueERKNS_9componentE@Base 0.9.1-3~
 _ZN5vmime9parameterC1ERKNSt7__cxx1112basic_stringIcSt11char_traitsIcESaIcEEE@Base 0.9.1-3~
 _ZN5vmime9parameterC1ERKNSt7__cxx1112basic_stringIcSt11char_traitsIcESaIcEEERKNS_4wordE@Base 0.9.1-3~
 _ZN5vmime9parameterC1ERKNSt7__cxx1112basic_stringIcSt11char_traitsIcESaIcEEES8_@Base 0.9.1-3~
 _ZN5vmime9parameterC1ERKS0_@Base 0.9.1-3~
 _ZN5vmime9parameterC2ERKNSt7__cxx1112basic_stringIcSt11char_traitsIcESaIcEEE@Base 0.9.1-3~
 _ZN5vmime9parameterC2ERKNSt7__cxx1112basic_stringIcSt11char_traitsIcESaIcEEERKNS_4wordE@Base 0.9.1-3~
 _ZN5vmime9parameterC2ERKNSt7__cxx1112basic_stringIcSt11char_traitsIcESaIcEEES8_@Base 0.9.1-3~
 _ZN5vmime9parameterC2ERKS0_@Base 0.9.1-3~
 _ZN5vmime9parameterD0Ev@Base 0.9.1-3~
 _ZN5vmime9parameterD1Ev@Base 0.9.1-3~
 _ZN5vmime9parameterD2Ev@Base 0.9.1-3~
 _ZN5vmime9parameteraSERKS0_@Base 0.9.1-3~
 _ZN5vmime9platforms5posix11posixSocket10disconnectEv@Base 0.9.1-3~
 _ZN5vmime9platforms5posix11posixSocket10receiveRawEPci@Base 0.9.1-3~
 _ZN5vmime9platforms5posix11posixSocket16throwSocketErrorEi@Base 0.9.1-3~
 _ZN5vmime9platforms5posix11posixSocket4sendERKNSt7__cxx1112basic_stringIcSt11char_traitsIcESaIcEEE@Base 0.9.1-3~
 _ZN5vmime9platforms5posix11posixSocket7connectERKNSt7__cxx1112basic_stringIcSt11char_traitsIcESaIcEEEt@Base 0.9.1-3~
 _ZN5vmime9platforms5posix11posixSocket7receiveERNSt7__cxx1112basic_stringIcSt11char_traitsIcESaIcEEE@Base 0.9.1-3~
 _ZN5vmime9platforms5posix11posixSocket7sendRawEPKci@Base 0.9.1-3~
 _ZN5vmime9platforms5posix11posixSocketC1ENS_7utility3refINS_3net14timeoutHandlerEEE@Base 0.9.1-3~
 _ZN5vmime9platforms5posix11posixSocketC2ENS_7utility3refINS_3net14timeoutHandlerEEE@Base 0.9.1-3~
 _ZN5vmime9platforms5posix11posixSocketD0Ev@Base 0.9.1-3~
 _ZN5vmime9platforms5posix11posixSocketD1Ev@Base 0.9.1-3~
 _ZN5vmime9platforms5posix11posixSocketD2Ev@Base 0.9.1-3~
 _ZN5vmime9platforms5posix12posixHandler16getSocketFactoryEv@Base 0.9.1-3~
 _ZN5vmime9platforms5posix12posixHandler20getFileSystemFactoryEv@Base 0.9.1-3~
 _ZN5vmime9platforms5posix12posixHandler22getChildProcessFactoryEv@Base 0.9.1-3~
 _ZN5vmime9platforms5posix12posixHandlerC1Ev@Base 0.9.1-3~
 _ZN5vmime9platforms5posix12posixHandlerC2Ev@Base 0.9.1-3~
 _ZN5vmime9platforms5posix12posixHandlerD0Ev@Base 0.9.1-3~
 _ZN5vmime9platforms5posix12posixHandlerD1Ev@Base 0.9.1-3~
 _ZN5vmime9platforms5posix12posixHandlerD2Ev@Base 0.9.1-3~
 _ZN5vmime9platforms5posix15posixFileReader14getInputStreamEv@Base 0.9.1-3~
 _ZN5vmime9platforms5posix15posixFileReaderC1ERKNS_7utility4pathERKNSt7__cxx1112basic_stringIcSt11char_traitsIcESaIcEEE@Base 0.9.1-3~
 _ZN5vmime9platforms5posix15posixFileReaderC2ERKNS_7utility4pathERKNSt7__cxx1112basic_stringIcSt11char_traitsIcESaIcEEE@Base 0.9.1-3~
 _ZN5vmime9platforms5posix15posixFileReaderD0Ev@Base 0.9.1-3~
 _ZN5vmime9platforms5posix15posixFileReaderD1Ev@Base 0.9.1-3~
 _ZN5vmime9platforms5posix15posixFileReaderD2Ev@Base 0.9.1-3~
 _ZN5vmime9platforms5posix15posixFileWriter15getOutputStreamEv@Base 0.9.1-3~
 _ZN5vmime9platforms5posix15posixFileWriterC1ERKNS_7utility4pathERKNSt7__cxx1112basic_stringIcSt11char_traitsIcESaIcEEE@Base 0.9.1-3~
 _ZN5vmime9platforms5posix15posixFileWriterC2ERKNS_7utility4pathERKNSt7__cxx1112basic_stringIcSt11char_traitsIcESaIcEEE@Base 0.9.1-3~
 _ZN5vmime9platforms5posix15posixFileWriterD0Ev@Base 0.9.1-3~
 _ZN5vmime9platforms5posix15posixFileWriterD1Ev@Base 0.9.1-3~
 _ZN5vmime9platforms5posix15posixFileWriterD2Ev@Base 0.9.1-3~
 _ZN5vmime9platforms5posix17posixChildProcess13waitForFinishEv@Base 0.9.1-3~
 _ZN5vmime9platforms5posix17posixChildProcess5startESt6vectorINSt7__cxx1112basic_stringIcSt11char_traitsIcESaIcEEESaIS9_EEi@Base 0.9.1-3~
 _ZN5vmime9platforms5posix17posixChildProcess8getStdInEv@Base 0.9.1-3~
 _ZN5vmime9platforms5posix17posixChildProcess9getStdOutEv@Base 0.9.1-3~
 _ZN5vmime9platforms5posix17posixChildProcessC1ERKNS_7utility4pathE@Base 0.9.1-3~
 _ZN5vmime9platforms5posix17posixChildProcessC2ERKNS_7utility4pathE@Base 0.9.1-3~
 _ZN5vmime9platforms5posix17posixChildProcessD0Ev@Base 0.9.1-3~
 _ZN5vmime9platforms5posix17posixChildProcessD1Ev@Base 0.9.1-3~
 _ZN5vmime9platforms5posix17posixChildProcessD2Ev@Base 0.9.1-3~
 _ZN5vmime9platforms5posix17posixFileIterator11nextElementEv@Base 0.9.1-3~
 _ZN5vmime9platforms5posix17posixFileIterator14getNextElementEv@Base 0.9.1-3~
 _ZN5vmime9platforms5posix17posixFileIteratorC1ERKNS_7utility4pathERKNSt7__cxx1112basic_stringIcSt11char_traitsIcESaIcEEE@Base 0.9.1-3~
 _ZN5vmime9platforms5posix17posixFileIteratorC2ERKNS_7utility4pathERKNSt7__cxx1112basic_stringIcSt11char_traitsIcESaIcEEE@Base 0.9.1-3~
 _ZN5vmime9platforms5posix17posixFileIteratorD0Ev@Base 0.9.1-3~
 _ZN5vmime9platforms5posix17posixFileIteratorD1Ev@Base 0.9.1-3~
 _ZN5vmime9platforms5posix17posixFileIteratorD2Ev@Base 0.9.1-3~
 _ZN5vmime9platforms5posix18posixSocketFactory6createENS_7utility3refINS_3net14timeoutHandlerEEE@Base 0.9.1-3~
 _ZN5vmime9platforms5posix18posixSocketFactory6createEv@Base 0.9.1-3~
 _ZN5vmime9platforms5posix18posixSocketFactoryD0Ev@Base 0.9.1-3~
 _ZN5vmime9platforms5posix18posixSocketFactoryD1Ev@Base 0.9.1-3~
 _ZN5vmime9platforms5posix18posixSocketFactoryD2Ev@Base 0.9.1-3~
 _ZN5vmime9platforms5posix22posixFileSystemFactory11reportErrorERKNS_7utility4pathEi@Base 0.9.1-3~
 _ZN5vmime9platforms5posix22posixFileSystemFactory16pathToStringImplB5cxx11ERKNS_7utility4pathE@Base 0.9.1-3~
 _ZN5vmime9platforms5posix22posixFileSystemFactory16stringToPathImplERKNSt7__cxx1112basic_stringIcSt11char_traitsIcESaIcEEE@Base 0.9.1-3~
 _ZN5vmime9platforms5posix22posixFileSystemFactoryD0Ev@Base 0.9.1-3~
 _ZN5vmime9platforms5posix22posixFileSystemFactoryD1Ev@Base 0.9.1-3~
 _ZN5vmime9platforms5posix22posixFileSystemFactoryD2Ev@Base 0.9.1-3~
 _ZN5vmime9platforms5posix24posixChildProcessFactoryD0Ev@Base 0.9.1-3~
 _ZN5vmime9platforms5posix24posixChildProcessFactoryD1Ev@Base 0.9.1-3~
 _ZN5vmime9platforms5posix24posixChildProcessFactoryD2Ev@Base 0.9.1-3~
 _ZN5vmime9platforms5posix26posixFileReaderInputStream4readEPcm@Base 0.9.1-3~
 _ZN5vmime9platforms5posix26posixFileReaderInputStream4skipEm@Base 0.9.1-3~
 _ZN5vmime9platforms5posix26posixFileReaderInputStream5resetEv@Base 0.9.1-3~
 _ZN5vmime9platforms5posix26posixFileReaderInputStreamC1ERKNS_7utility4pathEi@Base 0.9.1-3~
 _ZN5vmime9platforms5posix26posixFileReaderInputStreamC2ERKNS_7utility4pathEi@Base 0.9.1-3~
 _ZN5vmime9platforms5posix26posixFileReaderInputStreamD0Ev@Base 0.9.1-3~
 _ZN5vmime9platforms5posix26posixFileReaderInputStreamD1Ev@Base 0.9.1-3~
 _ZN5vmime9platforms5posix26posixFileReaderInputStreamD2Ev@Base 0.9.1-3~
 _ZN5vmime9platforms5posix27inputStreamPosixPipeAdapter4readEPcm@Base 0.9.1-3~
 _ZN5vmime9platforms5posix27inputStreamPosixPipeAdapter4skipEm@Base 0.9.1-3~
 _ZN5vmime9platforms5posix27inputStreamPosixPipeAdapter5resetEv@Base 0.9.1-3~
 _ZN5vmime9platforms5posix27inputStreamPosixPipeAdapterD0Ev@Base 0.9.1-3~
 _ZN5vmime9platforms5posix27inputStreamPosixPipeAdapterD1Ev@Base 0.9.1-3~
 _ZN5vmime9platforms5posix27inputStreamPosixPipeAdapterD2Ev@Base 0.9.1-3~
 _ZN5vmime9platforms5posix27posixFileWriterOutputStream5flushEv@Base 0.9.1-3~
 _ZN5vmime9platforms5posix27posixFileWriterOutputStream5writeEPKcm@Base 0.9.1-3~
 _ZN5vmime9platforms5posix27posixFileWriterOutputStreamC1ERKNS_7utility4pathEi@Base 0.9.1-3~
 _ZN5vmime9platforms5posix27posixFileWriterOutputStreamC2ERKNS_7utility4pathEi@Base 0.9.1-3~
 _ZN5vmime9platforms5posix27posixFileWriterOutputStreamD0Ev@Base 0.9.1-3~
 _ZN5vmime9platforms5posix27posixFileWriterOutputStreamD1Ev@Base 0.9.1-3~
 _ZN5vmime9platforms5posix27posixFileWriterOutputStreamD2Ev@Base 0.9.1-3~
 _ZN5vmime9platforms5posix28outputStreamPosixPipeAdapter5flushEv@Base 0.9.1-3~
 _ZN5vmime9platforms5posix28outputStreamPosixPipeAdapter5writeEPKcm@Base 0.9.1-3~
 _ZN5vmime9platforms5posix28outputStreamPosixPipeAdapterD0Ev@Base 0.9.1-3~
 _ZN5vmime9platforms5posix28outputStreamPosixPipeAdapterD1Ev@Base 0.9.1-3~
 _ZN5vmime9platforms5posix28outputStreamPosixPipeAdapterD2Ev@Base 0.9.1-3~
 _ZN5vmime9platforms5posix9posixFile10createFileEv@Base 0.9.1-3~
 _ZN5vmime9platforms5posix9posixFile13getFileReaderEv@Base 0.9.1-3~
 _ZN5vmime9platforms5posix9posixFile13getFileWriterEv@Base 0.9.1-3~
 _ZN5vmime9platforms5posix9posixFile15createDirectoryEb@Base 0.9.1-3~
 _ZN5vmime9platforms5posix9posixFile19createDirectoryImplERKNS_7utility4pathES6_b@Base 0.9.1-3~
 _ZN5vmime9platforms5posix9posixFile6removeEv@Base 0.9.1-3~
 _ZN5vmime9platforms5posix9posixFile6renameERKNS_7utility4pathE@Base 0.9.1-3~
 _ZN5vmime9platforms5posix9posixFile9getLengthEv@Base 0.9.1-3~
 _ZN5vmime9platforms5posix9posixFileC1ERKNS_7utility4pathE@Base 0.9.1-3~
 _ZN5vmime9platforms5posix9posixFileC2ERKNS_7utility4pathE@Base 0.9.1-3~
 _ZN5vmime9platforms5posix9posixFileD0Ev@Base 0.9.1-3~
 _ZN5vmime9platforms5posix9posixFileD1Ev@Base 0.9.1-3~
 _ZN5vmime9platforms5posix9posixFileD2Ev@Base 0.9.1-3~
 _ZNK5vmime10exceptions12no_expeditor4nameEv@Base 0.9.1-3~
 _ZNK5vmime10exceptions12no_expeditor5cloneEv@Base 0.9.1-3~
 _ZNK5vmime10exceptions12no_recipient4nameEv@Base 0.9.1-3~
 _ZNK5vmime10exceptions12no_recipient5cloneEv@Base 0.9.1-3~
 _ZNK5vmime10exceptions12no_such_part4nameEv@Base 0.9.1-3~
 _ZNK5vmime10exceptions12no_such_part5cloneEv@Base 0.9.1-3~
 _ZNK5vmime10exceptions12system_error4nameEv@Base 0.9.1-3~
 _ZNK5vmime10exceptions12system_error5cloneEv@Base 0.9.1-3~
 _ZNK5vmime10exceptions13command_error4nameEv@Base 0.9.1-3~
 _ZNK5vmime10exceptions13command_error5cloneEv@Base 0.9.1-3~
 _ZNK5vmime10exceptions13command_error7commandB5cxx11Ev@Base 0.9.1-3~
 _ZNK5vmime10exceptions13command_error8responseB5cxx11Ev@Base 0.9.1-3~
 _ZNK5vmime10exceptions13illegal_state4nameEv@Base 0.9.1-3~
 _ZNK5vmime10exceptions13illegal_state5cloneEv@Base 0.9.1-3~
 _ZNK5vmime10exceptions13malformed_url4nameEv@Base 0.9.1-3~
 _ZNK5vmime10exceptions13malformed_url5cloneEv@Base 0.9.1-3~
 _ZNK5vmime10exceptions13net_exception4nameEv@Base 0.9.1-3~
 _ZNK5vmime10exceptions13net_exception5cloneEv@Base 0.9.1-3~
 _ZNK5vmime10exceptions13no_such_field4nameEv@Base 0.9.1-3~
 _ZNK5vmime10exceptions13no_such_field5cloneEv@Base 0.9.1-3~
 _ZNK5vmime10exceptions13not_connected4nameEv@Base 0.9.1-3~
 _ZNK5vmime10exceptions13not_connected5cloneEv@Base 0.9.1-3~
 _ZNK5vmime10exceptions13tls_exception4nameEv@Base 0.9.1-3~
 _ZNK5vmime10exceptions13tls_exception5cloneEv@Base 0.9.1-3~
 _ZNK5vmime10exceptions14bad_field_type4nameEv@Base 0.9.1-3~
 _ZNK5vmime10exceptions14bad_field_type5cloneEv@Base 0.9.1-3~
 _ZNK5vmime10exceptions14file_not_found4nameEv@Base 0.9.1-3~
 _ZNK5vmime10exceptions14file_not_found5cloneEv@Base 0.9.1-3~
 _ZNK5vmime10exceptions14sasl_exception4nameEv@Base 0.9.1-3~
 _ZNK5vmime10exceptions14sasl_exception5cloneEv@Base 0.9.1-3~
 _ZNK5vmime10exceptions15no_object_found4nameEv@Base 0.9.1-3~
 _ZNK5vmime10exceptions15no_object_found5cloneEv@Base 0.9.1-3~
 _ZNK5vmime10exceptions15no_such_address4nameEv@Base 0.9.1-3~
 _ZNK5vmime10exceptions15no_such_address5cloneEv@Base 0.9.1-3~
 _ZNK5vmime10exceptions15no_such_mailbox4nameEv@Base 0.9.1-3~
 _ZNK5vmime10exceptions15no_such_mailbox5cloneEv@Base 0.9.1-3~
 _ZNK5vmime10exceptions15not_a_directory4nameEv@Base 0.9.1-3~
 _ZNK5vmime10exceptions15not_a_directory5cloneEv@Base 0.9.1-3~
 _ZNK5vmime10exceptions15open_file_error4nameEv@Base 0.9.1-3~
 _ZNK5vmime10exceptions15open_file_error5cloneEv@Base 0.9.1-3~
 _ZNK5vmime10exceptions16connection_error4nameEv@Base 0.9.1-3~
 _ZNK5vmime10exceptions16connection_error5cloneEv@Base 0.9.1-3~
 _ZNK5vmime10exceptions16folder_not_found4nameEv@Base 0.9.1-3~
 _ZNK5vmime10exceptions16folder_not_found5cloneEv@Base 0.9.1-3~
 _ZNK5vmime10exceptions16invalid_argument4nameEv@Base 0.9.1-3~
 _ZNK5vmime10exceptions16invalid_argument5cloneEv@Base 0.9.1-3~
 _ZNK5vmime10exceptions16invalid_response4nameEv@Base 0.9.1-3~
 _ZNK5vmime10exceptions16invalid_response5cloneEv@Base 0.9.1-3~
 _ZNK5vmime10exceptions16invalid_response7commandB5cxx11Ev@Base 0.9.1-3~
 _ZNK5vmime10exceptions16invalid_response8responseB5cxx11Ev@Base 0.9.1-3~
 _ZNK5vmime10exceptions16no_such_property4nameEv@Base 0.9.1-3~
 _ZNK5vmime10exceptions16no_such_property5cloneEv@Base 0.9.1-3~
 _ZNK5vmime10exceptions16socket_exception4nameEv@Base 0.9.1-3~
 _ZNK5vmime10exceptions16socket_exception5cloneEv@Base 0.9.1-3~
 _ZNK5vmime10exceptions16unfetched_object4nameEv@Base 0.9.1-3~
 _ZNK5vmime10exceptions16unfetched_object5cloneEv@Base 0.9.1-3~
 _ZNK5vmime10exceptions17already_connected4nameEv@Base 0.9.1-3~
 _ZNK5vmime10exceptions17already_connected5cloneEv@Base 0.9.1-3~
 _ZNK5vmime10exceptions17illegal_operation4nameEv@Base 0.9.1-3~
 _ZNK5vmime10exceptions17illegal_operation5cloneEv@Base 0.9.1-3~
 _ZNK5vmime10exceptions17message_not_found4nameEv@Base 0.9.1-3~
 _ZNK5vmime10exceptions17message_not_found5cloneEv@Base 0.9.1-3~
 _ZNK5vmime10exceptions17no_such_mechanism4nameEv@Base 0.9.1-3~
 _ZNK5vmime10exceptions17no_such_mechanism5cloneEv@Base 0.9.1-3~
 _ZNK5vmime10exceptions17no_such_parameter4nameEv@Base 0.9.1-3~
 _ZNK5vmime10exceptions17no_such_parameter5cloneEv@Base 0.9.1-3~
 _ZNK5vmime10exceptions18charset_conv_error4nameEv@Base 0.9.1-3~
 _ZNK5vmime10exceptions18charset_conv_error5cloneEv@Base 0.9.1-3~
 _ZNK5vmime10exceptions18no_such_message_id4nameEv@Base 0.9.1-3~
 _ZNK5vmime10exceptions18no_such_message_id5cloneEv@Base 0.9.1-3~
 _ZNK5vmime10exceptions18unsupported_option4nameEv@Base 0.9.1-3~
 _ZNK5vmime10exceptions18unsupported_option5cloneEv@Base 0.9.1-3~
 _ZNK5vmime10exceptions19invalid_folder_name4nameEv@Base 0.9.1-3~
 _ZNK5vmime10exceptions19invalid_folder_name5cloneEv@Base 0.9.1-3~
 _ZNK5vmime10exceptions19no_auth_information4nameEv@Base 0.9.1-3~
 _ZNK5vmime10exceptions19no_auth_information5cloneEv@Base 0.9.1-3~
 _ZNK5vmime10exceptions19no_platform_handler4nameEv@Base 0.9.1-3~
 _ZNK5vmime10exceptions19no_platform_handler5cloneEv@Base 0.9.1-3~
 _ZNK5vmime10exceptions19operation_cancelled4nameEv@Base 0.9.1-3~
 _ZNK5vmime10exceptions19operation_cancelled5cloneEv@Base 0.9.1-3~
 _ZNK5vmime10exceptions19operation_timed_out4nameEv@Base 0.9.1-3~
 _ZNK5vmime10exceptions19operation_timed_out5cloneEv@Base 0.9.1-3~
 _ZNK5vmime10exceptions20authentication_error4nameEv@Base 0.9.1-3~
 _ZNK5vmime10exceptions20authentication_error5cloneEv@Base 0.9.1-3~
 _ZNK5vmime10exceptions20authentication_error8responseB5cxx11Ev@Base 0.9.1-3~
 _ZNK5vmime10exceptions20filesystem_exception4nameEv@Base 0.9.1-3~
 _ZNK5vmime10exceptions20filesystem_exception4pathEv@Base 0.9.1-3~
 _ZNK5vmime10exceptions20filesystem_exception5cloneEv@Base 0.9.1-3~
 _ZNK5vmime10exceptions20no_encoder_available4nameEv@Base 0.9.1-3~
 _ZNK5vmime10exceptions20no_encoder_available5cloneEv@Base 0.9.1-3~
 _ZNK5vmime10exceptions20no_factory_available4nameEv@Base 0.9.1-3~
 _ZNK5vmime10exceptions20no_factory_available5cloneEv@Base 0.9.1-3~
 _ZNK5vmime10exceptions20no_service_available4nameEv@Base 0.9.1-3~
 _ZNK5vmime10exceptions20no_service_available5cloneEv@Base 0.9.1-3~
 _ZNK5vmime10exceptions21certificate_exception4nameEv@Base 0.9.1-3~
 _ZNK5vmime10exceptions21certificate_exception5cloneEv@Base 0.9.1-3~
 _ZNK5vmime10exceptions21invalid_property_type4nameEv@Base 0.9.1-3~
 _ZNK5vmime10exceptions21invalid_property_type5cloneEv@Base 0.9.1-3~
 _ZNK5vmime10exceptions23operation_not_supported4nameEv@Base 0.9.1-3~
 _ZNK5vmime10exceptions23operation_not_supported5cloneEv@Base 0.9.1-3~
 _ZNK5vmime10exceptions24authentication_exception4nameEv@Base 0.9.1-3~
 _ZNK5vmime10exceptions24authentication_exception5cloneEv@Base 0.9.1-3~
 _ZNK5vmime10exceptions25connection_greeting_error4nameEv@Base 0.9.1-3~
 _ZNK5vmime10exceptions25connection_greeting_error5cloneEv@Base 0.9.1-3~
 _ZNK5vmime10exceptions25connection_greeting_error8responseB5cxx11Ev@Base 0.9.1-3~
 _ZNK5vmime10exceptions27partial_fetch_not_supported4nameEv@Base 0.9.1-3~
 _ZNK5vmime10exceptions27partial_fetch_not_supported5cloneEv@Base 0.9.1-3~
 _ZNK5vmime10exceptions28unsupported_certificate_type4nameEv@Base 0.9.1-3~
 _ZNK5vmime10exceptions28unsupported_certificate_type5cloneEv@Base 0.9.1-3~
 _ZNK5vmime10exceptions29no_digest_algorithm_available4nameEv@Base 0.9.1-3~
 _ZNK5vmime10exceptions29no_digest_algorithm_available5cloneEv@Base 0.9.1-3~
 _ZNK5vmime10exceptions34certificate_verification_exception4nameEv@Base 0.9.1-3~
 _ZNK5vmime10exceptions34certificate_verification_exception5cloneEv@Base 0.9.1-3~
 _ZNK5vmime11addressList12getAddressAtEi@Base 0.9.1-3~
 _ZNK5vmime11addressList13toMailboxListEv@Base 0.9.1-3~
 _ZNK5vmime11addressList14getAddressListEv@Base 0.9.1-3~
 _ZNK5vmime11addressList15getAddressCountEv@Base 0.9.1-3~
 _ZNK5vmime11addressList18getChildComponentsEv@Base 0.9.1-3~
 _ZNK5vmime11addressList5cloneEv@Base 0.9.1-3~
 _ZNK5vmime11addressList7isEmptyEv@Base 0.9.1-3~
 _ZNK5vmime11addressList8generateERNS_7utility12outputStreamEmmPm@Base 0.9.1-3~
 _ZNK5vmime11disposition11hasModifierERKNSt7__cxx1112basic_stringIcSt11char_traitsIcESaIcEEE@Base 0.9.1-3~
 _ZNK5vmime11disposition13getActionModeB5cxx11Ev@Base 0.9.1-3~
 _ZNK5vmime11disposition14getSendingModeB5cxx11Ev@Base 0.9.1-3~
 _ZNK5vmime11disposition15getModifierListB5cxx11Ev@Base 0.9.1-3~
 _ZNK5vmime11disposition18getChildComponentsEv@Base 0.9.1-3~
 _ZNK5vmime11disposition5cloneEv@Base 0.9.1-3~
 _ZNK5vmime11disposition7getTypeB5cxx11Ev@Base 0.9.1-3~
 _ZNK5vmime11disposition8generateERNS_7utility12outputStreamEmmPm@Base 0.9.1-3~
 _ZNK5vmime11headerField18getChildComponentsEv@Base 0.9.1-3~
 _ZNK5vmime11headerField5cloneEv@Base 0.9.1-3~
 _ZNK5vmime11headerField7getNameB5cxx11Ev@Base 0.9.1-3~
 _ZNK5vmime11headerField8generateERNS_7utility12outputStreamEmmPm@Base 0.9.1-3~
 _ZNK5vmime11headerField8getValueEv@Base 0.9.1-3~
 _ZNK5vmime11headerField8isCustomEv@Base 0.9.1-3~
 _ZNK5vmime11mailboxList12getMailboxAtEi@Base 0.9.1-3~
 _ZNK5vmime11mailboxList13toAddressListEv@Base 0.9.1-3~
 _ZNK5vmime11mailboxList14getMailboxListEv@Base 0.9.1-3~
 _ZNK5vmime11mailboxList15getMailboxCountEv@Base 0.9.1-3~
 _ZNK5vmime11mailboxList18getChildComponentsEv@Base 0.9.1-3~
 _ZNK5vmime11mailboxList5cloneEv@Base 0.9.1-3~
 _ZNK5vmime11mailboxList7isEmptyEv@Base 0.9.1-3~
 _ZNK5vmime11mailboxList8generateERNS_7utility12outputStreamEmmPm@Base 0.9.1-3~
 _ZNK5vmime11propertySet11hasPropertyERKNSt7__cxx1112basic_stringIcSt11char_traitsIcESaIcEEE@Base 0.9.1-3~
 _ZNK5vmime11propertySet15getPropertyListEv@Base 0.9.1-3~
 _ZNK5vmime11propertySet4findERKNSt7__cxx1112basic_stringIcSt11char_traitsIcESaIcEEE@Base 0.9.1-3~
 _ZNK5vmime11propertySet8property7getNameB5cxx11Ev@Base 0.9.1-3~
 _ZNK5vmime11propertySet8property8getValueB5cxx11Ev@Base 0.9.1-3~
 _ZNK5vmime11propertySet8property8getValueINSt7__cxx1112basic_stringIcSt11char_traitsIcESaIcEEEEET_v@Base 0.9.1-3~
 _ZNK5vmime11propertySet8property8getValueIbEET_v@Base 0.9.1-3~
 _ZNK5vmime11propertySet8property8getValueItEET_v@Base 0.9.1-3~
 _ZNK5vmime11propertySetixERKNSt7__cxx1112basic_stringIcSt11char_traitsIcESaIcEEE@Base 0.9.1-3~
 _ZNK5vmime11wordEncoder11getEncodingEv@Base 0.9.1-3~
 _ZNK5vmime12htmlTextPart10findObjectERKNSt7__cxx1112basic_stringIcSt11char_traitsIcESaIcEEE@Base 0.9.1-3~
 _ZNK5vmime12htmlTextPart10generateInENS_7utility3refINS_8bodyPartEEES4_@Base 0.9.1-3~
 _ZNK5vmime12htmlTextPart10getCharsetEv@Base 0.9.1-3~
 _ZNK5vmime12htmlTextPart11getObjectAtEi@Base 0.9.1-3~
 _ZNK5vmime12htmlTextPart12getPartCountEv@Base 0.9.1-3~
 _ZNK5vmime12htmlTextPart12getPlainTextEv@Base 0.9.1-3~
 _ZNK5vmime12htmlTextPart14embeddedObject11getEncodingEv@Base 0.9.1-3~
 _ZNK5vmime12htmlTextPart14embeddedObject5getIdB5cxx11Ev@Base 0.9.1-3~
 _ZNK5vmime12htmlTextPart14embeddedObject7getDataEv@Base 0.9.1-3~
 _ZNK5vmime12htmlTextPart14embeddedObject7getTypeEv@Base 0.9.1-3~
 _ZNK5vmime12htmlTextPart14getObjectCountEv@Base 0.9.1-3~
 _ZNK5vmime12htmlTextPart7getTextEv@Base 0.9.1-3~
 _ZNK5vmime12htmlTextPart7getTypeEv@Base 0.9.1-3~
 _ZNK5vmime12htmlTextPart9hasObjectERKNSt7__cxx1112basic_stringIcSt11char_traitsIcESaIcEEE@Base 0.9.1-3~
 _ZNK5vmime12mailboxGroup12getMailboxAtEi@Base 0.9.1-3~
 _ZNK5vmime12mailboxGroup14getMailboxListEv@Base 0.9.1-3~
 _ZNK5vmime12mailboxGroup15getMailboxCountEv@Base 0.9.1-3~
 _ZNK5vmime12mailboxGroup18getChildComponentsEv@Base 0.9.1-3~
 _ZNK5vmime12mailboxGroup5cloneEv@Base 0.9.1-3~
 _ZNK5vmime12mailboxGroup7getNameEv@Base 0.9.1-3~
 _ZNK5vmime12mailboxGroup7isEmptyEv@Base 0.9.1-3~
 _ZNK5vmime12mailboxGroup7isGroupEv@Base 0.9.1-3~
 _ZNK5vmime12mailboxGroup8generateERNS_7utility12outputStreamEmmPm@Base 0.9.1-3~
 _ZNK5vmime13messageParser10getSubjectEv@Base 0.9.1-3~
 _ZNK5vmime13messageParser12getExpeditorEv@Base 0.9.1-3~
 _ZNK5vmime13messageParser13getRecipientsEv@Base 0.9.1-3~
 _ZNK5vmime13messageParser13getTextPartAtEi@Base 0.9.1-3~
 _ZNK5vmime13messageParser15getAttachmentAtEi@Base 0.9.1-3~
 _ZNK5vmime13messageParser15getTextPartListEv@Base 0.9.1-3~
 _ZNK5vmime13messageParser16getTextPartCountEv@Base 0.9.1-3~
 _ZNK5vmime13messageParser17getAttachmentListEv@Base 0.9.1-3~
 _ZNK5vmime13messageParser17getCopyRecipientsEv@Base 0.9.1-3~
 _ZNK5vmime13messageParser18getAttachmentCountEv@Base 0.9.1-3~
 _ZNK5vmime13messageParser22getBlindCopyRecipientsEv@Base 0.9.1-3~
 _ZNK5vmime13messageParser7getDateEv@Base 0.9.1-3~
 _ZNK5vmime13plainTextPart10generateInENS_7utility3refINS_8bodyPartEEES4_@Base 0.9.1-3~
 _ZNK5vmime13plainTextPart10getCharsetEv@Base 0.9.1-3~
 _ZNK5vmime13plainTextPart12getPartCountEv@Base 0.9.1-3~
 _ZNK5vmime13plainTextPart7getTextEv@Base 0.9.1-3~
 _ZNK5vmime13plainTextPart7getTypeEv@Base 0.9.1-3~
 _ZNK5vmime14fileAttachment11getFileInfoEv@Base 0.9.1-3~
 _ZNK5vmime14fileAttachment12generatePartENS_7utility3refINS_8bodyPartEEE@Base 0.9.1-3~
 _ZNK5vmime14fileAttachment8fileInfo11getFilenameEv@Base 0.9.1-3~
 _ZNK5vmime14fileAttachment8fileInfo11getReadDateEv@Base 0.9.1-3~
 _ZNK5vmime14fileAttachment8fileInfo11hasFilenameEv@Base 0.9.1-3~
 _ZNK5vmime14fileAttachment8fileInfo11hasReadDateEv@Base 0.9.1-3~
 _ZNK5vmime14fileAttachment8fileInfo15getCreationDateEv@Base 0.9.1-3~
 _ZNK5vmime14fileAttachment8fileInfo15hasCreationDateEv@Base 0.9.1-3~
 _ZNK5vmime14fileAttachment8fileInfo19getModificationDateEv@Base 0.9.1-3~
 _ZNK5vmime14fileAttachment8fileInfo19hasModificationDateEv@Base 0.9.1-3~
 _ZNK5vmime14fileAttachment8fileInfo7getSizeEv@Base 0.9.1-3~
 _ZNK5vmime14fileAttachment8fileInfo7hasSizeEv@Base 0.9.1-3~
 _ZNK5vmime14messageBuilder10getSubjectEv@Base 0.9.1-3~
 _ZNK5vmime14messageBuilder12getExpeditorEv@Base 0.9.1-3~
 _ZNK5vmime14messageBuilder13getRecipientsEv@Base 0.9.1-3~
 _ZNK5vmime14messageBuilder15getAttachmentAtEi@Base 0.9.1-3~
 _ZNK5vmime14messageBuilder17getAttachmentListEv@Base 0.9.1-3~
 _ZNK5vmime14messageBuilder17getCopyRecipientsEv@Base 0.9.1-3~
 _ZNK5vmime14messageBuilder18getAttachmentCountEv@Base 0.9.1-3~
 _ZNK5vmime14messageBuilder22getBlindCopyRecipientsEv@Base 0.9.1-3~
 _ZNK5vmime14messageBuilder9constructEv@Base 0.9.1-3~
 _ZNK5vmime16contentTypeField10getCharsetEv@Base 0.9.1-3~
 _ZNK5vmime16contentTypeField11getBoundaryB5cxx11Ev@Base 0.9.1-3~
 _ZNK5vmime16contentTypeField13getReportTypeB5cxx11Ev@Base 0.9.1-3~
 _ZNK5vmime17defaultAttachment10generateInENS_7utility3refINS_8bodyPartEEE@Base 0.9.1-3~
 _ZNK5vmime17defaultAttachment11getEncodingEv@Base 0.9.1-3~
 _ZNK5vmime17defaultAttachment12generatePartENS_7utility3refINS_8bodyPartEEE@Base 0.9.1-3~
 _ZNK5vmime17defaultAttachment14getDescriptionEv@Base 0.9.1-3~
 _ZNK5vmime17defaultAttachment7getDataEv@Base 0.9.1-3~
 _ZNK5vmime17defaultAttachment7getNameEv@Base 0.9.1-3~
 _ZNK5vmime17defaultAttachment7getPartEv@Base 0.9.1-3~
 _ZNK5vmime17defaultAttachment7getTypeEv@Base 0.9.1-3~
 _ZNK5vmime17defaultAttachment9getHeaderEv@Base 0.9.1-3~
 _ZNK5vmime17messageIdSequence14getMessageIdAtEi@Base 0.9.1-3~
 _ZNK5vmime17messageIdSequence16getMessageIdListEv@Base 0.9.1-3~
 _ZNK5vmime17messageIdSequence17getMessageIdCountEv@Base 0.9.1-3~
 _ZNK5vmime17messageIdSequence18getChildComponentsEv@Base 0.9.1-3~
 _ZNK5vmime17messageIdSequence5cloneEv@Base 0.9.1-3~
 _ZNK5vmime17messageIdSequence7isEmptyEv@Base 0.9.1-3~
 _ZNK5vmime17messageIdSequence8generateERNS_7utility12outputStreamEmmPm@Base 0.9.1-3~
 _ZNK5vmime18bodyPartAttachment10generateInENS_7utility3refINS_8bodyPartEEE@Base 0.9.1-3~
 _ZNK5vmime18bodyPartAttachment11getEncodingEv@Base 0.9.1-3~
 _ZNK5vmime18bodyPartAttachment14getContentTypeEv@Base 0.9.1-3~
 _ZNK5vmime18bodyPartAttachment14getDescriptionEv@Base 0.9.1-3~
 _ZNK5vmime18bodyPartAttachment21getContentDispositionEv@Base 0.9.1-3~
 _ZNK5vmime18bodyPartAttachment7getDataEv@Base 0.9.1-3~
 _ZNK5vmime18bodyPartAttachment7getNameEv@Base 0.9.1-3~
 _ZNK5vmime18bodyPartAttachment7getPartEv@Base 0.9.1-3~
 _ZNK5vmime18bodyPartAttachment7getTypeEv@Base 0.9.1-3~
 _ZNK5vmime18bodyPartAttachment9getHeaderEv@Base 0.9.1-3~
 _ZNK5vmime18contentDisposition18getChildComponentsEv@Base 0.9.1-3~
 _ZNK5vmime18contentDisposition5cloneEv@Base 0.9.1-3~
 _ZNK5vmime18contentDisposition7getNameB5cxx11Ev@Base 0.9.1-3~
 _ZNK5vmime18contentDisposition8generateERNS_7utility12outputStreamEmmPm@Base 0.9.1-3~
 _ZNK5vmime18contentDispositioneqERKS0_@Base 0.9.1-3~
 _ZNK5vmime18contentDispositionneERKS0_@Base 0.9.1-3~
 _ZNK5vmime19emptyContentHandler10extractRawERNS_7utility12outputStreamEPNS1_16progressListenerE@Base 0.9.1-3~
 _ZNK5vmime19emptyContentHandler10isBufferedEv@Base 0.9.1-3~
 _ZNK5vmime19emptyContentHandler11getEncodingEv@Base 0.9.1-3~
 _ZNK5vmime19emptyContentHandler5cloneEv@Base 0.9.1-3~
 _ZNK5vmime19emptyContentHandler7extractERNS_7utility12outputStreamEPNS1_16progressListenerE@Base 0.9.1-3~
 _ZNK5vmime19emptyContentHandler7isEmptyEv@Base 0.9.1-3~
 _ZNK5vmime19emptyContentHandler8generateERNS_7utility12outputStreamERKNS_8encodingEm@Base 0.9.1-3~
 _ZNK5vmime19emptyContentHandler9getLengthEv@Base 0.9.1-3~
 _ZNK5vmime19emptyContentHandler9isEncodedEv@Base 0.9.1-3~
 _ZNK5vmime20streamContentHandler10extractRawERNS_7utility12outputStreamEPNS1_16progressListenerE@Base 0.9.1-3~
 _ZNK5vmime20streamContentHandler10isBufferedEv@Base 0.9.1-3~
 _ZNK5vmime20streamContentHandler11getEncodingEv@Base 0.9.1-3~
 _ZNK5vmime20streamContentHandler5cloneEv@Base 0.9.1-3~
 _ZNK5vmime20streamContentHandler7extractERNS_7utility12outputStreamEPNS1_16progressListenerE@Base 0.9.1-3~
 _ZNK5vmime20streamContentHandler7isEmptyEv@Base 0.9.1-3~
 _ZNK5vmime20streamContentHandler8generateERNS_7utility12outputStreamERKNS_8encodingEm@Base 0.9.1-3~
 _ZNK5vmime20streamContentHandler9getLengthEv@Base 0.9.1-3~
 _ZNK5vmime20streamContentHandler9isEncodedEv@Base 0.9.1-3~
 _ZNK5vmime20stringContentHandler10extractRawERNS_7utility12outputStreamEPNS1_16progressListenerE@Base 0.9.1-3~
 _ZNK5vmime20stringContentHandler10isBufferedEv@Base 0.9.1-3~
 _ZNK5vmime20stringContentHandler11getEncodingEv@Base 0.9.1-3~
 _ZNK5vmime20stringContentHandler5cloneEv@Base 0.9.1-3~
 _ZNK5vmime20stringContentHandler7extractERNS_7utility12outputStreamEPNS1_16progressListenerE@Base 0.9.1-3~
 _ZNK5vmime20stringContentHandler7isEmptyEv@Base 0.9.1-3~
 _ZNK5vmime20stringContentHandler8generateERNS_7utility12outputStreamERKNS_8encodingEm@Base 0.9.1-3~
 _ZNK5vmime20stringContentHandler9getLengthEv@Base 0.9.1-3~
 _ZNK5vmime20stringContentHandler9isEncodedEv@Base 0.9.1-3~
 _ZNK5vmime23contentDispositionField11getFilenameEv@Base 0.9.1-3~
 _ZNK5vmime23contentDispositionField11getReadDateEv@Base 0.9.1-3~
 _ZNK5vmime23contentDispositionField15getCreationDateEv@Base 0.9.1-3~
 _ZNK5vmime23contentDispositionField19getModificationDateEv@Base 0.9.1-3~
 _ZNK5vmime23contentDispositionField7getSizeB5cxx11Ev@Base 0.9.1-3~
 _ZNK5vmime23parsedMessageAttachment10generateInENS_7utility3refINS_8bodyPartEEE@Base 0.9.1-3~
 _ZNK5vmime23parsedMessageAttachment10getMessageEv@Base 0.9.1-3~
 _ZNK5vmime23parsedMessageAttachment11getEncodingEv@Base 0.9.1-3~
 _ZNK5vmime23parsedMessageAttachment14getDescriptionEv@Base 0.9.1-3~
 _ZNK5vmime23parsedMessageAttachment7getDataEv@Base 0.9.1-3~
 _ZNK5vmime23parsedMessageAttachment7getNameEv@Base 0.9.1-3~
 _ZNK5vmime23parsedMessageAttachment7getPartEv@Base 0.9.1-3~
 _ZNK5vmime23parsedMessageAttachment7getTypeEv@Base 0.9.1-3~
 _ZNK5vmime23parsedMessageAttachment9getHeaderEv@Base 0.9.1-3~
 _ZNK5vmime24parameterizedHeaderField12hasParameterERKNSt7__cxx1112basic_stringIcSt11char_traitsIcESaIcEEE@Base 0.9.1-3~
 _ZNK5vmime24parameterizedHeaderField13findParameterERKNSt7__cxx1112basic_stringIcSt11char_traitsIcESaIcEEE@Base 0.9.1-3~
 _ZNK5vmime24parameterizedHeaderField14getParameterAtEi@Base 0.9.1-3~
 _ZNK5vmime24parameterizedHeaderField16getParameterListEv@Base 0.9.1-3~
 _ZNK5vmime24parameterizedHeaderField17getParameterCountEv@Base 0.9.1-3~
 _ZNK5vmime24parameterizedHeaderField18getChildComponentsEv@Base 0.9.1-3~
 _ZNK5vmime24parameterizedHeaderField7isEmptyEv@Base 0.9.1-3~
 _ZNK5vmime24parameterizedHeaderField8generateERNS_7utility12outputStreamEmmPm@Base 0.9.1-3~
 _ZNK5vmime26generatedMessageAttachment10generateInENS_7utility3refINS_8bodyPartEEE@Base 0.9.1-3~
 _ZNK5vmime26generatedMessageAttachment10getMessageEv@Base 0.9.1-3~
 _ZNK5vmime26generatedMessageAttachment11getEncodingEv@Base 0.9.1-3~
 _ZNK5vmime26generatedMessageAttachment14getDescriptionEv@Base 0.9.1-3~
 _ZNK5vmime26generatedMessageAttachment7getDataEv@Base 0.9.1-3~
 _ZNK5vmime26generatedMessageAttachment7getNameEv@Base 0.9.1-3~
 _ZNK5vmime26generatedMessageAttachment7getPartEv@Base 0.9.1-3~
 _ZNK5vmime26generatedMessageAttachment7getTypeEv@Base 0.9.1-3~
 _ZNK5vmime26generatedMessageAttachment9getHeaderEv@Base 0.9.1-3~
 _ZNK5vmime3mdn16receivedMDNInfos10getMessageEv@Base 0.9.1-3~
 _ZNK5vmime3mdn16receivedMDNInfos14getDispositionEv@Base 0.9.1-3~
 _ZNK5vmime3mdn16receivedMDNInfos20getOriginalMessageIdEv@Base 0.9.1-3~
 _ZNK5vmime3mdn16sendableMDNInfos10getMessageEv@Base 0.9.1-3~
 _ZNK5vmime3mdn16sendableMDNInfos12getRecipientEv@Base 0.9.1-3~
 _ZNK5vmime3net12serviceInfos11hasPropertyENS_7utility3refINS0_7sessionEEERKNS1_8propertyE@Base 0.9.1-3~
 _ZNK5vmime3net12serviceInfos16getPropertyValueINSt7__cxx1112basic_stringIcSt11char_traitsIcESaIcEEEEEKT_NS_7utility3refINS0_7sessionEEERKNS1_8propertyE@Base 0.9.1-3~
 _ZNK5vmime3net12serviceInfos16getPropertyValueIbEEKT_NS_7utility3refINS0_7sessionEEERKNS1_8propertyE@Base 0.9.1-3~
 _ZNK5vmime3net12serviceInfos16getPropertyValueItEEKT_NS_7utility3refINS0_7sessionEEERKNS1_8propertyE@Base 0.9.1-3~
 _ZNK5vmime3net12serviceInfos8property15getDefaultValueB5cxx11Ev@Base 0.9.1-3~
 _ZNK5vmime3net12serviceInfos8property7getNameB5cxx11Ev@Base 0.9.1-3~
 _ZNK5vmime3net12serviceInfos8property7getTypeEv@Base 0.9.1-3~
 _ZNK5vmime3net12serviceInfos8property8getFlagsEv@Base 0.9.1-3~
 _ZNK5vmime3net14serviceFactory12getServiceAtEi@Base 0.9.1-3~
 _ZNK5vmime3net14serviceFactory14getServiceListEv@Base 0.9.1-3~
 _ZNK5vmime3net14serviceFactory15getServiceCountEv@Base 0.9.1-3~
 _ZNK5vmime3net14serviceFactory20getServiceByProtocolERKNSt7__cxx1112basic_stringIcSt11char_traitsIcESaIcEEE@Base 0.9.1-3~
 _ZNK5vmime3net21registeredServiceImplINS0_4imap10IMAPSStoreEE6createENS_7utility3refINS0_7sessionEEENS6_INS_8security13authenticatorEEE@Base 0.9.1-3~
 _ZNK5vmime3net21registeredServiceImplINS0_4imap10IMAPSStoreEE7getNameEv@Base 0.9.1-3~
 _ZNK5vmime3net21registeredServiceImplINS0_4imap10IMAPSStoreEE7getTypeEv@Base 0.9.1-3~
 _ZNK5vmime3net21registeredServiceImplINS0_4imap10IMAPSStoreEE8getInfosEv@Base 0.9.1-3~
 _ZNK5vmime3net21registeredServiceImplINS0_4imap9IMAPStoreEE6createENS_7utility3refINS0_7sessionEEENS6_INS_8security13authenticatorEEE@Base 0.9.1-3~
 _ZNK5vmime3net21registeredServiceImplINS0_4imap9IMAPStoreEE7getNameEv@Base 0.9.1-3~
 _ZNK5vmime3net21registeredServiceImplINS0_4imap9IMAPStoreEE7getTypeEv@Base 0.9.1-3~
 _ZNK5vmime3net21registeredServiceImplINS0_4imap9IMAPStoreEE8getInfosEv@Base 0.9.1-3~
 _ZNK5vmime3net21registeredServiceImplINS0_4pop310POP3SStoreEE6createENS_7utility3refINS0_7sessionEEENS6_INS_8security13authenticatorEEE@Base 0.9.1-3~
 _ZNK5vmime3net21registeredServiceImplINS0_4pop310POP3SStoreEE7getNameEv@Base 0.9.1-3~
 _ZNK5vmime3net21registeredServiceImplINS0_4pop310POP3SStoreEE7getTypeEv@Base 0.9.1-3~
 _ZNK5vmime3net21registeredServiceImplINS0_4pop310POP3SStoreEE8getInfosEv@Base 0.9.1-3~
 _ZNK5vmime3net21registeredServiceImplINS0_4pop39POP3StoreEE6createENS_7utility3refINS0_7sessionEEENS6_INS_8security13authenticatorEEE@Base 0.9.1-3~
 _ZNK5vmime3net21registeredServiceImplINS0_4pop39POP3StoreEE7getNameEv@Base 0.9.1-3~
 _ZNK5vmime3net21registeredServiceImplINS0_4pop39POP3StoreEE7getTypeEv@Base 0.9.1-3~
 _ZNK5vmime3net21registeredServiceImplINS0_4pop39POP3StoreEE8getInfosEv@Base 0.9.1-3~
 _ZNK5vmime3net21registeredServiceImplINS0_4smtp13SMTPTransportEE6createENS_7utility3refINS0_7sessionEEENS6_INS_8security13authenticatorEEE@Base 0.9.1-3~
 _ZNK5vmime3net21registeredServiceImplINS0_4smtp13SMTPTransportEE7getNameEv@Base 0.9.1-3~
 _ZNK5vmime3net21registeredServiceImplINS0_4smtp13SMTPTransportEE7getTypeEv@Base 0.9.1-3~
 _ZNK5vmime3net21registeredServiceImplINS0_4smtp13SMTPTransportEE8getInfosEv@Base 0.9.1-3~
 _ZNK5vmime3net21registeredServiceImplINS0_4smtp14SMTPSTransportEE6createENS_7utility3refINS0_7sessionEEENS6_INS_8security13authenticatorEEE@Base 0.9.1-3~
 _ZNK5vmime3net21registeredServiceImplINS0_4smtp14SMTPSTransportEE7getNameEv@Base 0.9.1-3~
 _ZNK5vmime3net21registeredServiceImplINS0_4smtp14SMTPSTransportEE7getTypeEv@Base 0.9.1-3~
 _ZNK5vmime3net21registeredServiceImplINS0_4smtp14SMTPSTransportEE8getInfosEv@Base 0.9.1-3~
 _ZNK5vmime3net21registeredServiceImplINS0_7maildir12maildirStoreEE6createENS_7utility3refINS0_7sessionEEENS6_INS_8security13authenticatorEEE@Base 0.9.1-3~
 _ZNK5vmime3net21registeredServiceImplINS0_7maildir12maildirStoreEE7getNameEv@Base 0.9.1-3~
 _ZNK5vmime3net21registeredServiceImplINS0_7maildir12maildirStoreEE7getTypeEv@Base 0.9.1-3~
 _ZNK5vmime3net21registeredServiceImplINS0_7maildir12maildirStoreEE8getInfosEv@Base 0.9.1-3~
 _ZNK5vmime3net21registeredServiceImplINS0_8sendmail17sendmailTransportEE6createENS_7utility3refINS0_7sessionEEENS6_INS_8security13authenticatorEEE@Base 0.9.1-3~
 _ZNK5vmime3net21registeredServiceImplINS0_8sendmail17sendmailTransportEE7getNameEv@Base 0.9.1-3~
 _ZNK5vmime3net21registeredServiceImplINS0_8sendmail17sendmailTransportEE7getTypeEv@Base 0.9.1-3~
 _ZNK5vmime3net21registeredServiceImplINS0_8sendmail17sendmailTransportEE8getInfosEv@Base 0.9.1-3~
 _ZNK5vmime3net22defaultConnectionInfos7getHostB5cxx11Ev@Base 0.9.1-3~
 _ZNK5vmime3net22defaultConnectionInfos7getPortEv@Base 0.9.1-3~
 _ZNK5vmime3net3tls25TLSSecuredConnectionInfos19getPeerCertificatesEv@Base 0.9.1-3~
 _ZNK5vmime3net3tls25TLSSecuredConnectionInfos7getHostB5cxx11Ev@Base 0.9.1-3~
 _ZNK5vmime3net3tls25TLSSecuredConnectionInfos7getPortEv@Base 0.9.1-3~
 _ZNK5vmime3net3tls9TLSSocket11isConnectedEv@Base 0.9.1-3~
 _ZNK5vmime3net3tls9TLSSocket12getBlockSizeEv@Base 0.9.1-3~
 _ZNK5vmime3net3tls9TLSSocket19getPeerCertificatesEv@Base 0.9.1-3~
 _ZNK5vmime3net4imap10IMAPFolder11getFullPathEv@Base 0.9.1-3~
 _ZNK5vmime3net4imap10IMAPFolder20getFetchCapabilitiesEv@Base 0.9.1-3~
 _ZNK5vmime3net4imap10IMAPFolder6isOpenEv@Base 0.9.1-3~
 _ZNK5vmime3net4imap10IMAPFolder7getModeEv@Base 0.9.1-3~
 _ZNK5vmime3net4imap10IMAPFolder7getNameEv@Base 0.9.1-3~
 _ZNK5vmime3net4imap10IMAPFolder8getStoreEv@Base 0.9.1-3~
 _ZNK5vmime3net4imap10IMAPParser8lastLineB5cxx11Ev@Base 0.9.1-3~
 _ZNK5vmime3net4imap10IMAPSStore15getProtocolNameB5cxx11Ev@Base 0.9.1-3~
 _ZNK5vmime3net4imap10IMAPSStore8getInfosEv@Base 0.9.1-3~
 _ZNK5vmime3net4imap11IMAPMessage10isExpungedEv@Base 0.9.1-3~
 _ZNK5vmime3net4imap11IMAPMessage11extractPartENS_7utility3refIKNS0_4partEEERNS3_12outputStreamEPNS3_16progressListenerEiib@Base 0.9.1-3~
 _ZNK5vmime3net4imap11IMAPMessage11getUniqueIdB5cxx11Ev@Base 0.9.1-3~
 _ZNK5vmime3net4imap11IMAPMessage12getStructureEv@Base 0.9.1-3~
 _ZNK5vmime3net4imap11IMAPMessage7extractENS_7utility3refIKNS0_4partEEERNS3_12outputStreamEPNS3_16progressListenerEiibb@Base 0.9.1-3~
 _ZNK5vmime3net4imap11IMAPMessage7extractERNS_7utility12outputStreamEPNS3_16progressListenerEiib@Base 0.9.1-3~
 _ZNK5vmime3net4imap11IMAPMessage7getSizeEv@Base 0.9.1-3~
 _ZNK5vmime3net4imap11IMAPMessage8getFlagsEv@Base 0.9.1-3~
 _ZNK5vmime3net4imap11IMAPMessage9getHeaderEv@Base 0.9.1-3~
 _ZNK5vmime3net4imap11IMAPMessage9getNumberEv@Base 0.9.1-3~
 _ZNK5vmime3net4imap13IMAPStructure12getPartCountEv@Base 0.9.1-3~
 _ZNK5vmime3net4imap13IMAPStructure9getPartAtEi@Base 0.9.1-3~
 _ZNK5vmime3net4imap14IMAPConnection11isConnectedEv@Base 0.9.1-3~
 _ZNK5vmime3net4imap14IMAPConnection18getConnectionInfosEv@Base 0.9.1-3~
 _ZNK5vmime3net4imap14IMAPConnection18hierarchySeparatorEv@Base 0.9.1-3~
 _ZNK5vmime3net4imap14IMAPConnection19isSecuredConnectionEv@Base 0.9.1-3~
 _ZNK5vmime3net4imap14IMAPConnection5stateEv@Base 0.9.1-3~
 _ZNK5vmime3net4imap14IMAPConnection6getTagEv@Base 0.9.1-3~
 _ZNK5vmime3net4imap14IMAPConnection8getStoreEv@Base 0.9.1-3~
 _ZNK5vmime3net4imap14IMAPConnection9getParserEv@Base 0.9.1-3~
 _ZNK5vmime3net4imap14IMAPConnection9getSocketEv@Base 0.9.1-3~
 _ZNK5vmime3net4imap16IMAPServiceInfos13getPropertiesEv@Base 0.9.1-3~
 _ZNK5vmime3net4imap16IMAPServiceInfos17getPropertyPrefixB5cxx11Ev@Base 0.9.1-3~
 _ZNK5vmime3net4imap16IMAPServiceInfos22getAvailablePropertiesEv@Base 0.9.1-3~
 _ZNK5vmime3net4imap29IMAPMessagePartContentHandler10extractRawERNS_7utility12outputStreamEPNS3_16progressListenerE@Base 0.9.1-3~
 _ZNK5vmime3net4imap29IMAPMessagePartContentHandler10isBufferedEv@Base 0.9.1-3~
 _ZNK5vmime3net4imap29IMAPMessagePartContentHandler11getEncodingEv@Base 0.9.1-3~
 _ZNK5vmime3net4imap29IMAPMessagePartContentHandler5cloneEv@Base 0.9.1-3~
 _ZNK5vmime3net4imap29IMAPMessagePartContentHandler7extractERNS_7utility12outputStreamEPNS3_16progressListenerE@Base 0.9.1-3~
 _ZNK5vmime3net4imap29IMAPMessagePartContentHandler7isEmptyEv@Base 0.9.1-3~
 _ZNK5vmime3net4imap29IMAPMessagePartContentHandler8generateERNS_7utility12outputStreamERKNS_8encodingEm@Base 0.9.1-3~
 _ZNK5vmime3net4imap29IMAPMessagePartContentHandler9getLengthEv@Base 0.9.1-3~
 _ZNK5vmime3net4imap29IMAPMessagePartContentHandler9isEncodedEv@Base 0.9.1-3~
 _ZNK5vmime3net4imap7IMAPTag6numberEv@Base 0.9.1-3~
 _ZNK5vmime3net4imap7IMAPTagcvNSt7__cxx1112basic_stringIcSt11char_traitsIcESaIcEEEB5cxx11Ev@Base 0.9.1-3~
 _ZNK5vmime3net4imap8IMAPPart12getStructureEv@Base 0.9.1-3~
 _ZNK5vmime3net4imap8IMAPPart7getSizeEv@Base 0.9.1-3~
 _ZNK5vmime3net4imap8IMAPPart7getTypeEv@Base 0.9.1-3~
 _ZNK5vmime3net4imap8IMAPPart9getHeaderEv@Base 0.9.1-3~
 _ZNK5vmime3net4imap8IMAPPart9getNumberEv@Base 0.9.1-3~
 _ZNK5vmime3net4imap8IMAPPart9getParentEv@Base 0.9.1-3~
 _ZNK5vmime3net4imap9IMAPStore11isConnectedEv@Base 0.9.1-3~
 _ZNK5vmime3net4imap9IMAPStore15getCapabilitiesEv@Base 0.9.1-3~
 _ZNK5vmime3net4imap9IMAPStore15getProtocolNameB5cxx11Ev@Base 0.9.1-3~
 _ZNK5vmime3net4imap9IMAPStore17isValidFolderNameERKNS_4wordE@Base 0.9.1-3~
 _ZNK5vmime3net4imap9IMAPStore18getConnectionInfosEv@Base 0.9.1-3~
 _ZNK5vmime3net4imap9IMAPStore19isSecuredConnectionEv@Base 0.9.1-3~
 _ZNK5vmime3net4imap9IMAPStore7isIMAPSEv@Base 0.9.1-3~
 _ZNK5vmime3net4imap9IMAPStore8getInfosEv@Base 0.9.1-3~
 _ZNK5vmime3net4part12getPartCountEv@Base 0.9.1-3~
 _ZNK5vmime3net4part9getPartAtEi@Base 0.9.1-3~
 _ZNK5vmime3net4pop310POP3Folder11getFullPathEv@Base 0.9.1-3~
 _ZNK5vmime3net4pop310POP3Folder20getFetchCapabilitiesEv@Base 0.9.1-3~
 _ZNK5vmime3net4pop310POP3Folder6isOpenEv@Base 0.9.1-3~
 _ZNK5vmime3net4pop310POP3Folder7getModeEv@Base 0.9.1-3~
 _ZNK5vmime3net4pop310POP3Folder7getNameEv@Base 0.9.1-3~
 _ZNK5vmime3net4pop310POP3Folder8getStoreEv@Base 0.9.1-3~
 _ZNK5vmime3net4pop310POP3SStore15getProtocolNameB5cxx11Ev@Base 0.9.1-3~
 _ZNK5vmime3net4pop310POP3SStore8getInfosEv@Base 0.9.1-3~
 _ZNK5vmime3net4pop311POP3Message10isExpungedEv@Base 0.9.1-3~
 _ZNK5vmime3net4pop311POP3Message11extractPartENS_7utility3refIKNS0_4partEEERNS3_12outputStreamEPNS3_16progressListenerEiib@Base 0.9.1-3~
 _ZNK5vmime3net4pop311POP3Message11getUniqueIdB5cxx11Ev@Base 0.9.1-3~
 _ZNK5vmime3net4pop311POP3Message12getStructureEv@Base 0.9.1-3~
 _ZNK5vmime3net4pop311POP3Message7extractERNS_7utility12outputStreamEPNS3_16progressListenerEiib@Base 0.9.1-3~
 _ZNK5vmime3net4pop311POP3Message7getSizeEv@Base 0.9.1-3~
 _ZNK5vmime3net4pop311POP3Message8getFlagsEv@Base 0.9.1-3~
 _ZNK5vmime3net4pop311POP3Message9getHeaderEv@Base 0.9.1-3~
 _ZNK5vmime3net4pop311POP3Message9getNumberEv@Base 0.9.1-3~
 _ZNK5vmime3net4pop316POP3ServiceInfos13getPropertiesEv@Base 0.9.1-3~
 _ZNK5vmime3net4pop316POP3ServiceInfos17getPropertyPrefixB5cxx11Ev@Base 0.9.1-3~
 _ZNK5vmime3net4pop316POP3ServiceInfos22getAvailablePropertiesEv@Base 0.9.1-3~
 _ZNK5vmime3net4pop39POP3Store11isConnectedEv@Base 0.9.1-3~
 _ZNK5vmime3net4pop39POP3Store15getCapabilitiesEv@Base 0.9.1-3~
 _ZNK5vmime3net4pop39POP3Store15getProtocolNameB5cxx11Ev@Base 0.9.1-3~
 _ZNK5vmime3net4pop39POP3Store17isValidFolderNameERKNS_4wordE@Base 0.9.1-3~
 _ZNK5vmime3net4pop39POP3Store18getConnectionInfosEv@Base 0.9.1-3~
 _ZNK5vmime3net4pop39POP3Store19isSecuredConnectionEv@Base 0.9.1-3~
 _ZNK5vmime3net4pop39POP3Store8getInfosEv@Base 0.9.1-3~
 _ZNK5vmime3net4smtp12SMTPResponse11getLastLineEv@Base 0.9.1-3~
 _ZNK5vmime3net4smtp12SMTPResponse12getLineCountEv@Base 0.9.1-3~
 _ZNK5vmime3net4smtp12SMTPResponse12responseLine7getCodeEv@Base 0.9.1-3~
 _ZNK5vmime3net4smtp12SMTPResponse12responseLine7getTextB5cxx11Ev@Base 0.9.1-3~
 _ZNK5vmime3net4smtp12SMTPResponse7getCodeEv@Base 0.9.1-3~
 _ZNK5vmime3net4smtp12SMTPResponse7getTextB5cxx11Ev@Base 0.9.1-3~
 _ZNK5vmime3net4smtp12SMTPResponse9getLineAtEj@Base 0.9.1-3~
 _ZNK5vmime3net4smtp13SMTPTransport11isConnectedEv@Base 0.9.1-3~
 _ZNK5vmime3net4smtp13SMTPTransport15getProtocolNameB5cxx11Ev@Base 0.9.1-3~
 _ZNK5vmime3net4smtp13SMTPTransport18getConnectionInfosEv@Base 0.9.1-3~
 _ZNK5vmime3net4smtp13SMTPTransport19isSecuredConnectionEv@Base 0.9.1-3~
 _ZNK5vmime3net4smtp13SMTPTransport8getInfosEv@Base 0.9.1-3~
 _ZNK5vmime3net4smtp14SMTPSTransport15getProtocolNameB5cxx11Ev@Base 0.9.1-3~
 _ZNK5vmime3net4smtp14SMTPSTransport8getInfosEv@Base 0.9.1-3~
 _ZNK5vmime3net4smtp16SMTPServiceInfos13getPropertiesEv@Base 0.9.1-3~
 _ZNK5vmime3net4smtp16SMTPServiceInfos17getPropertyPrefixB5cxx11Ev@Base 0.9.1-3~
 _ZNK5vmime3net4smtp16SMTPServiceInfos22getAvailablePropertiesEv@Base 0.9.1-3~
 _ZNK5vmime3net5store7getTypeEv@Base 0.9.1-3~
 _ZNK5vmime3net6events11folderEvent7getTypeEv@Base 0.9.1-3~
 _ZNK5vmime3net6events11folderEvent8dispatchEPNS1_14folderListenerE@Base 0.9.1-3~
 _ZNK5vmime3net6events11folderEvent9getFolderEv@Base 0.9.1-3~
 _ZNK5vmime3net6events17messageCountEvent10getNumbersEv@Base 0.9.1-3~
 _ZNK5vmime3net6events17messageCountEvent7getTypeEv@Base 0.9.1-3~
 _ZNK5vmime3net6events17messageCountEvent8dispatchEPNS1_20messageCountListenerE@Base 0.9.1-3~
 _ZNK5vmime3net6events17messageCountEvent9getFolderEv@Base 0.9.1-3~
 _ZNK5vmime3net6events19messageChangedEvent10getNumbersEv@Base 0.9.1-3~
 _ZNK5vmime3net6events19messageChangedEvent7getTypeEv@Base 0.9.1-3~
 _ZNK5vmime3net6events19messageChangedEvent8dispatchEPNS1_22messageChangedListenerE@Base 0.9.1-3~
 _ZNK5vmime3net6events19messageChangedEvent9getFolderEv@Base 0.9.1-3~
 _ZNK5vmime3net7maildir11maildirPart12getStructureEv@Base 0.9.1-3~
 _ZNK5vmime3net7maildir11maildirPart7getSizeEv@Base 0.9.1-3~
 _ZNK5vmime3net7maildir11maildirPart7getTypeEv@Base 0.9.1-3~
 _ZNK5vmime3net7maildir11maildirPart9getHeaderEv@Base 0.9.1-3~
 _ZNK5vmime3net7maildir11maildirPart9getNumberEv@Base 0.9.1-3~
 _ZNK5vmime3net7maildir12maildirStore11isConnectedEv@Base 0.9.1-3~
 _ZNK5vmime3net7maildir12maildirStore15getCapabilitiesEv@Base 0.9.1-3~
 _ZNK5vmime3net7maildir12maildirStore15getProtocolNameB5cxx11Ev@Base 0.9.1-3~
 _ZNK5vmime3net7maildir12maildirStore17getFileSystemPathEv@Base 0.9.1-3~
 _ZNK5vmime3net7maildir12maildirStore17isValidFolderNameERKNS_4wordE@Base 0.9.1-3~
 _ZNK5vmime3net7maildir12maildirStore18getConnectionInfosEv@Base 0.9.1-3~
 _ZNK5vmime3net7maildir12maildirStore19isSecuredConnectionEv@Base 0.9.1-3~
 _ZNK5vmime3net7maildir12maildirStore8getInfosEv@Base 0.9.1-3~
 _ZNK5vmime3net7maildir12maildirStore9getFormatEv@Base 0.9.1-3~
 _ZNK5vmime3net7maildir12maildirUtils19messageIdComparatorclERKNS_4wordE@Base 0.9.1-3~
 _ZNK5vmime3net7maildir13maildirFolder11getFullPathEv@Base 0.9.1-3~
 _ZNK5vmime3net7maildir13maildirFolder16getMessageFSPathEi@Base 0.9.1-3~
 _ZNK5vmime3net7maildir13maildirFolder20getFetchCapabilitiesEv@Base 0.9.1-3~
 _ZNK5vmime3net7maildir13maildirFolder6isOpenEv@Base 0.9.1-3~
 _ZNK5vmime3net7maildir13maildirFolder7getModeEv@Base 0.9.1-3~
 _ZNK5vmime3net7maildir13maildirFolder7getNameEv@Base 0.9.1-3~
 _ZNK5vmime3net7maildir13maildirFolder8getStoreEv@Base 0.9.1-3~
 _ZNK5vmime3net7maildir13maildirFormat10getContextEv@Base 0.9.1-3~
 _ZNK5vmime3net7maildir13maildirFormat7context8getStoreEv@Base 0.9.1-3~
 _ZNK5vmime3net7maildir14maildirMessage10isExpungedEv@Base 0.9.1-3~
 _ZNK5vmime3net7maildir14maildirMessage11extractImplERNS_7utility12outputStreamEPNS3_16progressListenerEiiiib@Base 0.9.1-3~
 _ZNK5vmime3net7maildir14maildirMessage11extractPartENS_7utility3refIKNS0_4partEEERNS3_12outputStreamEPNS3_16progressListenerEiib@Base 0.9.1-3~
 _ZNK5vmime3net7maildir14maildirMessage11getUniqueIdB5cxx11Ev@Base 0.9.1-3~
 _ZNK5vmime3net7maildir14maildirMessage12getStructureEv@Base 0.9.1-3~
 _ZNK5vmime3net7maildir14maildirMessage7extractERNS_7utility12outputStreamEPNS3_16progressListenerEiib@Base 0.9.1-3~
 _ZNK5vmime3net7maildir14maildirMessage7getSizeEv@Base 0.9.1-3~
 _ZNK5vmime3net7maildir14maildirMessage8getFlagsEv@Base 0.9.1-3~
 _ZNK5vmime3net7maildir14maildirMessage9getHeaderEv@Base 0.9.1-3~
 _ZNK5vmime3net7maildir14maildirMessage9getNumberEv@Base 0.9.1-3~
 _ZNK5vmime3net7maildir16maildirStructure12getPartCountEv@Base 0.9.1-3~
 _ZNK5vmime3net7maildir16maildirStructure9getPartAtEi@Base 0.9.1-3~
 _ZNK5vmime3net7maildir19maildirServiceInfos13getPropertiesEv@Base 0.9.1-3~
 _ZNK5vmime3net7maildir19maildirServiceInfos17getPropertyPrefixB5cxx11Ev@Base 0.9.1-3~
 _ZNK5vmime3net7maildir19maildirServiceInfos22getAvailablePropertiesEv@Base 0.9.1-3~
 _ZNK5vmime3net7maildir6format18kmailMaildirFormat11listFoldersERKNS_7utility4pathEb@Base 0.9.1-3~
 _ZNK5vmime3net7maildir6format18kmailMaildirFormat12folderExistsERKNS_7utility4pathE@Base 0.9.1-3~
 _ZNK5vmime3net7maildir6format18kmailMaildirFormat15listFoldersImplERSt6vectorINS_7utility4pathESaIS6_EERKS6_b@Base 0.9.1-3~
 _ZNK5vmime3net7maildir6format18kmailMaildirFormat19folderHasSubfoldersERKNS_7utility4pathE@Base 0.9.1-3~
 _ZNK5vmime3net7maildir6format18kmailMaildirFormat26folderPathToFileSystemPathERKNS_7utility4pathENS1_13maildirFormat13DirectoryTypeE@Base 0.9.1-3~
 _ZNK5vmime3net7maildir6format18kmailMaildirFormat7getNameB5cxx11Ev@Base 0.9.1-3~
 _ZNK5vmime3net7maildir6format18kmailMaildirFormat8supportsEv@Base 0.9.1-3~
 _ZNK5vmime3net7maildir6format20courierMaildirFormat11listFoldersERKNS_7utility4pathEb@Base 0.9.1-3~
 _ZNK5vmime3net7maildir6format20courierMaildirFormat12folderExistsERKNS_7utility4pathE@Base 0.9.1-3~
 _ZNK5vmime3net7maildir6format20courierMaildirFormat15listDirectoriesERKNS_7utility4pathERSt6vectorINSt7__cxx1112basic_stringIcSt11char_traitsIcESaIcEEESaISE_EEb@Base 0.9.1-3~
 _ZNK5vmime3net7maildir6format20courierMaildirFormat19folderHasSubfoldersERKNS_7utility4pathE@Base 0.9.1-3~
 _ZNK5vmime3net7maildir6format20courierMaildirFormat26folderPathToFileSystemPathERKNS_7utility4pathENS1_13maildirFormat13DirectoryTypeE@Base 0.9.1-3~
 _ZNK5vmime3net7maildir6format20courierMaildirFormat7getNameB5cxx11Ev@Base 0.9.1-3~
 _ZNK5vmime3net7maildir6format20courierMaildirFormat8supportsEv@Base 0.9.1-3~
 _ZNK5vmime3net7service10getSessionEv@Base 0.9.1-3~
 _ZNK5vmime3net7service16getAuthenticatorEv@Base 0.9.1-3~
 _ZNK5vmime3net7session13getPropertiesEv@Base 0.9.1-3~
 _ZNK5vmime3net8sendmail17sendmailTransport11isConnectedEv@Base 0.9.1-3~
 _ZNK5vmime3net8sendmail17sendmailTransport15getProtocolNameB5cxx11Ev@Base 0.9.1-3~
 _ZNK5vmime3net8sendmail17sendmailTransport18getConnectionInfosEv@Base 0.9.1-3~
 _ZNK5vmime3net8sendmail17sendmailTransport19isSecuredConnectionEv@Base 0.9.1-3~
 _ZNK5vmime3net8sendmail17sendmailTransport8getInfosEv@Base 0.9.1-3~
 _ZNK5vmime3net8sendmail20sendmailServiceInfos13getPropertiesEv@Base 0.9.1-3~
 _ZNK5vmime3net8sendmail20sendmailServiceInfos17getPropertyPrefixB5cxx11Ev@Base 0.9.1-3~
 _ZNK5vmime3net8sendmail20sendmailServiceInfos22getAvailablePropertiesEv@Base 0.9.1-3~
 _ZNK5vmime3net9transport7getTypeEv@Base 0.9.1-3~
 _ZNK5vmime4body10getCharsetEv@Base 0.9.1-3~
 _ZNK5vmime4body10isRootPartEv@Base 0.9.1-3~
 _ZNK5vmime4body11getContentsEv@Base 0.9.1-3~
 _ZNK5vmime4body11getEncodingEv@Base 0.9.1-3~
 _ZNK5vmime4body11getPartListEv@Base 0.9.1-3~
 _ZNK5vmime4body12getPartCountEv@Base 0.9.1-3~
 _ZNK5vmime4body13getEpilogTextB5cxx11Ev@Base 0.9.1-3~
 _ZNK5vmime4body13getPrologTextB5cxx11Ev@Base 0.9.1-3~
 _ZNK5vmime4body14getContentTypeEv@Base 0.9.1-3~
 _ZNK5vmime4body18getChildComponentsEv@Base 0.9.1-3~
 _ZNK5vmime4body5cloneEv@Base 0.9.1-3~
 _ZNK5vmime4body7isEmptyEv@Base 0.9.1-3~
 _ZNK5vmime4body8generateERNS_7utility12outputStreamEmmPm@Base 0.9.1-3~
 _ZNK5vmime4body9getPartAtEi@Base 0.9.1-3~
 _ZNK5vmime4path12getLocalPartB5cxx11Ev@Base 0.9.1-3~
 _ZNK5vmime4path18getChildComponentsEv@Base 0.9.1-3~
 _ZNK5vmime4path5cloneEv@Base 0.9.1-3~
 _ZNK5vmime4path8generateERNS_7utility12outputStreamEmmPm@Base 0.9.1-3~
 _ZNK5vmime4path9getDomainB5cxx11Ev@Base 0.9.1-3~
 _ZNK5vmime4patheqERKS0_@Base 0.9.1-3~
 _ZNK5vmime4pathneERKS0_@Base 0.9.1-3~
 _ZNK5vmime4text11getWordListEv@Base 0.9.1-3~
 _ZNK5vmime4text12getWordCountEv@Base 0.9.1-3~
 _ZNK5vmime4text13encodeAndFoldERNS_7utility12outputStreamEmmPmi@Base 0.9.1-3~
 _ZNK5vmime4text14getWholeBufferB5cxx11Ev@Base 0.9.1-3~
 _ZNK5vmime4text16getConvertedTextB5cxx11ERKNS_7charsetE@Base 0.9.1-3~
 _ZNK5vmime4text18getChildComponentsEv@Base 0.9.1-3~
 _ZNK5vmime4text5cloneEv@Base 0.9.1-3~
 _ZNK5vmime4text7isEmptyEv@Base 0.9.1-3~
 _ZNK5vmime4text8generateERNS_7utility12outputStreamEmmPm@Base 0.9.1-3~
 _ZNK5vmime4text9getWordAtEi@Base 0.9.1-3~
 _ZNK5vmime4texteqERKS0_@Base 0.9.1-3~
 _ZNK5vmime4textneERKS0_@Base 0.9.1-3~
 _ZNK5vmime4word10getCharsetEv@Base 0.9.1-3~
 _ZNK5vmime4word16getConvertedTextB5cxx11ERKNS_7charsetE@Base 0.9.1-3~
 _ZNK5vmime4word18getChildComponentsEv@Base 0.9.1-3~
 _ZNK5vmime4word5cloneEv@Base 0.9.1-3~
 _ZNK5vmime4word7isEmptyEv@Base 0.9.1-3~
 _ZNK5vmime4word8generateERNS_7utility12outputStreamEmmPm@Base 0.9.1-3~
 _ZNK5vmime4word8generateERNS_7utility12outputStreamEmmPmiPNS0_14generatorStateE@Base 0.9.1-3~
 _ZNK5vmime4word9getBufferB5cxx11Ev@Base 0.9.1-3~
 _ZNK5vmime4wordeqERKS0_@Base 0.9.1-3~
 _ZNK5vmime4wordneERKS0_@Base 0.9.1-3~
 _ZNK5vmime5relay11getWithListB5cxx11Ev@Base 0.9.1-3~
 _ZNK5vmime5relay18getChildComponentsEv@Base 0.9.1-3~
 _ZNK5vmime5relay5cloneEv@Base 0.9.1-3~
 _ZNK5vmime5relay5getByB5cxx11Ev@Base 0.9.1-3~
 _ZNK5vmime5relay5getIdB5cxx11Ev@Base 0.9.1-3~
 _ZNK5vmime5relay6getForB5cxx11Ev@Base 0.9.1-3~
 _ZNK5vmime5relay6getViaB5cxx11Ev@Base 0.9.1-3~
 _ZNK5vmime5relay7getDateEv@Base 0.9.1-3~
 _ZNK5vmime5relay7getFromB5cxx11Ev@Base 0.9.1-3~
 _ZNK5vmime5relay8generateERNS_7utility12outputStreamEmmPm@Base 0.9.1-3~
 _ZNK5vmime6header10getFieldAtEi@Base 0.9.1-3~
 _ZNK5vmime6header12getFieldListEv@Base 0.9.1-3~
 _ZNK5vmime6header13getFieldCountEv@Base 0.9.1-3~
 _ZNK5vmime6header18getChildComponentsEv@Base 0.9.1-3~
 _ZNK5vmime6header5cloneEv@Base 0.9.1-3~
 _ZNK5vmime6header7isEmptyEv@Base 0.9.1-3~
 _ZNK5vmime6header8generateERNS_7utility12outputStreamEmmPm@Base 0.9.1-3~
 _ZNK5vmime6header8hasFieldERKNSt7__cxx1112basic_stringIcSt11char_traitsIcESaIcEEE@Base 0.9.1-3~
 _ZNK5vmime6header9findFieldERKNSt7__cxx1112basic_stringIcSt11char_traitsIcESaIcEEE@Base 0.9.1-3~
 _ZNK5vmime6object11thisWeakRefEv@Base 0.9.1-3~
 _ZNK5vmime6object13getRefManagerEv@Base 0.9.1-3~
 _ZNK5vmime6object7thisRefEv@Base 0.9.1-3~
 _ZNK5vmime7charset18getChildComponentsEv@Base 0.9.1-3~
 _ZNK5vmime7charset22getRecommendedEncodingERNS_8encodingE@Base 0.9.1-3~
 _ZNK5vmime7charset5cloneEv@Base 0.9.1-3~
 _ZNK5vmime7charset7getNameB5cxx11Ev@Base 0.9.1-3~
 _ZNK5vmime7charset8generateERNS_7utility12outputStreamEmmPm@Base 0.9.1-3~
 _ZNK5vmime7charseteqERKS0_@Base 0.9.1-3~
 _ZNK5vmime7charsetneERKS0_@Base 0.9.1-3~
 _ZNK5vmime7mailbox18getChildComponentsEv@Base 0.9.1-3~
 _ZNK5vmime7mailbox5cloneEv@Base 0.9.1-3~
 _ZNK5vmime7mailbox7getNameEv@Base 0.9.1-3~
 _ZNK5vmime7mailbox7isEmptyEv@Base 0.9.1-3~
 _ZNK5vmime7mailbox7isGroupEv@Base 0.9.1-3~
 _ZNK5vmime7mailbox8generateERNS_7utility12outputStreamEmmPm@Base 0.9.1-3~
 _ZNK5vmime7mailbox8getEmailB5cxx11Ev@Base 0.9.1-3~
 _ZNK5vmime7mailboxeqERKS0_@Base 0.9.1-3~
 _ZNK5vmime7mailboxneERKS0_@Base 0.9.1-3~
 _ZNK5vmime7message8generateB5cxx11Emm@Base 0.9.1-3~
 _ZNK5vmime7message8generateERNS_7utility12outputStreamEmmPm@Base 0.9.1-3~
 _ZNK5vmime7options16multipartOptions13getEpilogTextB5cxx11Ev@Base 0.9.1-3~
 _ZNK5vmime7options16multipartOptions13getPrologTextB5cxx11Ev@Base 0.9.1-3~
 _ZNK5vmime7utility10refCountercvlEv@Base 0.9.1-3~
 _ZNK5vmime7utility11stringProxy3endEv@Base 0.9.1-3~
 _ZNK5vmime7utility11stringProxy5startEv@Base 0.9.1-3~
 _ZNK5vmime7utility11stringProxy6lengthEv@Base 0.9.1-3~
 _ZNK5vmime7utility11stringProxy7extractERNS0_12outputStreamEmmPNS0_16progressListenerE@Base 0.9.1-3~
 _ZNK5vmime7utility14refManagerImpl15getWeakRefCountEv@Base 0.9.1-3~
 _ZNK5vmime7utility14refManagerImpl17getStrongRefCountEv@Base 0.9.1-3~
 _ZNK5vmime7utility18inputStreamAdapter3eofEv@Base 0.9.1-3~
 _ZNK5vmime7utility22dotFilteredInputStream3eofEv@Base 0.9.1-3~
 _ZNK5vmime7utility24inputStreamSocketAdapter3eofEv@Base 0.9.1-3~
 _ZNK5vmime7utility24inputStreamStringAdapter3eofEv@Base 0.9.1-3~
 _ZNK5vmime7utility25inputStreamPointerAdapter3eofEv@Base 0.9.1-3~
 _ZNK5vmime7utility27progressListenerSizeAdapter6cancelEv@Base 0.9.1-3~
 _ZNK5vmime7utility28inputStreamByteBufferAdapter3eofEv@Base 0.9.1-3~
 _ZNK5vmime7utility29inputStreamStringProxyAdapter3eofEv@Base 0.9.1-3~
 _ZNK5vmime7utility31stopSequenceFilteredInputStreamILi1EE3eofEv@Base 0.9.1-3~
 _ZNK5vmime7utility31stopSequenceFilteredInputStreamILi3EE3eofEv@Base 0.9.1-3~
 _ZNK5vmime7utility31stopSequenceFilteredInputStreamILi5EE3eofEv@Base 0.9.1-3~
 _ZNK5vmime7utility3url11getPasswordB5cxx11Ev@Base 0.9.1-3~
 _ZNK5vmime7utility3url11getProtocolB5cxx11Ev@Base 0.9.1-3~
 _ZNK5vmime7utility3url11getUsernameB5cxx11Ev@Base 0.9.1-3~
 _ZNK5vmime7utility3url5buildB5cxx11Ev@Base 0.9.1-3~
 _ZNK5vmime7utility3url7getHostB5cxx11Ev@Base 0.9.1-3~
 _ZNK5vmime7utility3url7getPathB5cxx11Ev@Base 0.9.1-3~
 _ZNK5vmime7utility3url7getPortEv@Base 0.9.1-3~
 _ZNK5vmime7utility3url9getParamsEv@Base 0.9.1-3~
 _ZNK5vmime7utility3urlcvNSt7__cxx1112basic_stringIcSt11char_traitsIcESaIcEEEB5cxx11Ev@Base 0.9.1-3~
 _ZNK5vmime7utility4path10isParentOfERKS1_@Base 0.9.1-3~
 _ZNK5vmime7utility4path14getComponentAtEi@Base 0.9.1-3~
 _ZNK5vmime7utility4path16getLastComponentEv@Base 0.9.1-3~
 _ZNK5vmime7utility4path16isDirectParentOfERKS1_@Base 0.9.1-3~
 _ZNK5vmime7utility4path6isRootEv@Base 0.9.1-3~
 _ZNK5vmime7utility4path7getSizeEv@Base 0.9.1-3~
 _ZNK5vmime7utility4path7isEmptyEv@Base 0.9.1-3~
 _ZNK5vmime7utility4path9getParentEv@Base 0.9.1-3~
 _ZNK5vmime7utility4pathdvERKNS_4wordE@Base 0.9.1-3~
 _ZNK5vmime7utility4pathdvERKS1_@Base 0.9.1-3~
 _ZNK5vmime7utility4patheqERKS1_@Base 0.9.1-3~
 _ZNK5vmime7utility4pathixEi@Base 0.9.1-3~
 _ZNK5vmime7utility4pathneERKS1_@Base 0.9.1-3~
 _ZNK5vmime7utility7encoder10b64Encoder22getAvailablePropertiesB5cxx11Ev@Base 0.9.1-3~
 _ZNK5vmime7utility7encoder14encoderFactory12getEncoderAtEi@Base 0.9.1-3~
 _ZNK5vmime7utility7encoder14encoderFactory14getEncoderListEv@Base 0.9.1-3~
 _ZNK5vmime7utility7encoder14encoderFactory15getEncoderCountEv@Base 0.9.1-3~
 _ZNK5vmime7utility7encoder14encoderFactory16getEncoderByNameERKNSt7__cxx1112basic_stringIcSt11char_traitsIcESaIcEEE@Base 0.9.1-3~
 _ZNK5vmime7utility7encoder14encoderFactory21registeredEncoderImplINS1_10b64EncoderEE6createEv@Base 0.9.1-3~
 _ZNK5vmime7utility7encoder14encoderFactory21registeredEncoderImplINS1_10b64EncoderEE7getNameEv@Base 0.9.1-3~
 _ZNK5vmime7utility7encoder14encoderFactory21registeredEncoderImplINS1_13binaryEncoderEE6createEv@Base 0.9.1-3~
 _ZNK5vmime7utility7encoder14encoderFactory21registeredEncoderImplINS1_13binaryEncoderEE7getNameEv@Base 0.9.1-3~
 _ZNK5vmime7utility7encoder14encoderFactory21registeredEncoderImplINS1_15eightBitEncoderEE6createEv@Base 0.9.1-3~
 _ZNK5vmime7utility7encoder14encoderFactory21registeredEncoderImplINS1_15eightBitEncoderEE7getNameEv@Base 0.9.1-3~
 _ZNK5vmime7utility7encoder14encoderFactory21registeredEncoderImplINS1_15sevenBitEncoderEE6createEv@Base 0.9.1-3~
 _ZNK5vmime7utility7encoder14encoderFactory21registeredEncoderImplINS1_15sevenBitEncoderEE7getNameEv@Base 0.9.1-3~
 _ZNK5vmime7utility7encoder14encoderFactory21registeredEncoderImplINS1_9qpEncoderEE6createEv@Base 0.9.1-3~
 _ZNK5vmime7utility7encoder14encoderFactory21registeredEncoderImplINS1_9qpEncoderEE7getNameEv@Base 0.9.1-3~
 _ZNK5vmime7utility7encoder14encoderFactory21registeredEncoderImplINS1_9uuEncoderEE6createEv@Base 0.9.1-3~
 _ZNK5vmime7utility7encoder14encoderFactory21registeredEncoderImplINS1_9uuEncoderEE7getNameEv@Base 0.9.1-3~
 _ZNK5vmime7utility7encoder7encoder10getResultsEv@Base 0.9.1-3~
 _ZNK5vmime7utility7encoder7encoder13getPropertiesEv@Base 0.9.1-3~
 _ZNK5vmime7utility7encoder7encoder22getAvailablePropertiesB5cxx11Ev@Base 0.9.1-3~
 _ZNK5vmime7utility7encoder9qpEncoder22getAvailablePropertiesB5cxx11Ev@Base 0.9.1-3~
 _ZNK5vmime7utility7encoder9uuEncoder22getAvailablePropertiesB5cxx11Ev@Base 0.9.1-3~
 _ZNK5vmime7utility8weak_refINS_3net4imap10IMAPFolderEE7acquireEv@Base 0.9.1-3~
 _ZNK5vmime8bodyPart13getParentPartEv@Base 0.9.1-3~
 _ZNK5vmime8bodyPart18getChildComponentsEv@Base 0.9.1-3~
 _ZNK5vmime8bodyPart5cloneEv@Base 0.9.1-3~
 _ZNK5vmime8bodyPart7getBodyEv@Base 0.9.1-3~
 _ZNK5vmime8bodyPart8generateERNS_7utility12outputStreamEmmPm@Base 0.9.1-3~
 _ZNK5vmime8bodyPart9getHeaderEv@Base 0.9.1-3~
 _ZNK5vmime8datetime10getWeekDayEv@Base 0.9.1-3~
 _ZNK5vmime8datetime18getChildComponentsEv@Base 0.9.1-3~
 _ZNK5vmime8datetime5cloneEv@Base 0.9.1-3~
 _ZNK5vmime8datetime6getDayEv@Base 0.9.1-3~
 _ZNK5vmime8datetime7getDateERiS1_S1_@Base 0.9.1-3~
 _ZNK5vmime8datetime7getHourEv@Base 0.9.1-3~
 _ZNK5vmime8datetime7getTimeERiS1_S1_@Base 0.9.1-3~
 _ZNK5vmime8datetime7getTimeERiS1_S1_S1_@Base 0.9.1-3~
 _ZNK5vmime8datetime7getWeekEv@Base 0.9.1-3~
 _ZNK5vmime8datetime7getYearEv@Base 0.9.1-3~
 _ZNK5vmime8datetime7getZoneEv@Base 0.9.1-3~
 _ZNK5vmime8datetime8generateERNS_7utility12outputStreamEmmPm@Base 0.9.1-3~
 _ZNK5vmime8datetime8getMonthEv@Base 0.9.1-3~
 _ZNK5vmime8datetime9getMinuteEv@Base 0.9.1-3~
 _ZNK5vmime8datetime9getSecondEv@Base 0.9.1-3~
 _ZNK5vmime8datetimeeqERKS0_@Base 0.9.1-3~
 _ZNK5vmime8datetimegeERKS0_@Base 0.9.1-3~
 _ZNK5vmime8datetimegtERKS0_@Base 0.9.1-3~
 _ZNK5vmime8datetimeleERKS0_@Base 0.9.1-3~
 _ZNK5vmime8datetimeltERKS0_@Base 0.9.1-3~
 _ZNK5vmime8datetimeneERKS0_@Base 0.9.1-3~
 _ZNK5vmime8encoding10getEncoderEv@Base 0.9.1-3~
 _ZNK5vmime8encoding18getChildComponentsEv@Base 0.9.1-3~
 _ZNK5vmime8encoding5cloneEv@Base 0.9.1-3~
 _ZNK5vmime8encoding7getNameB5cxx11Ev@Base 0.9.1-3~
 _ZNK5vmime8encoding8generateERNS_7utility12outputStreamEmmPm@Base 0.9.1-3~
 _ZNK5vmime8encodingeqERKS0_@Base 0.9.1-3~
 _ZNK5vmime8encodingneERKS0_@Base 0.9.1-3~
 _ZNK5vmime8security20defaultAuthenticator10getServiceEv@Base 0.9.1-3~
 _ZNK5vmime8security20defaultAuthenticator11getHostnameB5cxx11Ev@Base 0.9.1-3~
 _ZNK5vmime8security20defaultAuthenticator11getPasswordB5cxx11Ev@Base 0.9.1-3~
 _ZNK5vmime8security20defaultAuthenticator11getUsernameB5cxx11Ev@Base 0.9.1-3~
 _ZNK5vmime8security20defaultAuthenticator14getServiceNameB5cxx11Ev@Base 0.9.1-3~
 _ZNK5vmime8security20defaultAuthenticator17getAnonymousTokenB5cxx11Ev@Base 0.9.1-3~
 _ZNK5vmime8security4cert15X509Certificate10getEncodedEv@Base 0.9.1-3~
 _ZNK5vmime8security4cert15X509Certificate10getVersionEv@Base 0.9.1-3~
 _ZNK5vmime8security4cert15X509Certificate11checkIssuerENS_7utility3refIKS2_EE@Base 0.9.1-3~
 _ZNK5vmime8security4cert15X509Certificate14getFingerprintENS2_15DigestAlgorithmE@Base 0.9.1-3~
 _ZNK5vmime8security4cert15X509Certificate15getSerialNumberEv@Base 0.9.1-3~
 _ZNK5vmime8security4cert15X509Certificate17getActivationDateEv@Base 0.9.1-3~
 _ZNK5vmime8security4cert15X509Certificate17getExpirationDateEv@Base 0.9.1-3~
 _ZNK5vmime8security4cert15X509Certificate5writeERNS_7utility12outputStreamENS2_6FormatE@Base 0.9.1-3~
 _ZNK5vmime8security4cert15X509Certificate6equalsENS_7utility3refIKNS1_11certificateEEE@Base 0.9.1-3~
 _ZNK5vmime8security4cert15X509Certificate6verifyENS_7utility3refIKS2_EE@Base 0.9.1-3~
 _ZNK5vmime8security4cert15X509Certificate7getTypeB5cxx11Ev@Base 0.9.1-3~
 _ZNK5vmime8security4cert16certificateChain8getCountEv@Base 0.9.1-3~
 _ZNK5vmime8security4sasl10SASLSocket11isConnectedEv@Base 0.9.1-3~
 _ZNK5vmime8security4sasl10SASLSocket12getBlockSizeEv@Base 0.9.1-3~
 _ZNK5vmime8security4sasl11SASLSession14getServiceNameB5cxx11Ev@Base 0.9.1-3~
 _ZNK5vmime8security4sasl20SASLMechanismFactory20isMechanismSupportedERKNSt7__cxx1112basic_stringIcSt11char_traitsIcESaIcEEE@Base 0.9.1-3~
 _ZNK5vmime8security4sasl20SASLMechanismFactory22getSupportedMechanismsB5cxx11Ev@Base 0.9.1-3~
 _ZNK5vmime8security4sasl20builtinSASLMechanism10isCompleteEv@Base 0.9.1-3~
 _ZNK5vmime8security4sasl20builtinSASLMechanism7getNameB5cxx11Ev@Base 0.9.1-3~
 _ZNK5vmime8security4sasl24defaultSASLAuthenticator10getServiceEv@Base 0.9.1-3~
 _ZNK5vmime8security4sasl24defaultSASLAuthenticator11getHostnameB5cxx11Ev@Base 0.9.1-3~
 _ZNK5vmime8security4sasl24defaultSASLAuthenticator11getPasswordB5cxx11Ev@Base 0.9.1-3~
 _ZNK5vmime8security4sasl24defaultSASLAuthenticator11getUsernameB5cxx11Ev@Base 0.9.1-3~
 _ZNK5vmime8security4sasl24defaultSASLAuthenticator14getSASLSessionEv@Base 0.9.1-3~
 _ZNK5vmime8security4sasl24defaultSASLAuthenticator14getServiceNameB5cxx11Ev@Base 0.9.1-3~
 _ZNK5vmime8security4sasl24defaultSASLAuthenticator16getSASLMechanismEv@Base 0.9.1-3~
 _ZNK5vmime8security4sasl24defaultSASLAuthenticator17getAnonymousTokenB5cxx11Ev@Base 0.9.1-3~
 _ZNK5vmime8security4sasl24defaultSASLAuthenticator23getAcceptableMechanismsERKSt6vectorINS_7utility3refINS1_13SASLMechanismEEESaIS7_EES7_@Base 0.9.1-3~
 _ZNK5vmime8security6digest13messageDigest12getHexDigestB5cxx11Ev@Base 0.9.1-3~
 _ZNK5vmime8security6digest20messageDigestFactory22getSupportedAlgorithmsB5cxx11Ev@Base 0.9.1-3~
 _ZNK5vmime8security6digest20messageDigestFactory26digestAlgorithmFactoryImplINS1_3md516md5MessageDigestEE6createEv@Base 0.9.1-3~
 _ZNK5vmime8security6digest20messageDigestFactory26digestAlgorithmFactoryImplINS1_4sha117sha1MessageDigestEE6createEv@Base 0.9.1-3~
 _ZNK5vmime8security6digest3md516md5MessageDigest15getDigestLengthEv@Base 0.9.1-3~
 _ZNK5vmime8security6digest3md516md5MessageDigest9getDigestEv@Base 0.9.1-3~
 _ZNK5vmime8security6digest4sha117sha1MessageDigest15getDigestLengthEv@Base 0.9.1-3~
 _ZNK5vmime8security6digest4sha117sha1MessageDigest9getDigestEv@Base 0.9.1-3~
 _ZNK5vmime9component15getParsedLengthEv@Base 0.9.1-3~
 _ZNK5vmime9component15getParsedOffsetEv@Base 0.9.1-3~
 _ZNK5vmime9component8generateB5cxx11Emm@Base 0.9.1-3~
 _ZNK5vmime9exception4nameEv@Base 0.9.1-3~
 _ZNK5vmime9exception4whatEv@Base 0.9.1-3~
 _ZNK5vmime9exception5cloneEv@Base 0.9.1-3~
 _ZNK5vmime9exception5otherEv@Base 0.9.1-3~
 _ZNK5vmime9mediaType10getSubTypeB5cxx11Ev@Base 0.9.1-3~
 _ZNK5vmime9mediaType18getChildComponentsEv@Base 0.9.1-3~
 _ZNK5vmime9mediaType5cloneEv@Base 0.9.1-3~
 _ZNK5vmime9mediaType7getTypeB5cxx11Ev@Base 0.9.1-3~
 _ZNK5vmime9mediaType8generateERNS_7utility12outputStreamEmmPm@Base 0.9.1-3~
 _ZNK5vmime9mediaTypeeqERKS0_@Base 0.9.1-3~
 _ZNK5vmime9mediaTypeneERKS0_@Base 0.9.1-3~
 _ZNK5vmime9messageId18getChildComponentsEv@Base 0.9.1-3~
 _ZNK5vmime9messageId5cloneEv@Base 0.9.1-3~
 _ZNK5vmime9messageId5getIdB5cxx11Ev@Base 0.9.1-3~
 _ZNK5vmime9messageId7getLeftB5cxx11Ev@Base 0.9.1-3~
 _ZNK5vmime9messageId8generateERNS_7utility12outputStreamEmmPm@Base 0.9.1-3~
 _ZNK5vmime9messageId8getRightB5cxx11Ev@Base 0.9.1-3~
 _ZNK5vmime9messageIdeqERKS0_@Base 0.9.1-3~
 _ZNK5vmime9messageIdneERKS0_@Base 0.9.1-3~
 _ZNK5vmime9parameter18getChildComponentsEv@Base 0.9.1-3~
 _ZNK5vmime9parameter5cloneEv@Base 0.9.1-3~
 _ZNK5vmime9parameter7getNameB5cxx11Ev@Base 0.9.1-3~
 _ZNK5vmime9parameter8generateERNS_7utility12outputStreamEmmPm@Base 0.9.1-3~
 _ZNK5vmime9parameter8getValueEv@Base 0.9.1-3~
 _ZNK5vmime9platforms5posix11posixSocket11isConnectedEv@Base 0.9.1-3~
 _ZNK5vmime9platforms5posix11posixSocket12getBlockSizeEv@Base 0.9.1-3~
 _ZNK5vmime9platforms5posix12posixHandler11getHostNameB5cxx11Ev@Base 0.9.1-3~
 _ZNK5vmime9platforms5posix12posixHandler11getUnixTimeEv@Base 0.9.1-3~
 _ZNK5vmime9platforms5posix12posixHandler12getProcessIdEv@Base 0.9.1-3~
 _ZNK5vmime9platforms5posix12posixHandler16getLocaleCharsetEv@Base 0.9.1-3~
 _ZNK5vmime9platforms5posix12posixHandler19getCurrentLocalTimeEv@Base 0.9.1-3~
 _ZNK5vmime9platforms5posix12posixHandler4waitEv@Base 0.9.1-3~
 _ZNK5vmime9platforms5posix17posixFileIterator15hasMoreElementsEv@Base 0.9.1-3~
 _ZNK5vmime9platforms5posix22posixFileSystemFactory11isValidPathERKNS_7utility4pathE@Base 0.9.1-3~
 _ZNK5vmime9platforms5posix22posixFileSystemFactory12pathToStringB5cxx11ERKNS_7utility4pathE@Base 0.9.1-3~
 _ZNK5vmime9platforms5posix22posixFileSystemFactory12stringToPathERKNSt7__cxx1112basic_stringIcSt11char_traitsIcESaIcEEE@Base 0.9.1-3~
 _ZNK5vmime9platforms5posix22posixFileSystemFactory20isValidPathComponentERKNS_4wordE@Base 0.9.1-3~
 _ZNK5vmime9platforms5posix22posixFileSystemFactory6createERKNS_7utility4pathE@Base 0.9.1-3~
 _ZNK5vmime9platforms5posix24posixChildProcessFactory6createERKNS_7utility4pathE@Base 0.9.1-3~
 _ZNK5vmime9platforms5posix26posixFileReaderInputStream3eofEv@Base 0.9.1-3~
 _ZNK5vmime9platforms5posix27inputStreamPosixPipeAdapter3eofEv@Base 0.9.1-3~
 _ZNK5vmime9platforms5posix9posixFile11getFullPathEv@Base 0.9.1-3~
 _ZNK5vmime9platforms5posix9posixFile11isDirectoryEv@Base 0.9.1-3~
 _ZNK5vmime9platforms5posix9posixFile6existsEv@Base 0.9.1-3~
 _ZNK5vmime9platforms5posix9posixFile6isFileEv@Base 0.9.1-3~
 _ZNK5vmime9platforms5posix9posixFile7canReadEv@Base 0.9.1-3~
 _ZNK5vmime9platforms5posix9posixFile8canWriteEv@Base 0.9.1-3~
 _ZNK5vmime9platforms5posix9posixFile8getFilesEv@Base 0.9.1-3~
 _ZNK5vmime9platforms5posix9posixFile9getParentEv@Base 0.9.1-3~
 _ZNKSt5ctypeIcE8do_widenEc@Base 0.9.1-3~
 _ZNKSt6vectorIPN5vmime3net4imap10IMAPParser29continue_req_or_response_dataESaIS5_EE12_M_check_lenEmPKc@Base 0.9.1-3~
 _ZNKSt6vectorIPN5vmime3net4imap11IMAPMessageESaIS4_EE12_M_check_lenEmPKc@Base 0.9.1-3~
 _ZNKSt6vectorIiSaIiEE12_M_check_lenEmPKc@Base 0.9.1-3~
 _ZNSt20__uninitialized_copyILb0EE13__uninit_copyIPN5vmime3net7maildir13maildirFolder12messageInfosES7_EET0_T_S9_S8_@Base 0.9.1-3~
 _ZNSt20__uninitialized_copyILb0EE13__uninit_copyIPN5vmime4wordES4_EET0_T_S6_S5_@Base 0.9.1-3~
 _ZNSt20__uninitialized_copyILb0EE13__uninit_copyIPN5vmime7utility3refINS2_3net6folderEEES8_EET0_T_SA_S9_@Base 0.9.1-3~
 _ZNSt20__uninitialized_copyILb0EE13__uninit_copyIPN5vmime7utility3refINS2_3net7messageEEES8_EET0_T_SA_S9_@Base 0.9.1-3~
 _ZNSt20__uninitialized_copyILb0EE13__uninit_copyIPN5vmime7utility3refINS2_8security4sasl13SASLMechanismEEES9_EET0_T_SB_SA_@Base 0.9.1-3~
 _ZNSt20__uninitialized_copyILb0EE13__uninit_copyIPNSt7__cxx1112basic_stringIcSt11char_traitsIcESaIcEEES8_EET0_T_SA_S9_@Base 0.9.1-3~
 _ZNSt3mapIiiSt4lessIiESaISt4pairIKiiEEED1Ev@Base 0.9.1-3~
 _ZNSt3mapIiiSt4lessIiESaISt4pairIKiiEEED2Ev@Base 0.9.1-3~
 _ZNSt4pairIKNSt7__cxx1112basic_stringIcSt11char_traitsIcESaIcEEEN5vmime7utility3refINS7_8security6digest20messageDigestFactory22digestAlgorithmFactoryEEEED1Ev@Base 0.9.1-3~
 _ZNSt4pairIKNSt7__cxx1112basic_stringIcSt11char_traitsIcESaIcEEEN5vmime7utility3refINS7_8security6digest20messageDigestFactory22digestAlgorithmFactoryEEEED2Ev@Base 0.9.1-3~
 _ZNSt4pairIKNSt7__cxx1112basic_stringIcSt11char_traitsIcESaIcEEESt6vectorIS5_SaIS5_EEED1Ev@Base 0.9.1-3~
 _ZNSt4pairIKNSt7__cxx1112basic_stringIcSt11char_traitsIcESaIcEEESt6vectorIS5_SaIS5_EEED2Ev@Base 0.9.1-3~
 _ZNSt6vectorIN5vmime3mdn16sendableMDNInfosESaIS2_EE13_M_insert_auxEN9__gnu_cxx17__normal_iteratorIPS2_S4_EERKS2_@Base 0.9.1-3~
 _ZNSt6vectorIN5vmime3net12serviceInfos8propertyESaIS3_EE13_M_insert_auxEN9__gnu_cxx17__normal_iteratorIPS3_S5_EERKS3_@Base 0.9.1-3~
 _ZNSt6vectorIN5vmime3net4smtp12SMTPResponse12responseLineESaIS4_EE13_M_insert_auxEN9__gnu_cxx17__normal_iteratorIPS4_S6_EERKS4_@Base 0.9.1-3~
 _ZNSt6vectorIN5vmime3net7maildir13maildirFolder12messageInfosESaIS4_EE13_M_insert_auxEN9__gnu_cxx17__normal_iteratorIPS4_S6_EERKS4_@Base 0.9.1-3~
 _ZNSt6vectorIN5vmime3net7maildir13maildirFolder12messageInfosESaIS4_EE14_M_fill_insertEN9__gnu_cxx17__normal_iteratorIPS4_S6_EEmRKS4_@Base 0.9.1-3~
 _ZNSt6vectorIN5vmime3net7maildir13maildirFolder12messageInfosESaIS4_EE7reserveEm@Base 0.9.1-3~
 _ZNSt6vectorIN5vmime3net7maildir13maildirFolder12messageInfosESaIS4_EED1Ev@Base 0.9.1-3~
 _ZNSt6vectorIN5vmime3net7maildir13maildirFolder12messageInfosESaIS4_EED2Ev@Base 0.9.1-3~
 _ZNSt6vectorIN5vmime4wordESaIS1_EE13_M_insert_auxEN9__gnu_cxx17__normal_iteratorIPS1_S3_EERKS1_@Base 0.9.1-3~
 _ZNSt6vectorIN5vmime4wordESaIS1_EE14_M_fill_insertEN9__gnu_cxx17__normal_iteratorIPS1_S3_EEmRKS1_@Base 0.9.1-3~
 _ZNSt6vectorIN5vmime4wordESaIS1_EED1Ev@Base 0.9.1-3~
 _ZNSt6vectorIN5vmime4wordESaIS1_EED2Ev@Base 0.9.1-3~
 _ZNSt6vectorIN5vmime7utility3refIKNS0_10attachmentEEESaIS5_EE13_M_insert_auxEN9__gnu_cxx17__normal_iteratorIPS5_S7_EERKS5_@Base 0.9.1-3~
 _ZNSt6vectorIN5vmime7utility3refIKNS0_10attachmentEEESaIS5_EE7reserveEm@Base 0.9.1-3~
 _ZNSt6vectorIN5vmime7utility3refIKNS0_10attachmentEEESaIS5_EED1Ev@Base 0.9.1-3~
 _ZNSt6vectorIN5vmime7utility3refIKNS0_10attachmentEEESaIS5_EED2Ev@Base 0.9.1-3~
 _ZNSt6vectorIN5vmime7utility3refIKNS0_10attachmentEEESaIS5_EEaSERKS7_@Base 0.9.1-3~
 _ZNSt6vectorIN5vmime7utility3refIKNS0_11headerFieldEEESaIS5_EE13_M_insert_auxEN9__gnu_cxx17__normal_iteratorIPS5_S7_EERKS5_@Base 0.9.1-3~
 _ZNSt6vectorIN5vmime7utility3refIKNS0_11headerFieldEEESaIS5_EE7reserveEm@Base 0.9.1-3~
 _ZNSt6vectorIN5vmime7utility3refIKNS0_11headerFieldEEESaIS5_EED1Ev@Base 0.9.1-3~
 _ZNSt6vectorIN5vmime7utility3refIKNS0_11headerFieldEEESaIS5_EED2Ev@Base 0.9.1-3~
 _ZNSt6vectorIN5vmime7utility3refIKNS0_11propertySet8propertyEEESaIS6_EE13_M_insert_auxEN9__gnu_cxx17__normal_iteratorIPS6_S8_EERKS6_@Base 0.9.1-3~
 _ZNSt6vectorIN5vmime7utility3refIKNS0_11propertySet8propertyEEESaIS6_EED1Ev@Base 0.9.1-3~
 _ZNSt6vectorIN5vmime7utility3refIKNS0_11propertySet8propertyEEESaIS6_EED2Ev@Base 0.9.1-3~
 _ZNSt6vectorIN5vmime7utility3refIKNS0_3net14serviceFactory17registeredServiceEEESaIS7_EE13_M_insert_auxEN9__gnu_cxx17__normal_iteratorIPS7_S9_EERKS7_@Base 0.9.1-3~
 _ZNSt6vectorIN5vmime7utility3refIKNS0_4wordEEESaIS5_EE13_M_insert_auxEN9__gnu_cxx17__normal_iteratorIPS5_S7_EERKS5_@Base 0.9.1-3~
 _ZNSt6vectorIN5vmime7utility3refIKNS0_4wordEEESaIS5_EE7reserveEm@Base 0.9.1-3~
 _ZNSt6vectorIN5vmime7utility3refIKNS0_7addressEEESaIS5_EE13_M_insert_auxEN9__gnu_cxx17__normal_iteratorIPS5_S7_EERKS5_@Base 0.9.1-3~
 _ZNSt6vectorIN5vmime7utility3refIKNS0_7addressEEESaIS5_EE7reserveEm@Base 0.9.1-3~
 _ZNSt6vectorIN5vmime7utility3refIKNS0_7addressEEESaIS5_EED1Ev@Base 0.9.1-3~
 _ZNSt6vectorIN5vmime7utility3refIKNS0_7addressEEESaIS5_EED2Ev@Base 0.9.1-3~
 _ZNSt6vectorIN5vmime7utility3refIKNS0_7mailboxEEESaIS5_EE13_M_insert_auxEN9__gnu_cxx17__normal_iteratorIPS5_S7_EERKS5_@Base 0.9.1-3~
 _ZNSt6vectorIN5vmime7utility3refIKNS0_7mailboxEEESaIS5_EE7reserveEm@Base 0.9.1-3~
 _ZNSt6vectorIN5vmime7utility3refIKNS0_7mailboxEEESaIS5_EED1Ev@Base 0.9.1-3~
 _ZNSt6vectorIN5vmime7utility3refIKNS0_7mailboxEEESaIS5_EED2Ev@Base 0.9.1-3~
 _ZNSt6vectorIN5vmime7utility3refIKNS0_8bodyPartEEESaIS5_EE13_M_insert_auxEN9__gnu_cxx17__normal_iteratorIPS5_S7_EERKS5_@Base 0.9.1-3~
 _ZNSt6vectorIN5vmime7utility3refIKNS0_8bodyPartEEESaIS5_EE7reserveEm@Base 0.9.1-3~
 _ZNSt6vectorIN5vmime7utility3refIKNS0_8bodyPartEEESaIS5_EED1Ev@Base 0.9.1-3~
 _ZNSt6vectorIN5vmime7utility3refIKNS0_8bodyPartEEESaIS5_EED2Ev@Base 0.9.1-3~
 _ZNSt6vectorIN5vmime7utility3refIKNS0_8textPartEEESaIS5_EE13_M_insert_auxEN9__gnu_cxx17__normal_iteratorIPS5_S7_EERKS5_@Base 0.9.1-3~
 _ZNSt6vectorIN5vmime7utility3refIKNS0_8textPartEEESaIS5_EE7reserveEm@Base 0.9.1-3~
 _ZNSt6vectorIN5vmime7utility3refIKNS0_9componentEEESaIS5_EE13_M_insert_auxEN9__gnu_cxx17__normal_iteratorIPS5_S7_EERKS5_@Base 0.9.1-3~
 _ZNSt6vectorIN5vmime7utility3refIKNS0_9componentEEESaIS5_EE14_M_fill_insertEN9__gnu_cxx17__normal_iteratorIPS5_S7_EEmRKS5_@Base 0.9.1-3~
 _ZNSt6vectorIN5vmime7utility3refIKNS0_9componentEEESaIS5_EED1Ev@Base 0.9.1-3~
 _ZNSt6vectorIN5vmime7utility3refIKNS0_9componentEEESaIS5_EED2Ev@Base 0.9.1-3~
 _ZNSt6vectorIN5vmime7utility3refIKNS0_9messageIdEEESaIS5_EE13_M_insert_auxEN9__gnu_cxx17__normal_iteratorIPS5_S7_EERKS5_@Base 0.9.1-3~
 _ZNSt6vectorIN5vmime7utility3refIKNS0_9messageIdEEESaIS5_EE7reserveEm@Base 0.9.1-3~
 _ZNSt6vectorIN5vmime7utility3refIKNS0_9parameterEEESaIS5_EE13_M_insert_auxEN9__gnu_cxx17__normal_iteratorIPS5_S7_EERKS5_@Base 0.9.1-3~
 _ZNSt6vectorIN5vmime7utility3refIKNS0_9parameterEEESaIS5_EE7reserveEm@Base 0.9.1-3~
 _ZNSt6vectorIN5vmime7utility3refIKNS1_7encoder14encoderFactory17registeredEncoderEEESaIS7_EE13_M_insert_auxEN9__gnu_cxx17__normal_iteratorIPS7_S9_EERKS7_@Base 0.9.1-3~
 _ZNSt6vectorIN5vmime7utility3refINS0_10attachmentEEESaIS4_EE13_M_insert_auxEN9__gnu_cxx17__normal_iteratorIPS4_S6_EERKS4_@Base 0.9.1-3~
 _ZNSt6vectorIN5vmime7utility3refINS0_10attachmentEEESaIS4_EED1Ev@Base 0.9.1-3~
 _ZNSt6vectorIN5vmime7utility3refINS0_10attachmentEEESaIS4_EED2Ev@Base 0.9.1-3~
 _ZNSt6vectorIN5vmime7utility3refINS0_11headerFieldEEESaIS4_EE13_M_insert_auxEN9__gnu_cxx17__normal_iteratorIPS4_S6_EERKS4_@Base 0.9.1-3~
 _ZNSt6vectorIN5vmime7utility3refINS0_11headerFieldEEESaIS4_EE14_M_fill_insertEN9__gnu_cxx17__normal_iteratorIPS4_S6_EEmRKS4_@Base 0.9.1-3~
 _ZNSt6vectorIN5vmime7utility3refINS0_11headerFieldEEESaIS4_EE6insertEN9__gnu_cxx17__normal_iteratorIPS4_S6_EERKS4_@Base 0.9.1-3~
 _ZNSt6vectorIN5vmime7utility3refINS0_11headerFieldEEESaIS4_EE7reserveEm@Base 0.9.1-3~
 _ZNSt6vectorIN5vmime7utility3refINS0_11headerFieldEEESaIS4_EE8_M_eraseEN9__gnu_cxx17__normal_iteratorIPS4_S6_EE@Base 0.9.1-3~
 _ZNSt6vectorIN5vmime7utility3refINS0_11headerFieldEEESaIS4_EED1Ev@Base 0.9.1-3~
 _ZNSt6vectorIN5vmime7utility3refINS0_11headerFieldEEESaIS4_EED2Ev@Base 0.9.1-3~
 _ZNSt6vectorIN5vmime7utility3refINS0_11propertySet8propertyEEESaIS5_EE13_M_insert_auxEN9__gnu_cxx17__normal_iteratorIPS5_S7_EERKS5_@Base 0.9.1-3~
 _ZNSt6vectorIN5vmime7utility3refINS0_12htmlTextPart14embeddedObjectEEESaIS5_EE13_M_insert_auxEN9__gnu_cxx17__normal_iteratorIPS5_S7_EERKS5_@Base 0.9.1-3~
 _ZNSt6vectorIN5vmime7utility3refINS0_3net14serviceFactory17registeredServiceEEESaIS6_EE13_M_insert_auxEN9__gnu_cxx17__normal_iteratorIPS6_S8_EERKS6_@Base 0.9.1-3~
 _ZNSt6vectorIN5vmime7utility3refINS0_3net3tls25TLSSocket_DeleteExWrapperEEESaIS6_EE13_M_insert_auxEN9__gnu_cxx17__normal_iteratorIPS6_S8_EERKS6_@Base 0.9.1-3~
 _ZNSt6vectorIN5vmime7utility3refINS0_3net3tls25TLSSocket_DeleteExWrapperEEESaIS6_EED1Ev@Base 0.9.1-3~
 _ZNSt6vectorIN5vmime7utility3refINS0_3net3tls25TLSSocket_DeleteExWrapperEEESaIS6_EED2Ev@Base 0.9.1-3~
 _ZNSt6vectorIN5vmime7utility3refINS0_3net4imap8IMAPPartEEESaIS6_EE13_M_insert_auxEN9__gnu_cxx17__normal_iteratorIPS6_S8_EERKS6_@Base 0.9.1-3~
 _ZNSt6vectorIN5vmime7utility3refINS0_3net4imap8IMAPPartEEESaIS6_EED1Ev@Base 0.9.1-3~
 _ZNSt6vectorIN5vmime7utility3refINS0_3net4imap8IMAPPartEEESaIS6_EED2Ev@Base 0.9.1-3~
 _ZNSt6vectorIN5vmime7utility3refINS0_3net6folderEEESaIS5_EE13_M_insert_auxEN9__gnu_cxx17__normal_iteratorIPS5_S7_EERKS5_@Base 0.9.1-3~
 _ZNSt6vectorIN5vmime7utility3refINS0_3net6folderEEESaIS5_EE7reserveEm@Base 0.9.1-3~
 _ZNSt6vectorIN5vmime7utility3refINS0_3net6folderEEESaIS5_EED1Ev@Base 0.9.1-3~
 _ZNSt6vectorIN5vmime7utility3refINS0_3net6folderEEESaIS5_EED2Ev@Base 0.9.1-3~
 _ZNSt6vectorIN5vmime7utility3refINS0_3net7maildir11maildirPartEEESaIS6_EE13_M_insert_auxEN9__gnu_cxx17__normal_iteratorIPS6_S8_EERKS6_@Base 0.9.1-3~
 _ZNSt6vectorIN5vmime7utility3refINS0_3net7maildir11maildirPartEEESaIS6_EED1Ev@Base 0.9.1-3~
 _ZNSt6vectorIN5vmime7utility3refINS0_3net7maildir11maildirPartEEESaIS6_EED2Ev@Base 0.9.1-3~
 _ZNSt6vectorIN5vmime7utility3refINS0_3net7messageEEESaIS5_EE13_M_insert_auxEN9__gnu_cxx17__normal_iteratorIPS5_S7_EERKS5_@Base 0.9.1-3~
 _ZNSt6vectorIN5vmime7utility3refINS0_3net7messageEEESaIS5_EED1Ev@Base 0.9.1-3~
 _ZNSt6vectorIN5vmime7utility3refINS0_3net7messageEEESaIS5_EED2Ev@Base 0.9.1-3~
 _ZNSt6vectorIN5vmime7utility3refINS0_4wordEEESaIS4_EE13_M_insert_auxEN9__gnu_cxx17__normal_iteratorIPS4_S6_EERKS4_@Base 0.9.1-3~
 _ZNSt6vectorIN5vmime7utility3refINS0_4wordEEESaIS4_EE14_M_fill_insertEN9__gnu_cxx17__normal_iteratorIPS4_S6_EEmRKS4_@Base 0.9.1-3~
 _ZNSt6vectorIN5vmime7utility3refINS0_4wordEEESaIS4_EE6insertEN9__gnu_cxx17__normal_iteratorIPS4_S6_EERKS4_@Base 0.9.1-3~
 _ZNSt6vectorIN5vmime7utility3refINS0_4wordEEESaIS4_EED1Ev@Base 0.9.1-3~
 _ZNSt6vectorIN5vmime7utility3refINS0_4wordEEESaIS4_EED2Ev@Base 0.9.1-3~
 _ZNSt6vectorIN5vmime7utility3refINS0_7addressEEESaIS4_EE13_M_insert_auxEN9__gnu_cxx17__normal_iteratorIPS4_S6_EERKS4_@Base 0.9.1-3~
 _ZNSt6vectorIN5vmime7utility3refINS0_7addressEEESaIS4_EE6insertEN9__gnu_cxx17__normal_iteratorIPS4_S6_EERKS4_@Base 0.9.1-3~
 _ZNSt6vectorIN5vmime7utility3refINS0_7addressEEESaIS4_EE8_M_eraseEN9__gnu_cxx17__normal_iteratorIPS4_S6_EE@Base 0.9.1-3~
 _ZNSt6vectorIN5vmime7utility3refINS0_7addressEEESaIS4_EED1Ev@Base 0.9.1-3~
 _ZNSt6vectorIN5vmime7utility3refINS0_7addressEEESaIS4_EED2Ev@Base 0.9.1-3~
 _ZNSt6vectorIN5vmime7utility3refINS0_7mailboxEEESaIS4_EE13_M_insert_auxEN9__gnu_cxx17__normal_iteratorIPS4_S6_EERKS4_@Base 0.9.1-3~
 _ZNSt6vectorIN5vmime7utility3refINS0_7mailboxEEESaIS4_EE6insertEN9__gnu_cxx17__normal_iteratorIPS4_S6_EERKS4_@Base 0.9.1-3~
 _ZNSt6vectorIN5vmime7utility3refINS0_7mailboxEEESaIS4_EE8_M_eraseEN9__gnu_cxx17__normal_iteratorIPS4_S6_EE@Base 0.9.1-3~
 _ZNSt6vectorIN5vmime7utility3refINS0_7mailboxEEESaIS4_EED1Ev@Base 0.9.1-3~
 _ZNSt6vectorIN5vmime7utility3refINS0_7mailboxEEESaIS4_EED2Ev@Base 0.9.1-3~
 _ZNSt6vectorIN5vmime7utility3refINS0_8bodyPartEEESaIS4_EE13_M_insert_auxEN9__gnu_cxx17__normal_iteratorIPS4_S6_EERKS4_@Base 0.9.1-3~
 _ZNSt6vectorIN5vmime7utility3refINS0_8bodyPartEEESaIS4_EE6insertEN9__gnu_cxx17__normal_iteratorIPS4_S6_EERKS4_@Base 0.9.1-3~
 _ZNSt6vectorIN5vmime7utility3refINS0_8bodyPartEEESaIS4_EE8_M_eraseEN9__gnu_cxx17__normal_iteratorIPS4_S6_EE@Base 0.9.1-3~
 _ZNSt6vectorIN5vmime7utility3refINS0_8bodyPartEEESaIS4_EED1Ev@Base 0.9.1-3~
 _ZNSt6vectorIN5vmime7utility3refINS0_8bodyPartEEESaIS4_EED2Ev@Base 0.9.1-3~
 _ZNSt6vectorIN5vmime7utility3refINS0_8security4cert11certificateEEESaIS6_EE13_M_insert_auxEN9__gnu_cxx17__normal_iteratorIPS6_S8_EERKS6_@Base 0.9.1-3~
 _ZNSt6vectorIN5vmime7utility3refINS0_8security4cert11certificateEEESaIS6_EED1Ev@Base 0.9.1-3~
 _ZNSt6vectorIN5vmime7utility3refINS0_8security4cert11certificateEEESaIS6_EED2Ev@Base 0.9.1-3~
 _ZNSt6vectorIN5vmime7utility3refINS0_8security4cert15X509CertificateEEESaIS6_EEaSERKS8_@Base 0.9.1-3~
 _ZNSt6vectorIN5vmime7utility3refINS0_8security4sasl13SASLMechanismEEESaIS6_EE13_M_insert_auxEN9__gnu_cxx17__normal_iteratorIPS6_S8_EERKS6_@Base 0.9.1-3~
 _ZNSt6vectorIN5vmime7utility3refINS0_8security4sasl13SASLMechanismEEESaIS6_EED1Ev@Base 0.9.1-3~
 _ZNSt6vectorIN5vmime7utility3refINS0_8security4sasl13SASLMechanismEEESaIS6_EED2Ev@Base 0.9.1-3~
 _ZNSt6vectorIN5vmime7utility3refINS0_8security4sasl13SASLMechanismEEESaIS6_EEaSERKS8_@Base 0.9.1-3~
 _ZNSt6vectorIN5vmime7utility3refINS0_8textPartEEESaIS4_EE13_M_insert_auxEN9__gnu_cxx17__normal_iteratorIPS4_S6_EERKS4_@Base 0.9.1-3~
 _ZNSt6vectorIN5vmime7utility3refINS0_8textPartEEESaIS4_EED1Ev@Base 0.9.1-3~
 _ZNSt6vectorIN5vmime7utility3refINS0_8textPartEEESaIS4_EED2Ev@Base 0.9.1-3~
 _ZNSt6vectorIN5vmime7utility3refINS0_9componentEEESaIS4_EE14_M_fill_insertEN9__gnu_cxx17__normal_iteratorIPS4_S6_EEmRKS4_@Base 0.9.1-3~
 _ZNSt6vectorIN5vmime7utility3refINS0_9messageIdEEESaIS4_EE13_M_insert_auxEN9__gnu_cxx17__normal_iteratorIPS4_S6_EERKS4_@Base 0.9.1-3~
 _ZNSt6vectorIN5vmime7utility3refINS0_9messageIdEEESaIS4_EE6insertEN9__gnu_cxx17__normal_iteratorIPS4_S6_EERKS4_@Base 0.9.1-3~
 _ZNSt6vectorIN5vmime7utility3refINS0_9messageIdEEESaIS4_EE8_M_eraseEN9__gnu_cxx17__normal_iteratorIPS4_S6_EE@Base 0.9.1-3~
 _ZNSt6vectorIN5vmime7utility3refINS0_9messageIdEEESaIS4_EED1Ev@Base 0.9.1-3~
 _ZNSt6vectorIN5vmime7utility3refINS0_9messageIdEEESaIS4_EED2Ev@Base 0.9.1-3~
 _ZNSt6vectorIN5vmime7utility3refINS0_9parameterEEESaIS4_EE13_M_insert_auxEN9__gnu_cxx17__normal_iteratorIPS4_S6_EERKS4_@Base 0.9.1-3~
 _ZNSt6vectorIN5vmime7utility3refINS0_9parameterEEESaIS4_EE6insertEN9__gnu_cxx17__normal_iteratorIPS4_S6_EERKS4_@Base 0.9.1-3~
 _ZNSt6vectorIN5vmime7utility3refINS0_9parameterEEESaIS4_EE8_M_eraseEN9__gnu_cxx17__normal_iteratorIPS4_S6_EE@Base 0.9.1-3~
 _ZNSt6vectorIN5vmime7utility3refINS0_9parameterEEESaIS4_EED1Ev@Base 0.9.1-3~
 _ZNSt6vectorIN5vmime7utility3refINS0_9parameterEEESaIS4_EED2Ev@Base 0.9.1-3~
 _ZNSt6vectorIN5vmime7utility3refINS1_7encoder14encoderFactory17registeredEncoderEEESaIS6_EE13_M_insert_auxEN9__gnu_cxx17__normal_iteratorIPS6_S8_EERKS6_@Base 0.9.1-3~
 _ZNSt6vectorIN5vmime7utility3refINS1_7encoder14encoderFactory17registeredEncoderEEESaIS6_EED1Ev@Base 0.9.1-3~
 _ZNSt6vectorIN5vmime7utility3refINS1_7encoder14encoderFactory17registeredEncoderEEESaIS6_EED2Ev@Base 0.9.1-3~
 _ZNSt6vectorIN5vmime7utility4pathESaIS2_EE13_M_insert_auxEN9__gnu_cxx17__normal_iteratorIPS2_S4_EERKS2_@Base 0.9.1-3~
 _ZNSt6vectorIN5vmime7utility4pathESaIS2_EED1Ev@Base 0.9.1-3~
 _ZNSt6vectorIN5vmime7utility4pathESaIS2_EED2Ev@Base 0.9.1-3~
 _ZNSt6vectorIN5vmime9parameter10valueChunkESaIS2_EE13_M_insert_auxEN9__gnu_cxx17__normal_iteratorIPS2_S4_EERKS2_@Base 0.9.1-3~
 _ZNSt6vectorINSt7__cxx1112basic_stringIcSt11char_traitsIcESaIcEEESaIS5_EE13_M_insert_auxEN9__gnu_cxx17__normal_iteratorIPS5_S7_EERKS5_@Base 0.9.1-3~
 _ZNSt6vectorINSt7__cxx1112basic_stringIcSt11char_traitsIcESaIcEEESaIS5_EE14_M_fill_insertEN9__gnu_cxx17__normal_iteratorIPS5_S7_EEmRKS5_@Base 0.9.1-3~
 _ZNSt6vectorINSt7__cxx1112basic_stringIcSt11char_traitsIcESaIcEEESaIS5_EE9push_backERKS5_@Base 0.9.1-3~
 _ZNSt6vectorINSt7__cxx1112basic_stringIcSt11char_traitsIcESaIcEEESaIS5_EED1Ev@Base 0.9.1-3~
 _ZNSt6vectorINSt7__cxx1112basic_stringIcSt11char_traitsIcESaIcEEESaIS5_EED2Ev@Base 0.9.1-3~
 _ZNSt6vectorINSt7__cxx1112basic_stringIcSt11char_traitsIcESaIcEEESaIS5_EEaSERKS7_@Base 0.9.1-3~
 _ZNSt6vectorIPN5vmime3net4imap10IMAPParser11status_infoESaIS5_EE13_M_insert_auxEN9__gnu_cxx17__normal_iteratorIPS5_S7_EERKS5_@Base 0.9.1-3~
 _ZNSt6vectorIPN5vmime3net4imap10IMAPParser12msg_att_itemESaIS5_EE13_M_insert_auxEN9__gnu_cxx17__normal_iteratorIPS5_S7_EERKS5_@Base 0.9.1-3~
 _ZNSt6vectorIPN5vmime3net4imap10IMAPParser14body_extensionESaIS5_EE13_M_insert_auxEN9__gnu_cxx17__normal_iteratorIPS5_S7_EERKS5_@Base 0.9.1-3~
 _ZNSt6vectorIPN5vmime3net4imap10IMAPParser14body_extensionESaIS5_EE9push_backERKS5_@Base 0.9.1-3~
 _ZNSt6vectorIPN5vmime3net4imap10IMAPParser19body_fld_param_itemESaIS5_EE13_M_insert_auxEN9__gnu_cxx17__normal_iteratorIPS5_S7_EERKS5_@Base 0.9.1-3~
 _ZNSt6vectorIPN5vmime3net4imap10IMAPParser5xbodyESaIS5_EE13_M_insert_auxEN9__gnu_cxx17__normal_iteratorIPS5_S7_EERKS5_@Base 0.9.1-3~
 _ZNSt6vectorIPN5vmime3net4imap10IMAPParser7xstringESaIS5_EE13_M_insert_auxEN9__gnu_cxx17__normal_iteratorIPS5_S7_EERKS5_@Base 0.9.1-3~
 _ZNSt6vectorIPN5vmime3net4imap10IMAPParser9nz_numberESaIS5_EE13_M_insert_auxEN9__gnu_cxx17__normal_iteratorIPS5_S7_EERKS5_@Base 0.9.1-3~
 _ZNSt6vectorIPN5vmime3net4imap10IMAPParser9nz_numberESaIS5_EE9push_backERKS5_@Base 0.9.1-3~
 _ZNSt6vectorIPN5vmime3net7maildir14maildirMessageESaIS4_EE13_M_insert_auxEN9__gnu_cxx17__normal_iteratorIPS4_S6_EERKS4_@Base 0.9.1-3~
 _ZNSt6vectorISt4pairIN5vmime9mediaTypeEPFNS1_7utility3refINS1_8textPartEEEvEESaIS9_EE13_M_insert_auxEN9__gnu_cxx17__normal_iteratorIPS9_SB_EERKS9_@Base 0.9.1-3~
 _ZNSt6vectorIhSaIhEE15_M_range_insertIPKcEEvN9__gnu_cxx17__normal_iteratorIPhS1_EET_S9_St20forward_iterator_tag@Base 0.9.1-3~
 _ZNSt6vectorIhSaIhEE15_M_range_insertIPcEEvN9__gnu_cxx17__normal_iteratorIPhS1_EET_S8_St20forward_iterator_tag@Base 0.9.1-3~
 _ZNSt6vectorIiSaIiEE13_M_insert_auxEN9__gnu_cxx17__normal_iteratorIPiS1_EERKi@Base 0.9.1-3~
 _ZNSt6vectorIiSaIiEE14_M_fill_insertEN9__gnu_cxx17__normal_iteratorIPiS1_EEmRKi@Base 0.9.1-3~
 _ZNSt6vectorIiSaIiEE6resizeEmi@Base 0.9.1-3~
 _ZNSt6vectorIiSaIiEE7reserveEm@Base 0.9.1-3~
 _ZNSt6vectorIjSaIjEE13_M_insert_auxEN9__gnu_cxx17__normal_iteratorIPjS1_EERKj@Base 0.9.1-3~
 _ZNSt7__cxx1110_List_baseIN5vmime7utility3refINS1_11propertySet8propertyEEESaIS6_EE8_M_clearEv@Base 0.9.1-3~
 _ZNSt7__cxx1115basic_stringbufIcSt11char_traitsIcESaIcEED0Ev@Base 0.9.1-3~
 _ZNSt7__cxx1115basic_stringbufIcSt11char_traitsIcESaIcEED1Ev@Base 0.9.1-3~
 _ZNSt7__cxx1115basic_stringbufIcSt11char_traitsIcESaIcEED2Ev@Base 0.9.1-3~
 _ZNSt8_Rb_treeINSt7__cxx1112basic_stringIcSt11char_traitsIcESaIcEEESt4pairIKS5_N5vmime7utility3refINS8_8security4sasl20SASLMechanismFactory19registeredMechanismEEEESt10_Select1stISG_ESt4lessIS5_ESaISG_EE8_M_eraseEPSt13_Rb_tree_nodeISG_E@Base 0.9.1-3~
 _ZNSt8_Rb_treeINSt7__cxx1112basic_stringIcSt11char_traitsIcESaIcEEESt4pairIKS5_N5vmime7utility3refINS8_8security6digest20messageDigestFactory22digestAlgorithmFactoryEEEESt10_Select1stISG_ESt4lessIS5_ESaISG_EE16_M_insert_uniqueERKSG_@Base 0.9.1-3~
 _ZNSt8_Rb_treeINSt7__cxx1112basic_stringIcSt11char_traitsIcESaIcEEESt4pairIKS5_N5vmime7utility3refINS8_8security6digest20messageDigestFactory22digestAlgorithmFactoryEEEESt10_Select1stISG_ESt4lessIS5_ESaISG_EE8_M_eraseEPSt13_Rb_tree_nodeISG_E@Base 0.9.1-3~
 _ZNSt8_Rb_treeINSt7__cxx1112basic_stringIcSt11char_traitsIcESaIcEEESt4pairIKS5_N5vmime9paramInfoEESt10_Select1stISA_ESt4lessIS5_ESaISA_EE16_M_insert_uniqueERKSA_@Base 0.9.1-3~
 _ZNSt8_Rb_treeINSt7__cxx1112basic_stringIcSt11char_traitsIcESaIcEEESt4pairIKS5_N5vmime9paramInfoEESt10_Select1stISA_ESt4lessIS5_ESaISA_EE8_M_eraseEPSt13_Rb_tree_nodeISA_E@Base 0.9.1-3~
 _ZNSt8_Rb_treeINSt7__cxx1112basic_stringIcSt11char_traitsIcESaIcEEESt4pairIKS5_PFN5vmime7utility3refINS8_11headerFieldEEEvEESt10_Select1stISF_ESt4lessIS5_ESaISF_EE16_M_insert_uniqueERKSF_@Base 0.9.1-3~
 _ZNSt8_Rb_treeINSt7__cxx1112basic_stringIcSt11char_traitsIcESaIcEEESt4pairIKS5_PFN5vmime7utility3refINS8_11headerFieldEEEvEESt10_Select1stISF_ESt4lessIS5_ESaISF_EE8_M_eraseEPSt13_Rb_tree_nodeISF_E@Base 0.9.1-3~
 _ZNSt8_Rb_treeINSt7__cxx1112basic_stringIcSt11char_traitsIcESaIcEEESt4pairIKS5_PFN5vmime7utility3refINS8_16headerFieldValueEEEvEESt10_Select1stISF_ESt4lessIS5_ESaISF_EE16_M_insert_uniqueERKSF_@Base 0.9.1-3~
 _ZNSt8_Rb_treeINSt7__cxx1112basic_stringIcSt11char_traitsIcESaIcEEESt4pairIKS5_PFN5vmime7utility3refINS8_16headerFieldValueEEEvEESt10_Select1stISF_ESt4lessIS5_ESaISF_EE8_M_eraseEPSt13_Rb_tree_nodeISF_E@Base 0.9.1-3~
 _ZNSt8_Rb_treeINSt7__cxx1112basic_stringIcSt11char_traitsIcESaIcEEESt4pairIKS5_St6vectorIS5_SaIS5_EEESt10_Select1stISB_ESt4lessIS5_ESaISB_EE24_M_get_insert_unique_posERS7_@Base 0.9.1-3~
 _ZNSt8_Rb_treeINSt7__cxx1112basic_stringIcSt11char_traitsIcESaIcEEESt4pairIKS5_St6vectorIS5_SaIS5_EEESt10_Select1stISB_ESt4lessIS5_ESaISB_EE29_M_get_insert_hint_unique_posESt23_Rb_tree_const_iteratorISB_ERS7_@Base 0.9.1-3~
 _ZNSt8_Rb_treeINSt7__cxx1112basic_stringIcSt11char_traitsIcESaIcEEESt4pairIKS5_St6vectorIS5_SaIS5_EEESt10_Select1stISB_ESt4lessIS5_ESaISB_EE8_M_eraseEPSt13_Rb_tree_nodeISB_E@Base 0.9.1-3~
 _ZNSt8_Rb_treeIPN5vmime3net4pop311POP3MessageESt4pairIKS4_iESt10_Select1stIS7_ESt4lessIS4_ESaIS7_EE8_M_eraseEPSt13_Rb_tree_nodeIS7_E@Base 0.9.1-3~
 _ZNSt8_Rb_treeIiSt4pairIKiN5vmime7utility3refINS2_3net4imap11IMAPMessageEEEESt10_Select1stIS9_ESt4lessIiESaIS9_EE24_M_get_insert_unique_posERS1_@Base 0.9.1-3~
 _ZNSt8_Rb_treeIiSt4pairIKiN5vmime7utility3refINS2_3net4imap11IMAPMessageEEEESt10_Select1stIS9_ESt4lessIiESaIS9_EE29_M_get_insert_hint_unique_posESt23_Rb_tree_const_iteratorIS9_ERS1_@Base 0.9.1-3~
 _ZNSt8_Rb_treeIiSt4pairIKiN5vmime7utility3refINS2_3net4imap11IMAPMessageEEEESt10_Select1stIS9_ESt4lessIiESaIS9_EE8_M_eraseEPSt13_Rb_tree_nodeIS9_E@Base 0.9.1-3~
 _ZNSt8_Rb_treeIiSt4pairIKiNSt7__cxx1112basic_stringIcSt11char_traitsIcESaIcEEEESt10_Select1stIS8_ESt4lessIiESaIS8_EE16_M_insert_uniqueERKS8_@Base 0.9.1-3~
 _ZNSt8_Rb_treeIiSt4pairIKiNSt7__cxx1112basic_stringIcSt11char_traitsIcESaIcEEEESt10_Select1stIS8_ESt4lessIiESaIS8_EE8_M_eraseEPSt13_Rb_tree_nodeIS8_E@Base 0.9.1-3~
 _ZNSt8_Rb_treeIiSt4pairIKiiESt10_Select1stIS2_ESt4lessIiESaIS2_EE24_M_get_insert_unique_posERS1_@Base 0.9.1-3~
 _ZNSt8_Rb_treeIiSt4pairIKiiESt10_Select1stIS2_ESt4lessIiESaIS2_EE29_M_get_insert_hint_unique_posESt23_Rb_tree_const_iteratorIS2_ERS1_@Base 0.9.1-3~
 _ZNSt8_Rb_treeIiSt4pairIKiiESt10_Select1stIS2_ESt4lessIiESaIS2_EE8_M_eraseEPSt13_Rb_tree_nodeIS2_E@Base 0.9.1-3~
 _ZSt11__make_heapIN9__gnu_cxx17__normal_iteratorIPNSt7__cxx1112basic_stringIcSt11char_traitsIcESaIcEEESt6vectorIS7_SaIS7_EEEENS0_5__ops15_Iter_less_iterEEvT_SF_T0_@Base 0.9.1-3~
 _ZSt13__adjust_heapIN9__gnu_cxx17__normal_iteratorIPNSt7__cxx1112basic_stringIcSt11char_traitsIcESaIcEEESt6vectorIS7_SaIS7_EEEElS7_NS0_5__ops15_Iter_less_iterEEvT_T0_SG_T1_T2_@Base 0.9.1-3~
 _ZSt13__adjust_heapIN9__gnu_cxx17__normal_iteratorIPiSt6vectorIiSaIiEEEEliNS0_5__ops15_Iter_less_iterEEvT_T0_SA_T1_T2_@Base 0.9.1-3~
 _ZSt13copy_backwardIPPN5vmime3net4imap10IMAPParser29continue_req_or_response_dataES6_ET0_T_S8_S7_@Base 0.9.1-3~
 _ZSt13copy_backwardIPPN5vmime3net4imap11IMAPMessageES5_ET0_T_S7_S6_@Base 0.9.1-3~
 _ZSt16__insertion_sortIN9__gnu_cxx17__normal_iteratorIPNSt7__cxx1112basic_stringIcSt11char_traitsIcESaIcEEESt6vectorIS7_SaIS7_EEEENS0_5__ops15_Iter_less_iterEEvT_SF_T0_@Base 0.9.1-3~
 _ZSt16__insertion_sortIN9__gnu_cxx17__normal_iteratorIPiSt6vectorIiSaIiEEEENS0_5__ops15_Iter_less_iterEEvT_S9_T0_@Base 0.9.1-3~
 _ZSt25__unguarded_linear_insertIN9__gnu_cxx17__normal_iteratorIPNSt7__cxx1112basic_stringIcSt11char_traitsIcESaIcEEESt6vectorIS7_SaIS7_EEEENS0_5__ops14_Val_less_iterEEvT_T0_@Base 0.9.1-3~
 _ZSt9__find_ifIN9__gnu_cxx17__normal_iteratorIPKN5vmime7utility3refINS2_11headerFieldEEESt6vectorIS6_SaIS6_EEEENS0_5__ops10_Iter_predINS2_6header12fieldHasNameEEEET_SI_SI_T0_St26random_access_iterator_tag@Base 0.9.1-3~
 _ZSt9__find_ifIN9__gnu_cxx17__normal_iteratorIPN5vmime4wordESt6vectorIS3_SaIS3_EEEENS0_5__ops10_Iter_predINS2_3net7maildir12maildirUtils19messageIdComparatorEEEET_SG_SG_T0_St26random_access_iterator_tag@Base 0.9.1-3~
 _ZSt9__find_ifIPcN9__gnu_cxx5__ops16_Iter_equals_valIKcEEET_S6_S6_T0_St26random_access_iterator_tag@Base 0.9.1-3~
 _ZStplIcSt11char_traitsIcESaIcEENSt7__cxx1112basic_stringIT_T0_T1_EEPKS5_RKS8_@Base 0.9.1-3~
 _ZStplIcSt11char_traitsIcESaIcEENSt7__cxx1112basic_stringIT_T0_T1_EERKS8_PKS5_@Base 0.9.1-3~
 _ZStplIcSt11char_traitsIcESaIcEENSt7__cxx1112basic_stringIT_T0_T1_EERKS8_SA_@Base 0.9.1-3~
 _ZTIN5vmime10attachmentE@Base 0.9.1-3~
 _ZTIN5vmime10exceptions12no_expeditorE@Base 0.9.1-3~
 _ZTIN5vmime10exceptions12no_recipientE@Base 0.9.1-3~
 _ZTIN5vmime10exceptions12no_such_partE@Base 0.9.1-3~
 _ZTIN5vmime10exceptions12system_errorE@Base 0.9.1-3~
 _ZTIN5vmime10exceptions13command_errorE@Base 0.9.1-3~
 _ZTIN5vmime10exceptions13illegal_stateE@Base 0.9.1-3~
 _ZTIN5vmime10exceptions13malformed_urlE@Base 0.9.1-3~
 _ZTIN5vmime10exceptions13net_exceptionE@Base 0.9.1-3~
 _ZTIN5vmime10exceptions13no_such_fieldE@Base 0.9.1-3~
 _ZTIN5vmime10exceptions13not_connectedE@Base 0.9.1-3~
 _ZTIN5vmime10exceptions13tls_exceptionE@Base 0.9.1-3~
 _ZTIN5vmime10exceptions14bad_field_typeE@Base 0.9.1-3~
 _ZTIN5vmime10exceptions14file_not_foundE@Base 0.9.1-3~
 _ZTIN5vmime10exceptions14sasl_exceptionE@Base 0.9.1-3~
 _ZTIN5vmime10exceptions15no_object_foundE@Base 0.9.1-3~
 _ZTIN5vmime10exceptions15no_such_addressE@Base 0.9.1-3~
 _ZTIN5vmime10exceptions15no_such_mailboxE@Base 0.9.1-3~
 _ZTIN5vmime10exceptions15not_a_directoryE@Base 0.9.1-3~
 _ZTIN5vmime10exceptions15open_file_errorE@Base 0.9.1-3~
 _ZTIN5vmime10exceptions16connection_errorE@Base 0.9.1-3~
 _ZTIN5vmime10exceptions16folder_not_foundE@Base 0.9.1-3~
 _ZTIN5vmime10exceptions16invalid_argumentE@Base 0.9.1-3~
 _ZTIN5vmime10exceptions16invalid_responseE@Base 0.9.1-3~
 _ZTIN5vmime10exceptions16no_such_propertyE@Base 0.9.1-3~
 _ZTIN5vmime10exceptions16socket_exceptionE@Base 0.9.1-3~
 _ZTIN5vmime10exceptions16unfetched_objectE@Base 0.9.1-3~
 _ZTIN5vmime10exceptions17already_connectedE@Base 0.9.1-3~
 _ZTIN5vmime10exceptions17illegal_operationE@Base 0.9.1-3~
 _ZTIN5vmime10exceptions17message_not_foundE@Base 0.9.1-3~
 _ZTIN5vmime10exceptions17no_such_mechanismE@Base 0.9.1-3~
 _ZTIN5vmime10exceptions17no_such_parameterE@Base 0.9.1-3~
 _ZTIN5vmime10exceptions18charset_conv_errorE@Base 0.9.1-3~
 _ZTIN5vmime10exceptions18no_such_message_idE@Base 0.9.1-3~
 _ZTIN5vmime10exceptions18unsupported_optionE@Base 0.9.1-3~
 _ZTIN5vmime10exceptions19invalid_folder_nameE@Base 0.9.1-3~
 _ZTIN5vmime10exceptions19no_auth_informationE@Base 0.9.1-3~
 _ZTIN5vmime10exceptions19no_platform_handlerE@Base 0.9.1-3~
 _ZTIN5vmime10exceptions19operation_cancelledE@Base 0.9.1-3~
 _ZTIN5vmime10exceptions19operation_timed_outE@Base 0.9.1-3~
 _ZTIN5vmime10exceptions20authentication_errorE@Base 0.9.1-3~
 _ZTIN5vmime10exceptions20filesystem_exceptionE@Base 0.9.1-3~
 _ZTIN5vmime10exceptions20no_encoder_availableE@Base 0.9.1-3~
 _ZTIN5vmime10exceptions20no_factory_availableE@Base 0.9.1-3~
 _ZTIN5vmime10exceptions20no_service_availableE@Base 0.9.1-3~
 _ZTIN5vmime10exceptions21certificate_exceptionE@Base 0.9.1-3~
 _ZTIN5vmime10exceptions21invalid_property_typeE@Base 0.9.1-3~
 _ZTIN5vmime10exceptions23operation_not_supportedE@Base 0.9.1-3~
 _ZTIN5vmime10exceptions24authentication_exceptionE@Base 0.9.1-3~
 _ZTIN5vmime10exceptions25connection_greeting_errorE@Base 0.9.1-3~
 _ZTIN5vmime10exceptions27partial_fetch_not_supportedE@Base 0.9.1-3~
 _ZTIN5vmime10exceptions28unsupported_certificate_typeE@Base 0.9.1-3~
 _ZTIN5vmime10exceptions29no_digest_algorithm_availableE@Base 0.9.1-3~
 _ZTIN5vmime10exceptions34certificate_verification_exceptionE@Base 0.9.1-3~
 _ZTIN5vmime11addressListE@Base 0.9.1-3~
 _ZTIN5vmime11dispositionE@Base 0.9.1-3~
 _ZTIN5vmime11headerFieldE@Base 0.9.1-3~
 _ZTIN5vmime11mailboxListE@Base 0.9.1-3~
 _ZTIN5vmime11propertySet8propertyE@Base 0.9.1-3~
 _ZTIN5vmime11propertySetE@Base 0.9.1-3~
 _ZTIN5vmime12htmlTextPart14embeddedObjectE@Base 0.9.1-3~
 _ZTIN5vmime12htmlTextPartE@Base 0.9.1-3~
 _ZTIN5vmime12mailboxFieldE@Base 0.9.1-3~
 _ZTIN5vmime12mailboxGroupE@Base 0.9.1-3~
 _ZTIN5vmime13plainTextPartE@Base 0.9.1-3~
 _ZTIN5vmime14contentHandlerE@Base 0.9.1-3~
 _ZTIN5vmime14fileAttachmentE@Base 0.9.1-3~
 _ZTIN5vmime16charsetConverterE@Base 0.9.1-3~
 _ZTIN5vmime16contentTypeFieldE@Base 0.9.1-3~
 _ZTIN5vmime16headerFieldValueE@Base 0.9.1-3~
 _ZTIN5vmime17defaultAttachmentE@Base 0.9.1-3~
 _ZTIN5vmime17messageAttachmentE@Base 0.9.1-3~
 _ZTIN5vmime17messageIdSequenceE@Base 0.9.1-3~
 _ZTIN5vmime18bodyPartAttachmentE@Base 0.9.1-3~
 _ZTIN5vmime18contentDispositionE@Base 0.9.1-3~
 _ZTIN5vmime19emptyContentHandlerE@Base 0.9.1-3~
 _ZTIN5vmime20streamContentHandlerE@Base 0.9.1-3~
 _ZTIN5vmime20stringContentHandlerE@Base 0.9.1-3~
 _ZTIN5vmime23contentDispositionFieldE@Base 0.9.1-3~
 _ZTIN5vmime23parsedMessageAttachmentE@Base 0.9.1-3~
 _ZTIN5vmime24parameterizedHeaderFieldE@Base 0.9.1-3~
 _ZTIN5vmime26generatedMessageAttachmentE@Base 0.9.1-3~
 _ZTIN5vmime3mdn16receivedMDNInfosE@Base 0.9.1-3~
 _ZTIN5vmime3mdn16sendableMDNInfosE@Base 0.9.1-3~
 _ZTIN5vmime3mdn8MDNInfosE@Base 0.9.1-3~
 _ZTIN5vmime3net12serviceInfosE@Base 0.9.1-3~
 _ZTIN5vmime3net13socketFactoryE@Base 0.9.1-3~
 _ZTIN5vmime3net14serviceFactory17registeredServiceE@Base 0.9.1-3~
 _ZTIN5vmime3net14timeoutHandlerE@Base 0.9.1-3~
 _ZTIN5vmime3net15connectionInfosE@Base 0.9.1-3~
 _ZTIN5vmime3net21registeredServiceImplINS0_4imap10IMAPSStoreEEE@Base 0.9.1-3~
 _ZTIN5vmime3net21registeredServiceImplINS0_4imap9IMAPStoreEEE@Base 0.9.1-3~
 _ZTIN5vmime3net21registeredServiceImplINS0_4pop310POP3SStoreEEE@Base 0.9.1-3~
 _ZTIN5vmime3net21registeredServiceImplINS0_4pop39POP3StoreEEE@Base 0.9.1-3~
 _ZTIN5vmime3net21registeredServiceImplINS0_4smtp13SMTPTransportEEE@Base 0.9.1-3~
 _ZTIN5vmime3net21registeredServiceImplINS0_4smtp14SMTPSTransportEEE@Base 0.9.1-3~
 _ZTIN5vmime3net21registeredServiceImplINS0_7maildir12maildirStoreEEE@Base 0.9.1-3~
 _ZTIN5vmime3net21registeredServiceImplINS0_8sendmail17sendmailTransportEEE@Base 0.9.1-3~
 _ZTIN5vmime3net22defaultConnectionInfosE@Base 0.9.1-3~
 _ZTIN5vmime3net22securedConnectionInfosE@Base 0.9.1-3~
 _ZTIN5vmime3net3tls10TLSSessionE@Base 0.9.1-3~
 _ZTIN5vmime3net3tls25TLSSecuredConnectionInfosE@Base 0.9.1-3~
 _ZTIN5vmime3net3tls25TLSSocket_DeleteExWrapperE@Base 0.9.1-3~
 _ZTIN5vmime3net3tls9TLSSocketE@Base 0.9.1-3~
 _ZTIN5vmime3net4imap10IMAPFolderE@Base 0.9.1-3~
 _ZTIN5vmime3net4imap10IMAPParser10capabilityE@Base 0.9.1-3~
 _ZTIN5vmime3net4imap10IMAPParser10env_senderE@Base 0.9.1-3~
 _ZTIN5vmime3net4imap10IMAPParser10media_textE@Base 0.9.1-3~
 _ZTIN5vmime3net4imap10IMAPParser10status_attE@Base 0.9.1-3~
 _ZTIN5vmime3net4imap10IMAPParser10text_mime2E@Base 0.9.1-3~
 _ZTIN5vmime3net4imap10IMAPParser11QUOTED_CHARE@Base 0.9.1-3~
 _ZTIN5vmime3net4imap10IMAPParser11body_fieldsE@Base 0.9.1-3~
 _ZTIN5vmime3net4imap10IMAPParser11env_subjectE@Base 0.9.1-3~
 _ZTIN5vmime3net4imap10IMAPParser11header_listE@Base 0.9.1-3~
 _ZTIN5vmime3net4imap10IMAPParser11media_basicE@Base 0.9.1-3~
 _ZTIN5vmime3net4imap10IMAPParser11quoted_textE@Base 0.9.1-3~
 _ZTIN5vmime3net4imap10IMAPParser11status_infoE@Base 0.9.1-3~
 _ZTIN5vmime3net4imap10IMAPParser11text_exceptILc93EEE@Base 0.9.1-3~
 _ZTIN5vmime3net4imap10IMAPParser12address_listE@Base 0.9.1-3~
 _ZTIN5vmime3net4imap10IMAPParser12body_fld_dspE@Base 0.9.1-3~
 _ZTIN5vmime3net4imap10IMAPParser12continue_reqE@Base 0.9.1-3~
 _ZTIN5vmime3net4imap10IMAPParser12env_reply_toE@Base 0.9.1-3~
 _ZTIN5vmime3net4imap10IMAPParser12mailbox_dataE@Base 0.9.1-3~
 _ZTIN5vmime3net4imap10IMAPParser12mailbox_flagE@Base 0.9.1-3~
 _ZTIN5vmime3net4imap10IMAPParser12mailbox_listE@Base 0.9.1-3~
 _ZTIN5vmime3net4imap10IMAPParser12message_dataE@Base 0.9.1-3~
 _ZTIN5vmime3net4imap10IMAPParser12msg_att_itemE@Base 0.9.1-3~
 _ZTIN5vmime3net4imap10IMAPParser12section_textE@Base 0.9.1-3~
 _ZTIN5vmime3net4imap10IMAPParser12special_atomE@Base 0.9.1-3~
 _ZTIN5vmime3net4imap10IMAPParser12text8_exceptILc63EEE@Base 0.9.1-3~
 _ZTIN5vmime3net4imap10IMAPParser13body_fld_langE@Base 0.9.1-3~
 _ZTIN5vmime3net4imap10IMAPParser13body_type_msgE@Base 0.9.1-3~
 _ZTIN5vmime3net4imap10IMAPParser13media_messageE@Base 0.9.1-3~
 _ZTIN5vmime3net4imap10IMAPParser13resp_cond_byeE@Base 0.9.1-3~
 _ZTIN5vmime3net4imap10IMAPParser13response_dataE@Base 0.9.1-3~
 _ZTIN5vmime3net4imap10IMAPParser13response_doneE@Base 0.9.1-3~
 _ZTIN5vmime3net4imap10IMAPParser14body_ext_1partE@Base 0.9.1-3~
 _ZTIN5vmime3net4imap10IMAPParser14body_ext_mpartE@Base 0.9.1-3~
 _ZTIN5vmime3net4imap10IMAPParser14body_extensionE@Base 0.9.1-3~
 _ZTIN5vmime3net4imap10IMAPParser14body_fld_paramE@Base 0.9.1-3~
 _ZTIN5vmime3net4imap10IMAPParser14body_type_textE@Base 0.9.1-3~
 _ZTIN5vmime3net4imap10IMAPParser14env_message_idE@Base 0.9.1-3~
 _ZTIN5vmime3net4imap10IMAPParser14literalHandler12targetStreamE@Base 0.9.1-3~
 _ZTIN5vmime3net4imap10IMAPParser14literalHandler12targetStringE@Base 0.9.1-3~
 _ZTIN5vmime3net4imap10IMAPParser14literalHandler6targetE@Base 0.9.1-3~
 _ZTIN5vmime3net4imap10IMAPParser14literalHandlerE@Base 0.9.1-3~
 _ZTIN5vmime3net4imap10IMAPParser14resp_cond_authE@Base 0.9.1-3~
 _ZTIN5vmime3net4imap10IMAPParser14resp_text_codeE@Base 0.9.1-3~
 _ZTIN5vmime3net4imap10IMAPParser14response_fatalE@Base 0.9.1-3~
 _ZTIN5vmime3net4imap10IMAPParser15body_type_1partE@Base 0.9.1-3~
 _ZTIN5vmime3net4imap10IMAPParser15body_type_basicE@Base 0.9.1-3~
 _ZTIN5vmime3net4imap10IMAPParser15body_type_mpartE@Base 0.9.1-3~
 _ZTIN5vmime3net4imap10IMAPParser15capability_dataE@Base 0.9.1-3~
 _ZTIN5vmime3net4imap10IMAPParser15env_in_reply_toE@Base 0.9.1-3~
 _ZTIN5vmime3net4imap10IMAPParser15resp_cond_stateE@Base 0.9.1-3~
 _ZTIN5vmime3net4imap10IMAPParser15response_taggedE@Base 0.9.1-3~
 _ZTIN5vmime3net4imap10IMAPParser17mailbox_flag_listE@Base 0.9.1-3~
 _ZTIN5vmime3net4imap10IMAPParser19body_fld_param_itemE@Base 0.9.1-3~
 _ZTIN5vmime3net4imap10IMAPParser29continue_req_or_response_dataE@Base 0.9.1-3~
 _ZTIN5vmime3net4imap10IMAPParser4CRLFE@Base 0.9.1-3~
 _ZTIN5vmime3net4imap10IMAPParser4atomE@Base 0.9.1-3~
 _ZTIN5vmime3net4imap10IMAPParser4flagE@Base 0.9.1-3~
 _ZTIN5vmime3net4imap10IMAPParser4textE@Base 0.9.1-3~
 _ZTIN5vmime3net4imap10IMAPParser4xtagE@Base 0.9.1-3~
 _ZTIN5vmime3net4imap10IMAPParser5SPACEE@Base 0.9.1-3~
 _ZTIN5vmime3net4imap10IMAPParser5xbodyE@Base 0.9.1-3~
 _ZTIN5vmime3net4imap10IMAPParser6env_ccE@Base 0.9.1-3~
 _ZTIN5vmime3net4imap10IMAPParser6env_toE@Base 0.9.1-3~
 _ZTIN5vmime3net4imap10IMAPParser6numberE@Base 0.9.1-3~
 _ZTIN5vmime3net4imap10IMAPParser7addressE@Base 0.9.1-3~
 _ZTIN5vmime3net4imap10IMAPParser7astringE@Base 0.9.1-3~
 _ZTIN5vmime3net4imap10IMAPParser7env_bccE@Base 0.9.1-3~
 _ZTIN5vmime3net4imap10IMAPParser7mailboxE@Base 0.9.1-3~
 _ZTIN5vmime3net4imap10IMAPParser7msg_attE@Base 0.9.1-3~
 _ZTIN5vmime3net4imap10IMAPParser7nstringE@Base 0.9.1-3~
 _ZTIN5vmime3net4imap10IMAPParser7sectionE@Base 0.9.1-3~
 _ZTIN5vmime3net4imap10IMAPParser7xstringE@Base 0.9.1-3~
 _ZTIN5vmime3net4imap10IMAPParser8env_dateE@Base 0.9.1-3~
 _ZTIN5vmime3net4imap10IMAPParser8env_fromE@Base 0.9.1-3~
 _ZTIN5vmime3net4imap10IMAPParser8envelopeE@Base 0.9.1-3~
 _ZTIN5vmime3net4imap10IMAPParser8greetingE@Base 0.9.1-3~
 _ZTIN5vmime3net4imap10IMAPParser8one_charILc123EEE@Base 0.9.1-3~
 _ZTIN5vmime3net4imap10IMAPParser8one_charILc125EEE@Base 0.9.1-3~
 _ZTIN5vmime3net4imap10IMAPParser8one_charILc34EEE@Base 0.9.1-3~
 _ZTIN5vmime3net4imap10IMAPParser8one_charILc40EEE@Base 0.9.1-3~
 _ZTIN5vmime3net4imap10IMAPParser8one_charILc41EEE@Base 0.9.1-3~
 _ZTIN5vmime3net4imap10IMAPParser8one_charILc42EEE@Base 0.9.1-3~
 _ZTIN5vmime3net4imap10IMAPParser8one_charILc43EEE@Base 0.9.1-3~
 _ZTIN5vmime3net4imap10IMAPParser8one_charILc45EEE@Base 0.9.1-3~
 _ZTIN5vmime3net4imap10IMAPParser8one_charILc46EEE@Base 0.9.1-3~
 _ZTIN5vmime3net4imap10IMAPParser8one_charILc58EEE@Base 0.9.1-3~
 _ZTIN5vmime3net4imap10IMAPParser8one_charILc60EEE@Base 0.9.1-3~
 _ZTIN5vmime3net4imap10IMAPParser8one_charILc61EEE@Base 0.9.1-3~
 _ZTIN5vmime3net4imap10IMAPParser8one_charILc62EEE@Base 0.9.1-3~
 _ZTIN5vmime3net4imap10IMAPParser8one_charILc63EEE@Base 0.9.1-3~
 _ZTIN5vmime3net4imap10IMAPParser8one_charILc91EEE@Base 0.9.1-3~
 _ZTIN5vmime3net4imap10IMAPParser8one_charILc92EEE@Base 0.9.1-3~
 _ZTIN5vmime3net4imap10IMAPParser8one_charILc93EEE@Base 0.9.1-3~
 _ZTIN5vmime3net4imap10IMAPParser8responseE@Base 0.9.1-3~
 _ZTIN5vmime3net4imap10IMAPParser9auth_typeE@Base 0.9.1-3~
 _ZTIN5vmime3net4imap10IMAPParser9componentE@Base 0.9.1-3~
 _ZTIN5vmime3net4imap10IMAPParser9date_timeE@Base 0.9.1-3~
 _ZTIN5vmime3net4imap10IMAPParser9flag_listE@Base 0.9.1-3~
 _ZTIN5vmime3net4imap10IMAPParser9nz_numberE@Base 0.9.1-3~
 _ZTIN5vmime3net4imap10IMAPParser9resp_textE@Base 0.9.1-3~
 _ZTIN5vmime3net4imap10IMAPParserE@Base 0.9.1-3~
 _ZTIN5vmime3net4imap10IMAPSStoreE@Base 0.9.1-3~
 _ZTIN5vmime3net4imap11IMAPMessageE@Base 0.9.1-3~
 _ZTIN5vmime3net4imap13IMAPStructureE@Base 0.9.1-3~
 _ZTIN5vmime3net4imap14IMAPConnectionE@Base 0.9.1-3~
 _ZTIN5vmime3net4imap16IMAPServiceInfosE@Base 0.9.1-3~
 _ZTIN5vmime3net4imap26IMAPMessage_literalHandlerE@Base 0.9.1-3~
 _ZTIN5vmime3net4imap29IMAPMessagePartContentHandlerE@Base 0.9.1-3~
 _ZTIN5vmime3net4imap7IMAPTagE@Base 0.9.1-3~
 _ZTIN5vmime3net4imap8IMAPPartE@Base 0.9.1-3~
 _ZTIN5vmime3net4imap9IMAPStoreE@Base 0.9.1-3~
 _ZTIN5vmime3net4partE@Base 0.9.1-3~
 _ZTIN5vmime3net4pop310POP3FolderE@Base 0.9.1-3~
 _ZTIN5vmime3net4pop310POP3SStoreE@Base 0.9.1-3~
 _ZTIN5vmime3net4pop311POP3MessageE@Base 0.9.1-3~
 _ZTIN5vmime3net4pop316POP3ServiceInfosE@Base 0.9.1-3~
 _ZTIN5vmime3net4pop39POP3StoreE@Base 0.9.1-3~
 _ZTIN5vmime3net4smtp12SMTPResponseE@Base 0.9.1-3~
 _ZTIN5vmime3net4smtp13SMTPTransportE@Base 0.9.1-3~
 _ZTIN5vmime3net4smtp14SMTPSTransportE@Base 0.9.1-3~
 _ZTIN5vmime3net4smtp16SMTPServiceInfosE@Base 0.9.1-3~
 _ZTIN5vmime3net5storeE@Base 0.9.1-3~
 _ZTIN5vmime3net6folderE@Base 0.9.1-3~
 _ZTIN5vmime3net6socketE@Base 0.9.1-3~
 _ZTIN5vmime3net7maildir11maildirPartE@Base 0.9.1-3~
 _ZTIN5vmime3net7maildir12maildirStoreE@Base 0.9.1-3~
 _ZTIN5vmime3net7maildir13maildirFolderE@Base 0.9.1-3~
 _ZTIN5vmime3net7maildir13maildirFormat7contextE@Base 0.9.1-3~
 _ZTIN5vmime3net7maildir13maildirFormatE@Base 0.9.1-3~
 _ZTIN5vmime3net7maildir14maildirMessageE@Base 0.9.1-3~
 _ZTIN5vmime3net7maildir16maildirStructureE@Base 0.9.1-3~
 _ZTIN5vmime3net7maildir19maildirServiceInfosE@Base 0.9.1-3~
 _ZTIN5vmime3net7maildir6format18kmailMaildirFormatE@Base 0.9.1-3~
 _ZTIN5vmime3net7maildir6format20courierMaildirFormatE@Base 0.9.1-3~
 _ZTIN5vmime3net7messageE@Base 0.9.1-3~
 _ZTIN5vmime3net7serviceE@Base 0.9.1-3~
 _ZTIN5vmime3net7sessionE@Base 0.9.1-3~
 _ZTIN5vmime3net8sendmail17sendmailTransportE@Base 0.9.1-3~
 _ZTIN5vmime3net8sendmail20sendmailServiceInfosE@Base 0.9.1-3~
 _ZTIN5vmime3net9structureE@Base 0.9.1-3~
 _ZTIN5vmime3net9transportE@Base 0.9.1-3~
 _ZTIN5vmime4bodyE@Base 0.9.1-3~
 _ZTIN5vmime4pathE@Base 0.9.1-3~
 _ZTIN5vmime4textE@Base 0.9.1-3~
 _ZTIN5vmime4wordE@Base 0.9.1-3~
 _ZTIN5vmime5relayE@Base 0.9.1-3~
 _ZTIN5vmime6headerE@Base 0.9.1-3~
 _ZTIN5vmime6objectE@Base 0.9.1-3~
 _ZTIN5vmime7addressE@Base 0.9.1-3~
 _ZTIN5vmime7charsetE@Base 0.9.1-3~
 _ZTIN5vmime7mailboxE@Base 0.9.1-3~
 _ZTIN5vmime7messageE@Base 0.9.1-3~
 _ZTIN5vmime7utility10fileReaderE@Base 0.9.1-3~
 _ZTIN5vmime7utility10fileWriterE@Base 0.9.1-3~
 _ZTIN5vmime7utility10refManagerE@Base 0.9.1-3~
 _ZTIN5vmime7utility11inputStreamE@Base 0.9.1-3~
 _ZTIN5vmime7utility12childProcessE@Base 0.9.1-3~
 _ZTIN5vmime7utility12fileIteratorE@Base 0.9.1-3~
 _ZTIN5vmime7utility12outputStreamE@Base 0.9.1-3~
 _ZTIN5vmime7utility14refManagerImplE@Base 0.9.1-3~
 _ZTIN5vmime7utility16progressListenerE@Base 0.9.1-3~
 _ZTIN5vmime7utility17fileSystemFactoryE@Base 0.9.1-3~
 _ZTIN5vmime7utility18inputStreamAdapterE@Base 0.9.1-3~
 _ZTIN5vmime7utility19childProcessFactoryE@Base 0.9.1-3~
 _ZTIN5vmime7utility19filteredInputStreamE@Base 0.9.1-3~
 _ZTIN5vmime7utility19outputStreamAdapterE@Base 0.9.1-3~
 _ZTIN5vmime7utility20filteredOutputStreamE@Base 0.9.1-3~
 _ZTIN5vmime7utility22dotFilteredInputStreamE@Base 0.9.1-3~
 _ZTIN5vmime7utility23dotFilteredOutputStreamE@Base 0.9.1-3~
 _ZTIN5vmime7utility24inputStreamSocketAdapterE@Base 0.9.1-3~
 _ZTIN5vmime7utility24inputStreamStringAdapterE@Base 0.9.1-3~
 _ZTIN5vmime7utility25inputStreamPointerAdapterE@Base 0.9.1-3~
 _ZTIN5vmime7utility25outputStreamSocketAdapterE@Base 0.9.1-3~
 _ZTIN5vmime7utility25outputStreamStringAdapterE@Base 0.9.1-3~
 _ZTIN5vmime7utility27charsetFilteredOutputStreamE@Base 0.9.1-3~
 _ZTIN5vmime7utility27progressListenerSizeAdapterE@Base 0.9.1-3~
 _ZTIN5vmime7utility28CRLFToLFFilteredOutputStreamE@Base 0.9.1-3~
 _ZTIN5vmime7utility28inputStreamByteBufferAdapterE@Base 0.9.1-3~
 _ZTIN5vmime7utility28outputStreamByteArrayAdapterE@Base 0.9.1-3~
 _ZTIN5vmime7utility29inputStreamStringProxyAdapterE@Base 0.9.1-3~
 _ZTIN5vmime7utility31stopSequenceFilteredInputStreamILi3EEE@Base 0.9.1-3~
 _ZTIN5vmime7utility31stopSequenceFilteredInputStreamILi5EEE@Base 0.9.1-3~
 _ZTIN5vmime7utility3refIKNS0_7encoder14encoderFactory17registeredEncoderEEE@Base 0.9.1-3~
 _ZTIN5vmime7utility3refIKNS_10attachmentEEE@Base 0.9.1-3~
 _ZTIN5vmime7utility3refIKNS_11addressListEEE@Base 0.9.1-3~
 _ZTIN5vmime7utility3refIKNS_11dispositionEEE@Base 0.9.1-3~
 _ZTIN5vmime7utility3refIKNS_11headerFieldEEE@Base 0.9.1-3~
 _ZTIN5vmime7utility3refIKNS_11mailboxListEEE@Base 0.9.1-3~
 _ZTIN5vmime7utility3refIKNS_11propertySet8propertyEEE@Base 0.9.1-3~
 _ZTIN5vmime7utility3refIKNS_12htmlTextPart14embeddedObjectEEE@Base 0.9.1-3~
 _ZTIN5vmime7utility3refIKNS_12mailboxGroupEEE@Base 0.9.1-3~
 _ZTIN5vmime7utility3refIKNS_14contentHandlerEEE@Base 0.9.1-3~
 _ZTIN5vmime7utility3refIKNS_16contentTypeFieldEEE@Base 0.9.1-3~
 _ZTIN5vmime7utility3refIKNS_16headerFieldValueEEE@Base 0.9.1-3~
 _ZTIN5vmime7utility3refIKNS_18contentDispositionEEE@Base 0.9.1-3~
 _ZTIN5vmime7utility3refIKNS_23contentDispositionFieldEEE@Base 0.9.1-3~
 _ZTIN5vmime7utility3refIKNS_3net14serviceFactory17registeredServiceEEE@Base 0.9.1-3~
 _ZTIN5vmime7utility3refIKNS_3net4imap10IMAPFolderEEE@Base 0.9.1-3~
 _ZTIN5vmime7utility3refIKNS_3net4imap10IMAPParserEEE@Base 0.9.1-3~
 _ZTIN5vmime7utility3refIKNS_3net4imap11IMAPMessageEEE@Base 0.9.1-3~
 _ZTIN5vmime7utility3refIKNS_3net4imap7IMAPTagEEE@Base 0.9.1-3~
 _ZTIN5vmime7utility3refIKNS_3net4imap8IMAPPartEEE@Base 0.9.1-3~
 _ZTIN5vmime7utility3refIKNS_3net4imap9IMAPStoreEEE@Base 0.9.1-3~
 _ZTIN5vmime7utility3refIKNS_3net4partEEE@Base 0.9.1-3~
 _ZTIN5vmime7utility3refIKNS_3net4pop310POP3FolderEEE@Base 0.9.1-3~
 _ZTIN5vmime7utility3refIKNS_3net4pop39POP3StoreEEE@Base 0.9.1-3~
 _ZTIN5vmime7utility3refIKNS_3net5storeEEE@Base 0.9.1-3~
 _ZTIN5vmime7utility3refIKNS_3net6socketEEE@Base 0.9.1-3~
 _ZTIN5vmime7utility3refIKNS_3net7maildir11maildirPartEEE@Base 0.9.1-3~
 _ZTIN5vmime7utility3refIKNS_3net7maildir12maildirStoreEEE@Base 0.9.1-3~
 _ZTIN5vmime7utility3refIKNS_3net7maildir13maildirFolderEEE@Base 0.9.1-3~
 _ZTIN5vmime7utility3refIKNS_3net7maildir13maildirFormat7contextEEE@Base 0.9.1-3~
 _ZTIN5vmime7utility3refIKNS_3net7maildir13maildirFormatEEE@Base 0.9.1-3~
 _ZTIN5vmime7utility3refIKNS_3net7serviceEEE@Base 0.9.1-3~
 _ZTIN5vmime7utility3refIKNS_3net7sessionEEE@Base 0.9.1-3~
 _ZTIN5vmime7utility3refIKNS_3net9structureEEE@Base 0.9.1-3~
 _ZTIN5vmime7utility3refIKNS_4bodyEEE@Base 0.9.1-3~
 _ZTIN5vmime7utility3refIKNS_4pathEEE@Base 0.9.1-3~
 _ZTIN5vmime7utility3refIKNS_4textEEE@Base 0.9.1-3~
 _ZTIN5vmime7utility3refIKNS_4wordEEE@Base 0.9.1-3~
 _ZTIN5vmime7utility3refIKNS_5relayEEE@Base 0.9.1-3~
 _ZTIN5vmime7utility3refIKNS_6headerEEE@Base 0.9.1-3~
 _ZTIN5vmime7utility3refIKNS_6objectEEE@Base 0.9.1-3~
 _ZTIN5vmime7utility3refIKNS_7addressEEE@Base 0.9.1-3~
 _ZTIN5vmime7utility3refIKNS_7mailboxEEE@Base 0.9.1-3~
 _ZTIN5vmime7utility3refIKNS_7messageEEE@Base 0.9.1-3~
 _ZTIN5vmime7utility3refIKNS_8bodyPartEEE@Base 0.9.1-3~
 _ZTIN5vmime7utility3refIKNS_8datetimeEEE@Base 0.9.1-3~
 _ZTIN5vmime7utility3refIKNS_8encodingEEE@Base 0.9.1-3~
 _ZTIN5vmime7utility3refIKNS_8security13authenticatorEEE@Base 0.9.1-3~
 _ZTIN5vmime7utility3refIKNS_8security4cert11certificateEEE@Base 0.9.1-3~
 _ZTIN5vmime7utility3refIKNS_8security4cert15X509CertificateEEE@Base 0.9.1-3~
 _ZTIN5vmime7utility3refIKNS_8security4cert16certificateChainEEE@Base 0.9.1-3~
 _ZTIN5vmime7utility3refIKNS_8security4sasl11SASLSessionEEE@Base 0.9.1-3~
 _ZTIN5vmime7utility3refIKNS_8textPartEEE@Base 0.9.1-3~
 _ZTIN5vmime7utility3refIKNS_9componentEEE@Base 0.9.1-3~
 _ZTIN5vmime7utility3refIKNS_9mediaTypeEEE@Base 0.9.1-3~
 _ZTIN5vmime7utility3refIKNS_9messageIdEEE@Base 0.9.1-3~
 _ZTIN5vmime7utility3refIKNS_9parameterEEE@Base 0.9.1-3~
 _ZTIN5vmime7utility3refINS0_10fileReaderEEE@Base 0.9.1-3~
 _ZTIN5vmime7utility3refINS0_10fileWriterEEE@Base 0.9.1-3~
 _ZTIN5vmime7utility3refINS0_11inputStreamEEE@Base 0.9.1-3~
 _ZTIN5vmime7utility3refINS0_12childProcessEEE@Base 0.9.1-3~
 _ZTIN5vmime7utility3refINS0_12fileIteratorEEE@Base 0.9.1-3~
 _ZTIN5vmime7utility3refINS0_12outputStreamEEE@Base 0.9.1-3~
 _ZTIN5vmime7utility3refINS0_17fileSystemFactoryEEE@Base 0.9.1-3~
 _ZTIN5vmime7utility3refINS0_19childProcessFactoryEEE@Base 0.9.1-3~
 _ZTIN5vmime7utility3refINS0_25inputStreamPointerAdapterEEE@Base 0.9.1-3~
 _ZTIN5vmime7utility3refINS0_4fileEEE@Base 0.9.1-3~
 _ZTIN5vmime7utility3refINS0_7encoder10b64EncoderEEE@Base 0.9.1-3~
 _ZTIN5vmime7utility3refINS0_7encoder13binaryEncoderEEE@Base 0.9.1-3~
 _ZTIN5vmime7utility3refINS0_7encoder14encoderFactory17registeredEncoderEEE@Base 0.9.1-3~
 _ZTIN5vmime7utility3refINS0_7encoder14encoderFactory21registeredEncoderImplINS2_10b64EncoderEEEEE@Base 0.9.1-3~
 _ZTIN5vmime7utility3refINS0_7encoder14encoderFactory21registeredEncoderImplINS2_13binaryEncoderEEEEE@Base 0.9.1-3~
 _ZTIN5vmime7utility3refINS0_7encoder14encoderFactory21registeredEncoderImplINS2_15eightBitEncoderEEEEE@Base 0.9.1-3~
 _ZTIN5vmime7utility3refINS0_7encoder14encoderFactory21registeredEncoderImplINS2_15sevenBitEncoderEEEEE@Base 0.9.1-3~
 _ZTIN5vmime7utility3refINS0_7encoder14encoderFactory21registeredEncoderImplINS2_9qpEncoderEEEEE@Base 0.9.1-3~
 _ZTIN5vmime7utility3refINS0_7encoder14encoderFactory21registeredEncoderImplINS2_9uuEncoderEEEEE@Base 0.9.1-3~
 _ZTIN5vmime7utility3refINS0_7encoder15eightBitEncoderEEE@Base 0.9.1-3~
 _ZTIN5vmime7utility3refINS0_7encoder15sevenBitEncoderEEE@Base 0.9.1-3~
 _ZTIN5vmime7utility3refINS0_7encoder7encoderEEE@Base 0.9.1-3~
 _ZTIN5vmime7utility3refINS0_7encoder9qpEncoderEEE@Base 0.9.1-3~
 _ZTIN5vmime7utility3refINS0_7encoder9uuEncoderEEE@Base 0.9.1-3~
 _ZTIN5vmime7utility3refINS_10attachmentEEE@Base 0.9.1-3~
 _ZTIN5vmime7utility3refINS_11addressListEEE@Base 0.9.1-3~
 _ZTIN5vmime7utility3refINS_11dispositionEEE@Base 0.9.1-3~
 _ZTIN5vmime7utility3refINS_11headerFieldEEE@Base 0.9.1-3~
 _ZTIN5vmime7utility3refINS_11mailboxListEEE@Base 0.9.1-3~
 _ZTIN5vmime7utility3refINS_11propertySet8propertyEEE@Base 0.9.1-3~
 _ZTIN5vmime7utility3refINS_12htmlTextPart14embeddedObjectEEE@Base 0.9.1-3~
 _ZTIN5vmime7utility3refINS_12htmlTextPartEEE@Base 0.9.1-3~
 _ZTIN5vmime7utility3refINS_12mailboxFieldEEE@Base 0.9.1-3~
 _ZTIN5vmime7utility3refINS_12mailboxGroupEEE@Base 0.9.1-3~
 _ZTIN5vmime7utility3refINS_13plainTextPartEEE@Base 0.9.1-3~
 _ZTIN5vmime7utility3refINS_14contentHandlerEEE@Base 0.9.1-3~
 _ZTIN5vmime7utility3refINS_16contentTypeFieldEEE@Base 0.9.1-3~
 _ZTIN5vmime7utility3refINS_16headerFieldValueEEE@Base 0.9.1-3~
 _ZTIN5vmime7utility3refINS_17messageIdSequenceEEE@Base 0.9.1-3~
 _ZTIN5vmime7utility3refINS_18bodyPartAttachmentEEE@Base 0.9.1-3~
 _ZTIN5vmime7utility3refINS_18contentDispositionEEE@Base 0.9.1-3~
 _ZTIN5vmime7utility3refINS_19emptyContentHandlerEEE@Base 0.9.1-3~
 _ZTIN5vmime7utility3refINS_20streamContentHandlerEEE@Base 0.9.1-3~
 _ZTIN5vmime7utility3refINS_20stringContentHandlerEEE@Base 0.9.1-3~
 _ZTIN5vmime7utility3refINS_23contentDispositionFieldEEE@Base 0.9.1-3~
 _ZTIN5vmime7utility3refINS_23parsedMessageAttachmentEEE@Base 0.9.1-3~
 _ZTIN5vmime7utility3refINS_24parameterizedHeaderFieldEEE@Base 0.9.1-3~
 _ZTIN5vmime7utility3refINS_26generatedMessageAttachmentEEE@Base 0.9.1-3~
 _ZTIN5vmime7utility3refINS_3net13socketFactoryEEE@Base 0.9.1-3~
 _ZTIN5vmime7utility3refINS_3net14serviceFactory17registeredServiceEEE@Base 0.9.1-3~
 _ZTIN5vmime7utility3refINS_3net14timeoutHandlerEEE@Base 0.9.1-3~
 _ZTIN5vmime7utility3refINS_3net15connectionInfosEEE@Base 0.9.1-3~
 _ZTIN5vmime7utility3refINS_3net21registeredServiceImplINS2_4imap10IMAPSStoreEEEEE@Base 0.9.1-3~
 _ZTIN5vmime7utility3refINS_3net21registeredServiceImplINS2_4imap9IMAPStoreEEEEE@Base 0.9.1-3~
 _ZTIN5vmime7utility3refINS_3net21registeredServiceImplINS2_4pop310POP3SStoreEEEEE@Base 0.9.1-3~
 _ZTIN5vmime7utility3refINS_3net21registeredServiceImplINS2_4pop39POP3StoreEEEEE@Base 0.9.1-3~
 _ZTIN5vmime7utility3refINS_3net21registeredServiceImplINS2_4smtp13SMTPTransportEEEEE@Base 0.9.1-3~
 _ZTIN5vmime7utility3refINS_3net21registeredServiceImplINS2_4smtp14SMTPSTransportEEEEE@Base 0.9.1-3~
 _ZTIN5vmime7utility3refINS_3net21registeredServiceImplINS2_7maildir12maildirStoreEEEEE@Base 0.9.1-3~
 _ZTIN5vmime7utility3refINS_3net21registeredServiceImplINS2_8sendmail17sendmailTransportEEEEE@Base 0.9.1-3~
 _ZTIN5vmime7utility3refINS_3net21timeoutHandlerFactoryEEE@Base 0.9.1-3~
 _ZTIN5vmime7utility3refINS_3net22defaultConnectionInfosEEE@Base 0.9.1-3~
 _ZTIN5vmime7utility3refINS_3net3tls10TLSSessionEEE@Base 0.9.1-3~
 _ZTIN5vmime7utility3refINS_3net3tls25TLSSecuredConnectionInfosEEE@Base 0.9.1-3~
 _ZTIN5vmime7utility3refINS_3net3tls25TLSSocket_DeleteExWrapperEEE@Base 0.9.1-3~
 _ZTIN5vmime7utility3refINS_3net3tls9TLSSocketEEE@Base 0.9.1-3~
 _ZTIN5vmime7utility3refINS_3net4imap10IMAPFolderEEE@Base 0.9.1-3~
 _ZTIN5vmime7utility3refINS_3net4imap10IMAPParserEEE@Base 0.9.1-3~
 _ZTIN5vmime7utility3refINS_3net4imap10IMAPSStoreEEE@Base 0.9.1-3~
 _ZTIN5vmime7utility3refINS_3net4imap11IMAPMessageEEE@Base 0.9.1-3~
 _ZTIN5vmime7utility3refINS_3net4imap13IMAPStructureEEE@Base 0.9.1-3~
 _ZTIN5vmime7utility3refINS_3net4imap14IMAPConnectionEEE@Base 0.9.1-3~
 _ZTIN5vmime7utility3refINS_3net4imap29IMAPMessagePartContentHandlerEEE@Base 0.9.1-3~
 _ZTIN5vmime7utility3refINS_3net4imap7IMAPTagEEE@Base 0.9.1-3~
 _ZTIN5vmime7utility3refINS_3net4imap8IMAPPartEEE@Base 0.9.1-3~
 _ZTIN5vmime7utility3refINS_3net4imap9IMAPStoreEEE@Base 0.9.1-3~
 _ZTIN5vmime7utility3refINS_3net4partEEE@Base 0.9.1-3~
 _ZTIN5vmime7utility3refINS_3net4pop310POP3FolderEEE@Base 0.9.1-3~
 _ZTIN5vmime7utility3refINS_3net4pop310POP3SStoreEEE@Base 0.9.1-3~
 _ZTIN5vmime7utility3refINS_3net4pop311POP3MessageEEE@Base 0.9.1-3~
 _ZTIN5vmime7utility3refINS_3net4pop39POP3StoreEEE@Base 0.9.1-3~
 _ZTIN5vmime7utility3refINS_3net4smtp12SMTPResponseEEE@Base 0.9.1-3~
 _ZTIN5vmime7utility3refINS_3net4smtp13SMTPTransportEEE@Base 0.9.1-3~
 _ZTIN5vmime7utility3refINS_3net4smtp14SMTPSTransportEEE@Base 0.9.1-3~
 _ZTIN5vmime7utility3refINS_3net5storeEEE@Base 0.9.1-3~
 _ZTIN5vmime7utility3refINS_3net6folderEEE@Base 0.9.1-3~
 _ZTIN5vmime7utility3refINS_3net6socketEEE@Base 0.9.1-3~
 _ZTIN5vmime7utility3refINS_3net7maildir11maildirPartEEE@Base 0.9.1-3~
 _ZTIN5vmime7utility3refINS_3net7maildir12maildirStoreEEE@Base 0.9.1-3~
 _ZTIN5vmime7utility3refINS_3net7maildir13maildirFolderEEE@Base 0.9.1-3~
 _ZTIN5vmime7utility3refINS_3net7maildir13maildirFormat7contextEEE@Base 0.9.1-3~
 _ZTIN5vmime7utility3refINS_3net7maildir13maildirFormatEEE@Base 0.9.1-3~
 _ZTIN5vmime7utility3refINS_3net7maildir14maildirMessageEEE@Base 0.9.1-3~
 _ZTIN5vmime7utility3refINS_3net7maildir16maildirStructureEEE@Base 0.9.1-3~
 _ZTIN5vmime7utility3refINS_3net7maildir6format18kmailMaildirFormatEEE@Base 0.9.1-3~
 _ZTIN5vmime7utility3refINS_3net7maildir6format20courierMaildirFormatEEE@Base 0.9.1-3~
 _ZTIN5vmime7utility3refINS_3net7messageEEE@Base 0.9.1-3~
 _ZTIN5vmime7utility3refINS_3net7serviceEEE@Base 0.9.1-3~
 _ZTIN5vmime7utility3refINS_3net7sessionEEE@Base 0.9.1-3~
 _ZTIN5vmime7utility3refINS_3net8sendmail17sendmailTransportEEE@Base 0.9.1-3~
 _ZTIN5vmime7utility3refINS_3net9structureEEE@Base 0.9.1-3~
 _ZTIN5vmime7utility3refINS_3net9transportEEE@Base 0.9.1-3~
 _ZTIN5vmime7utility3refINS_4bodyEEE@Base 0.9.1-3~
 _ZTIN5vmime7utility3refINS_4pathEEE@Base 0.9.1-3~
 _ZTIN5vmime7utility3refINS_4textEEE@Base 0.9.1-3~
 _ZTIN5vmime7utility3refINS_4wordEEE@Base 0.9.1-3~
 _ZTIN5vmime7utility3refINS_5relayEEE@Base 0.9.1-3~
 _ZTIN5vmime7utility3refINS_6headerEEE@Base 0.9.1-3~
 _ZTIN5vmime7utility3refINS_6objectEEE@Base 0.9.1-3~
 _ZTIN5vmime7utility3refINS_7addressEEE@Base 0.9.1-3~
 _ZTIN5vmime7utility3refINS_7charsetEEE@Base 0.9.1-3~
 _ZTIN5vmime7utility3refINS_7mailboxEEE@Base 0.9.1-3~
 _ZTIN5vmime7utility3refINS_7messageEEE@Base 0.9.1-3~
 _ZTIN5vmime7utility3refINS_8bodyPartEEE@Base 0.9.1-3~
 _ZTIN5vmime7utility3refINS_8datetimeEEE@Base 0.9.1-3~
 _ZTIN5vmime7utility3refINS_8encodingEEE@Base 0.9.1-3~
 _ZTIN5vmime7utility3refINS_8platform7handlerEEE@Base 0.9.1-3~
 _ZTIN5vmime7utility3refINS_8security13authenticatorEEE@Base 0.9.1-3~
 _ZTIN5vmime7utility3refINS_8security4cert11certificateEEE@Base 0.9.1-3~
 _ZTIN5vmime7utility3refINS_8security4cert15X509CertificateEEE@Base 0.9.1-3~
 _ZTIN5vmime7utility3refINS_8security4cert16certificateChainEEE@Base 0.9.1-3~
 _ZTIN5vmime7utility3refINS_8security4cert19certificateVerifierEEE@Base 0.9.1-3~
 _ZTIN5vmime7utility3refINS_8security4cert26defaultCertificateVerifierEEE@Base 0.9.1-3~
 _ZTIN5vmime7utility3refINS_8security4sasl10SASLSocketEEE@Base 0.9.1-3~
 _ZTIN5vmime7utility3refINS_8security4sasl11SASLContextEEE@Base 0.9.1-3~
 _ZTIN5vmime7utility3refINS_8security4sasl11SASLSessionEEE@Base 0.9.1-3~
 _ZTIN5vmime7utility3refINS_8security4sasl13SASLMechanismEEE@Base 0.9.1-3~
 _ZTIN5vmime7utility3refINS_8security4sasl17SASLAuthenticatorEEE@Base 0.9.1-3~
 _ZTIN5vmime7utility3refINS_8security4sasl20SASLMechanismFactory19registeredMechanismEEE@Base 0.9.1-3~
 _ZTIN5vmime7utility3refINS_8security4sasl20builtinSASLMechanismEEE@Base 0.9.1-3~
 _ZTIN5vmime7utility3refINS_8security4sasl24defaultSASLAuthenticatorEEE@Base 0.9.1-3~
 _ZTIN5vmime7utility3refINS_8security6digest13messageDigestEEE@Base 0.9.1-3~
 _ZTIN5vmime7utility3refINS_8security6digest20messageDigestFactory22digestAlgorithmFactoryEEE@Base 0.9.1-3~
 _ZTIN5vmime7utility3refINS_8security6digest20messageDigestFactory26digestAlgorithmFactoryImplINS3_3md516md5MessageDigestEEEEE@Base 0.9.1-3~
 _ZTIN5vmime7utility3refINS_8security6digest20messageDigestFactory26digestAlgorithmFactoryImplINS3_4sha117sha1MessageDigestEEEEE@Base 0.9.1-3~
 _ZTIN5vmime7utility3refINS_8security6digest3md516md5MessageDigestEEE@Base 0.9.1-3~
 _ZTIN5vmime7utility3refINS_8security6digest4sha117sha1MessageDigestEEE@Base 0.9.1-3~
 _ZTIN5vmime7utility3refINS_8textPartEEE@Base 0.9.1-3~
 _ZTIN5vmime7utility3refINS_9componentEEE@Base 0.9.1-3~
 _ZTIN5vmime7utility3refINS_9mediaTypeEEE@Base 0.9.1-3~
 _ZTIN5vmime7utility3refINS_9messageIdEEE@Base 0.9.1-3~
 _ZTIN5vmime7utility3refINS_9parameterEEE@Base 0.9.1-3~
 _ZTIN5vmime7utility3refINS_9platforms5posix11posixSocketEEE@Base 0.9.1-3~
 _ZTIN5vmime7utility3refINS_9platforms5posix15posixFileReaderEEE@Base 0.9.1-3~
 _ZTIN5vmime7utility3refINS_9platforms5posix15posixFileWriterEEE@Base 0.9.1-3~
 _ZTIN5vmime7utility3refINS_9platforms5posix17posixChildProcessEEE@Base 0.9.1-3~
 _ZTIN5vmime7utility3refINS_9platforms5posix17posixFileIteratorEEE@Base 0.9.1-3~
 _ZTIN5vmime7utility3refINS_9platforms5posix18posixSocketFactoryEEE@Base 0.9.1-3~
 _ZTIN5vmime7utility3refINS_9platforms5posix22posixFileSystemFactoryEEE@Base 0.9.1-3~
 _ZTIN5vmime7utility3refINS_9platforms5posix24posixChildProcessFactoryEEE@Base 0.9.1-3~
 _ZTIN5vmime7utility3refINS_9platforms5posix26posixFileReaderInputStreamEEE@Base 0.9.1-3~
 _ZTIN5vmime7utility3refINS_9platforms5posix27inputStreamPosixPipeAdapterEEE@Base 0.9.1-3~
 _ZTIN5vmime7utility3refINS_9platforms5posix27posixFileWriterOutputStreamEEE@Base 0.9.1-3~
 _ZTIN5vmime7utility3refINS_9platforms5posix28outputStreamPosixPipeAdapterEEE@Base 0.9.1-3~
 _ZTIN5vmime7utility3refINS_9platforms5posix9posixFileEEE@Base 0.9.1-3~
 _ZTIN5vmime7utility4fileE@Base 0.9.1-3~
 _ZTIN5vmime7utility4pathE@Base 0.9.1-3~
 _ZTIN5vmime7utility6streamE@Base 0.9.1-3~
 _ZTIN5vmime7utility7encoder10b64EncoderE@Base 0.9.1-3~
 _ZTIN5vmime7utility7encoder13binaryEncoderE@Base 0.9.1-3~
 _ZTIN5vmime7utility7encoder14defaultEncoderE@Base 0.9.1-3~
 _ZTIN5vmime7utility7encoder14encoderFactory17registeredEncoderE@Base 0.9.1-3~
 _ZTIN5vmime7utility7encoder14encoderFactory21registeredEncoderImplINS1_10b64EncoderEEE@Base 0.9.1-3~
 _ZTIN5vmime7utility7encoder14encoderFactory21registeredEncoderImplINS1_13binaryEncoderEEE@Base 0.9.1-3~
 _ZTIN5vmime7utility7encoder14encoderFactory21registeredEncoderImplINS1_15eightBitEncoderEEE@Base 0.9.1-3~
 _ZTIN5vmime7utility7encoder14encoderFactory21registeredEncoderImplINS1_15sevenBitEncoderEEE@Base 0.9.1-3~
 _ZTIN5vmime7utility7encoder14encoderFactory21registeredEncoderImplINS1_9qpEncoderEEE@Base 0.9.1-3~
 _ZTIN5vmime7utility7encoder14encoderFactory21registeredEncoderImplINS1_9uuEncoderEEE@Base 0.9.1-3~
 _ZTIN5vmime7utility7encoder15eightBitEncoderE@Base 0.9.1-3~
 _ZTIN5vmime7utility7encoder15sevenBitEncoderE@Base 0.9.1-3~
 _ZTIN5vmime7utility7encoder7encoderE@Base 0.9.1-3~
 _ZTIN5vmime7utility7encoder9qpEncoderE@Base 0.9.1-3~
 _ZTIN5vmime7utility7encoder9uuEncoderE@Base 0.9.1-3~
 _ZTIN5vmime8bodyPartE@Base 0.9.1-3~
 _ZTIN5vmime8datetimeE@Base 0.9.1-3~
 _ZTIN5vmime8encodingE@Base 0.9.1-3~
 _ZTIN5vmime8platform7handlerE@Base 0.9.1-3~
 _ZTIN5vmime8security13authenticatorE@Base 0.9.1-3~
 _ZTIN5vmime8security20defaultAuthenticatorE@Base 0.9.1-3~
 _ZTIN5vmime8security4cert11certificateE@Base 0.9.1-3~
 _ZTIN5vmime8security4cert15X509CertificateE@Base 0.9.1-3~
 _ZTIN5vmime8security4cert16certificateChainE@Base 0.9.1-3~
 _ZTIN5vmime8security4cert19certificateVerifierE@Base 0.9.1-3~
 _ZTIN5vmime8security4cert26defaultCertificateVerifierE@Base 0.9.1-3~
 _ZTIN5vmime8security4sasl10SASLSocketE@Base 0.9.1-3~
 _ZTIN5vmime8security4sasl11SASLContextE@Base 0.9.1-3~
 _ZTIN5vmime8security4sasl11SASLSessionE@Base 0.9.1-3~
 _ZTIN5vmime8security4sasl13SASLMechanismE@Base 0.9.1-3~
 _ZTIN5vmime8security4sasl17SASLAuthenticatorE@Base 0.9.1-3~
 _ZTIN5vmime8security4sasl20SASLMechanismFactoryE@Base 0.9.1-3~
 _ZTIN5vmime8security4sasl20builtinSASLMechanismE@Base 0.9.1-3~
 _ZTIN5vmime8security4sasl24defaultSASLAuthenticatorE@Base 0.9.1-3~
 _ZTIN5vmime8security6digest13messageDigestE@Base 0.9.1-3~
 _ZTIN5vmime8security6digest20messageDigestFactory22digestAlgorithmFactoryE@Base 0.9.1-3~
 _ZTIN5vmime8security6digest20messageDigestFactory26digestAlgorithmFactoryImplINS1_3md516md5MessageDigestEEE@Base 0.9.1-3~
 _ZTIN5vmime8security6digest20messageDigestFactory26digestAlgorithmFactoryImplINS1_4sha117sha1MessageDigestEEE@Base 0.9.1-3~
 _ZTIN5vmime8security6digest3md516md5MessageDigestE@Base 0.9.1-3~
 _ZTIN5vmime8security6digest4sha117sha1MessageDigestE@Base 0.9.1-3~
 _ZTIN5vmime8textPartE@Base 0.9.1-3~
 _ZTIN5vmime9componentE@Base 0.9.1-3~
 _ZTIN5vmime9exceptionE@Base 0.9.1-3~
 _ZTIN5vmime9mediaTypeE@Base 0.9.1-3~
 _ZTIN5vmime9messageIdE@Base 0.9.1-3~
 _ZTIN5vmime9parameterE@Base 0.9.1-3~
 _ZTIN5vmime9platforms5posix11posixSocketE@Base 0.9.1-3~
 _ZTIN5vmime9platforms5posix12posixHandlerE@Base 0.9.1-3~
 _ZTIN5vmime9platforms5posix15posixFileReaderE@Base 0.9.1-3~
 _ZTIN5vmime9platforms5posix15posixFileWriterE@Base 0.9.1-3~
 _ZTIN5vmime9platforms5posix17posixChildProcessE@Base 0.9.1-3~
 _ZTIN5vmime9platforms5posix17posixFileIteratorE@Base 0.9.1-3~
 _ZTIN5vmime9platforms5posix18posixSocketFactoryE@Base 0.9.1-3~
 _ZTIN5vmime9platforms5posix22posixFileSystemFactoryE@Base 0.9.1-3~
 _ZTIN5vmime9platforms5posix24posixChildProcessFactoryE@Base 0.9.1-3~
 _ZTIN5vmime9platforms5posix26posixFileReaderInputStreamE@Base 0.9.1-3~
 _ZTIN5vmime9platforms5posix27inputStreamPosixPipeAdapterE@Base 0.9.1-3~
 _ZTIN5vmime9platforms5posix27posixFileWriterOutputStreamE@Base 0.9.1-3~
 _ZTIN5vmime9platforms5posix28outputStreamPosixPipeAdapterE@Base 0.9.1-3~
 _ZTIN5vmime9platforms5posix9posixFileE@Base 0.9.1-3~
 _ZTSN5vmime10attachmentE@Base 0.9.1-3~
 _ZTSN5vmime10exceptions12no_expeditorE@Base 0.9.1-3~
 _ZTSN5vmime10exceptions12no_recipientE@Base 0.9.1-3~
 _ZTSN5vmime10exceptions12no_such_partE@Base 0.9.1-3~
 _ZTSN5vmime10exceptions12system_errorE@Base 0.9.1-3~
 _ZTSN5vmime10exceptions13command_errorE@Base 0.9.1-3~
 _ZTSN5vmime10exceptions13illegal_stateE@Base 0.9.1-3~
 _ZTSN5vmime10exceptions13malformed_urlE@Base 0.9.1-3~
 _ZTSN5vmime10exceptions13net_exceptionE@Base 0.9.1-3~
 _ZTSN5vmime10exceptions13no_such_fieldE@Base 0.9.1-3~
 _ZTSN5vmime10exceptions13not_connectedE@Base 0.9.1-3~
 _ZTSN5vmime10exceptions13tls_exceptionE@Base 0.9.1-3~
 _ZTSN5vmime10exceptions14bad_field_typeE@Base 0.9.1-3~
 _ZTSN5vmime10exceptions14file_not_foundE@Base 0.9.1-3~
 _ZTSN5vmime10exceptions14sasl_exceptionE@Base 0.9.1-3~
 _ZTSN5vmime10exceptions15no_object_foundE@Base 0.9.1-3~
 _ZTSN5vmime10exceptions15no_such_addressE@Base 0.9.1-3~
 _ZTSN5vmime10exceptions15no_such_mailboxE@Base 0.9.1-3~
 _ZTSN5vmime10exceptions15not_a_directoryE@Base 0.9.1-3~
 _ZTSN5vmime10exceptions15open_file_errorE@Base 0.9.1-3~
 _ZTSN5vmime10exceptions16connection_errorE@Base 0.9.1-3~
 _ZTSN5vmime10exceptions16folder_not_foundE@Base 0.9.1-3~
 _ZTSN5vmime10exceptions16invalid_argumentE@Base 0.9.1-3~
 _ZTSN5vmime10exceptions16invalid_responseE@Base 0.9.1-3~
 _ZTSN5vmime10exceptions16no_such_propertyE@Base 0.9.1-3~
 _ZTSN5vmime10exceptions16socket_exceptionE@Base 0.9.1-3~
 _ZTSN5vmime10exceptions16unfetched_objectE@Base 0.9.1-3~
 _ZTSN5vmime10exceptions17already_connectedE@Base 0.9.1-3~
 _ZTSN5vmime10exceptions17illegal_operationE@Base 0.9.1-3~
 _ZTSN5vmime10exceptions17message_not_foundE@Base 0.9.1-3~
 _ZTSN5vmime10exceptions17no_such_mechanismE@Base 0.9.1-3~
 _ZTSN5vmime10exceptions17no_such_parameterE@Base 0.9.1-3~
 _ZTSN5vmime10exceptions18charset_conv_errorE@Base 0.9.1-3~
 _ZTSN5vmime10exceptions18no_such_message_idE@Base 0.9.1-3~
 _ZTSN5vmime10exceptions18unsupported_optionE@Base 0.9.1-3~
 _ZTSN5vmime10exceptions19invalid_folder_nameE@Base 0.9.1-3~
 _ZTSN5vmime10exceptions19no_auth_informationE@Base 0.9.1-3~
 _ZTSN5vmime10exceptions19no_platform_handlerE@Base 0.9.1-3~
 _ZTSN5vmime10exceptions19operation_cancelledE@Base 0.9.1-3~
 _ZTSN5vmime10exceptions19operation_timed_outE@Base 0.9.1-3~
 _ZTSN5vmime10exceptions20authentication_errorE@Base 0.9.1-3~
 _ZTSN5vmime10exceptions20filesystem_exceptionE@Base 0.9.1-3~
 _ZTSN5vmime10exceptions20no_encoder_availableE@Base 0.9.1-3~
 _ZTSN5vmime10exceptions20no_factory_availableE@Base 0.9.1-3~
 _ZTSN5vmime10exceptions20no_service_availableE@Base 0.9.1-3~
 _ZTSN5vmime10exceptions21certificate_exceptionE@Base 0.9.1-3~
 _ZTSN5vmime10exceptions21invalid_property_typeE@Base 0.9.1-3~
 _ZTSN5vmime10exceptions23operation_not_supportedE@Base 0.9.1-3~
 _ZTSN5vmime10exceptions24authentication_exceptionE@Base 0.9.1-3~
 _ZTSN5vmime10exceptions25connection_greeting_errorE@Base 0.9.1-3~
 _ZTSN5vmime10exceptions27partial_fetch_not_supportedE@Base 0.9.1-3~
 _ZTSN5vmime10exceptions28unsupported_certificate_typeE@Base 0.9.1-3~
 _ZTSN5vmime10exceptions29no_digest_algorithm_availableE@Base 0.9.1-3~
 _ZTSN5vmime10exceptions34certificate_verification_exceptionE@Base 0.9.1-3~
 _ZTSN5vmime11addressListE@Base 0.9.1-3~
 _ZTSN5vmime11dispositionE@Base 0.9.1-3~
 _ZTSN5vmime11headerFieldE@Base 0.9.1-3~
 _ZTSN5vmime11mailboxListE@Base 0.9.1-3~
 _ZTSN5vmime11propertySet8propertyE@Base 0.9.1-3~
 _ZTSN5vmime11propertySetE@Base 0.9.1-3~
 _ZTSN5vmime12htmlTextPart14embeddedObjectE@Base 0.9.1-3~
 _ZTSN5vmime12htmlTextPartE@Base 0.9.1-3~
 _ZTSN5vmime12mailboxFieldE@Base 0.9.1-3~
 _ZTSN5vmime12mailboxGroupE@Base 0.9.1-3~
 _ZTSN5vmime13plainTextPartE@Base 0.9.1-3~
 _ZTSN5vmime14contentHandlerE@Base 0.9.1-3~
 _ZTSN5vmime14fileAttachmentE@Base 0.9.1-3~
 _ZTSN5vmime16charsetConverterE@Base 0.9.1-3~
 _ZTSN5vmime16contentTypeFieldE@Base 0.9.1-3~
 _ZTSN5vmime16headerFieldValueE@Base 0.9.1-3~
 _ZTSN5vmime17defaultAttachmentE@Base 0.9.1-3~
 _ZTSN5vmime17messageAttachmentE@Base 0.9.1-3~
 _ZTSN5vmime17messageIdSequenceE@Base 0.9.1-3~
 _ZTSN5vmime18bodyPartAttachmentE@Base 0.9.1-3~
 _ZTSN5vmime18contentDispositionE@Base 0.9.1-3~
 _ZTSN5vmime19emptyContentHandlerE@Base 0.9.1-3~
 _ZTSN5vmime20streamContentHandlerE@Base 0.9.1-3~
 _ZTSN5vmime20stringContentHandlerE@Base 0.9.1-3~
 _ZTSN5vmime23contentDispositionFieldE@Base 0.9.1-3~
 _ZTSN5vmime23parsedMessageAttachmentE@Base 0.9.1-3~
 _ZTSN5vmime24parameterizedHeaderFieldE@Base 0.9.1-3~
 _ZTSN5vmime26generatedMessageAttachmentE@Base 0.9.1-3~
 _ZTSN5vmime3mdn16receivedMDNInfosE@Base 0.9.1-3~
 _ZTSN5vmime3mdn16sendableMDNInfosE@Base 0.9.1-3~
 _ZTSN5vmime3mdn8MDNInfosE@Base 0.9.1-3~
 _ZTSN5vmime3net12serviceInfosE@Base 0.9.1-3~
 _ZTSN5vmime3net13socketFactoryE@Base 0.9.1-3~
 _ZTSN5vmime3net14serviceFactory17registeredServiceE@Base 0.9.1-3~
 _ZTSN5vmime3net14timeoutHandlerE@Base 0.9.1-3~
 _ZTSN5vmime3net15connectionInfosE@Base 0.9.1-3~
 _ZTSN5vmime3net21registeredServiceImplINS0_4imap10IMAPSStoreEEE@Base 0.9.1-3~
 _ZTSN5vmime3net21registeredServiceImplINS0_4imap9IMAPStoreEEE@Base 0.9.1-3~
 _ZTSN5vmime3net21registeredServiceImplINS0_4pop310POP3SStoreEEE@Base 0.9.1-3~
 _ZTSN5vmime3net21registeredServiceImplINS0_4pop39POP3StoreEEE@Base 0.9.1-3~
 _ZTSN5vmime3net21registeredServiceImplINS0_4smtp13SMTPTransportEEE@Base 0.9.1-3~
 _ZTSN5vmime3net21registeredServiceImplINS0_4smtp14SMTPSTransportEEE@Base 0.9.1-3~
 _ZTSN5vmime3net21registeredServiceImplINS0_7maildir12maildirStoreEEE@Base 0.9.1-3~
 _ZTSN5vmime3net21registeredServiceImplINS0_8sendmail17sendmailTransportEEE@Base 0.9.1-3~
 _ZTSN5vmime3net22defaultConnectionInfosE@Base 0.9.1-3~
 _ZTSN5vmime3net22securedConnectionInfosE@Base 0.9.1-3~
 _ZTSN5vmime3net3tls10TLSSessionE@Base 0.9.1-3~
 _ZTSN5vmime3net3tls25TLSSecuredConnectionInfosE@Base 0.9.1-3~
 _ZTSN5vmime3net3tls25TLSSocket_DeleteExWrapperE@Base 0.9.1-3~
 _ZTSN5vmime3net3tls9TLSSocketE@Base 0.9.1-3~
 _ZTSN5vmime3net4imap10IMAPFolderE@Base 0.9.1-3~
 _ZTSN5vmime3net4imap10IMAPParser10capabilityE@Base 0.9.1-3~
 _ZTSN5vmime3net4imap10IMAPParser10env_senderE@Base 0.9.1-3~
 _ZTSN5vmime3net4imap10IMAPParser10media_textE@Base 0.9.1-3~
 _ZTSN5vmime3net4imap10IMAPParser10status_attE@Base 0.9.1-3~
 _ZTSN5vmime3net4imap10IMAPParser10text_mime2E@Base 0.9.1-3~
 _ZTSN5vmime3net4imap10IMAPParser11QUOTED_CHARE@Base 0.9.1-3~
 _ZTSN5vmime3net4imap10IMAPParser11body_fieldsE@Base 0.9.1-3~
 _ZTSN5vmime3net4imap10IMAPParser11env_subjectE@Base 0.9.1-3~
 _ZTSN5vmime3net4imap10IMAPParser11header_listE@Base 0.9.1-3~
 _ZTSN5vmime3net4imap10IMAPParser11media_basicE@Base 0.9.1-3~
 _ZTSN5vmime3net4imap10IMAPParser11quoted_textE@Base 0.9.1-3~
 _ZTSN5vmime3net4imap10IMAPParser11status_infoE@Base 0.9.1-3~
 _ZTSN5vmime3net4imap10IMAPParser11text_exceptILc93EEE@Base 0.9.1-3~
 _ZTSN5vmime3net4imap10IMAPParser12address_listE@Base 0.9.1-3~
 _ZTSN5vmime3net4imap10IMAPParser12body_fld_dspE@Base 0.9.1-3~
 _ZTSN5vmime3net4imap10IMAPParser12continue_reqE@Base 0.9.1-3~
 _ZTSN5vmime3net4imap10IMAPParser12env_reply_toE@Base 0.9.1-3~
 _ZTSN5vmime3net4imap10IMAPParser12mailbox_dataE@Base 0.9.1-3~
 _ZTSN5vmime3net4imap10IMAPParser12mailbox_flagE@Base 0.9.1-3~
 _ZTSN5vmime3net4imap10IMAPParser12mailbox_listE@Base 0.9.1-3~
 _ZTSN5vmime3net4imap10IMAPParser12message_dataE@Base 0.9.1-3~
 _ZTSN5vmime3net4imap10IMAPParser12msg_att_itemE@Base 0.9.1-3~
 _ZTSN5vmime3net4imap10IMAPParser12section_textE@Base 0.9.1-3~
 _ZTSN5vmime3net4imap10IMAPParser12special_atomE@Base 0.9.1-3~
 _ZTSN5vmime3net4imap10IMAPParser12text8_exceptILc63EEE@Base 0.9.1-3~
 _ZTSN5vmime3net4imap10IMAPParser13body_fld_langE@Base 0.9.1-3~
 _ZTSN5vmime3net4imap10IMAPParser13body_type_msgE@Base 0.9.1-3~
 _ZTSN5vmime3net4imap10IMAPParser13media_messageE@Base 0.9.1-3~
 _ZTSN5vmime3net4imap10IMAPParser13resp_cond_byeE@Base 0.9.1-3~
 _ZTSN5vmime3net4imap10IMAPParser13response_dataE@Base 0.9.1-3~
 _ZTSN5vmime3net4imap10IMAPParser13response_doneE@Base 0.9.1-3~
 _ZTSN5vmime3net4imap10IMAPParser14body_ext_1partE@Base 0.9.1-3~
 _ZTSN5vmime3net4imap10IMAPParser14body_ext_mpartE@Base 0.9.1-3~
 _ZTSN5vmime3net4imap10IMAPParser14body_extensionE@Base 0.9.1-3~
 _ZTSN5vmime3net4imap10IMAPParser14body_fld_paramE@Base 0.9.1-3~
 _ZTSN5vmime3net4imap10IMAPParser14body_type_textE@Base 0.9.1-3~
 _ZTSN5vmime3net4imap10IMAPParser14env_message_idE@Base 0.9.1-3~
 _ZTSN5vmime3net4imap10IMAPParser14literalHandler12targetStreamE@Base 0.9.1-3~
 _ZTSN5vmime3net4imap10IMAPParser14literalHandler12targetStringE@Base 0.9.1-3~
 _ZTSN5vmime3net4imap10IMAPParser14literalHandler6targetE@Base 0.9.1-3~
 _ZTSN5vmime3net4imap10IMAPParser14literalHandlerE@Base 0.9.1-3~
 _ZTSN5vmime3net4imap10IMAPParser14resp_cond_authE@Base 0.9.1-3~
 _ZTSN5vmime3net4imap10IMAPParser14resp_text_codeE@Base 0.9.1-3~
 _ZTSN5vmime3net4imap10IMAPParser14response_fatalE@Base 0.9.1-3~
 _ZTSN5vmime3net4imap10IMAPParser15body_type_1partE@Base 0.9.1-3~
 _ZTSN5vmime3net4imap10IMAPParser15body_type_basicE@Base 0.9.1-3~
 _ZTSN5vmime3net4imap10IMAPParser15body_type_mpartE@Base 0.9.1-3~
 _ZTSN5vmime3net4imap10IMAPParser15capability_dataE@Base 0.9.1-3~
 _ZTSN5vmime3net4imap10IMAPParser15env_in_reply_toE@Base 0.9.1-3~
 _ZTSN5vmime3net4imap10IMAPParser15resp_cond_stateE@Base 0.9.1-3~
 _ZTSN5vmime3net4imap10IMAPParser15response_taggedE@Base 0.9.1-3~
 _ZTSN5vmime3net4imap10IMAPParser17mailbox_flag_listE@Base 0.9.1-3~
 _ZTSN5vmime3net4imap10IMAPParser19body_fld_param_itemE@Base 0.9.1-3~
 _ZTSN5vmime3net4imap10IMAPParser29continue_req_or_response_dataE@Base 0.9.1-3~
 _ZTSN5vmime3net4imap10IMAPParser4CRLFE@Base 0.9.1-3~
 _ZTSN5vmime3net4imap10IMAPParser4atomE@Base 0.9.1-3~
 _ZTSN5vmime3net4imap10IMAPParser4flagE@Base 0.9.1-3~
 _ZTSN5vmime3net4imap10IMAPParser4textE@Base 0.9.1-3~
 _ZTSN5vmime3net4imap10IMAPParser4xtagE@Base 0.9.1-3~
 _ZTSN5vmime3net4imap10IMAPParser5SPACEE@Base 0.9.1-3~
 _ZTSN5vmime3net4imap10IMAPParser5xbodyE@Base 0.9.1-3~
 _ZTSN5vmime3net4imap10IMAPParser6env_ccE@Base 0.9.1-3~
 _ZTSN5vmime3net4imap10IMAPParser6env_toE@Base 0.9.1-3~
 _ZTSN5vmime3net4imap10IMAPParser6numberE@Base 0.9.1-3~
 _ZTSN5vmime3net4imap10IMAPParser7addressE@Base 0.9.1-3~
 _ZTSN5vmime3net4imap10IMAPParser7astringE@Base 0.9.1-3~
 _ZTSN5vmime3net4imap10IMAPParser7env_bccE@Base 0.9.1-3~
 _ZTSN5vmime3net4imap10IMAPParser7mailboxE@Base 0.9.1-3~
 _ZTSN5vmime3net4imap10IMAPParser7msg_attE@Base 0.9.1-3~
 _ZTSN5vmime3net4imap10IMAPParser7nstringE@Base 0.9.1-3~
 _ZTSN5vmime3net4imap10IMAPParser7sectionE@Base 0.9.1-3~
 _ZTSN5vmime3net4imap10IMAPParser7xstringE@Base 0.9.1-3~
 _ZTSN5vmime3net4imap10IMAPParser8env_dateE@Base 0.9.1-3~
 _ZTSN5vmime3net4imap10IMAPParser8env_fromE@Base 0.9.1-3~
 _ZTSN5vmime3net4imap10IMAPParser8envelopeE@Base 0.9.1-3~
 _ZTSN5vmime3net4imap10IMAPParser8greetingE@Base 0.9.1-3~
 _ZTSN5vmime3net4imap10IMAPParser8one_charILc123EEE@Base 0.9.1-3~
 _ZTSN5vmime3net4imap10IMAPParser8one_charILc125EEE@Base 0.9.1-3~
 _ZTSN5vmime3net4imap10IMAPParser8one_charILc34EEE@Base 0.9.1-3~
 _ZTSN5vmime3net4imap10IMAPParser8one_charILc40EEE@Base 0.9.1-3~
 _ZTSN5vmime3net4imap10IMAPParser8one_charILc41EEE@Base 0.9.1-3~
 _ZTSN5vmime3net4imap10IMAPParser8one_charILc42EEE@Base 0.9.1-3~
 _ZTSN5vmime3net4imap10IMAPParser8one_charILc43EEE@Base 0.9.1-3~
 _ZTSN5vmime3net4imap10IMAPParser8one_charILc45EEE@Base 0.9.1-3~
 _ZTSN5vmime3net4imap10IMAPParser8one_charILc46EEE@Base 0.9.1-3~
 _ZTSN5vmime3net4imap10IMAPParser8one_charILc58EEE@Base 0.9.1-3~
 _ZTSN5vmime3net4imap10IMAPParser8one_charILc60EEE@Base 0.9.1-3~
 _ZTSN5vmime3net4imap10IMAPParser8one_charILc61EEE@Base 0.9.1-3~
 _ZTSN5vmime3net4imap10IMAPParser8one_charILc62EEE@Base 0.9.1-3~
 _ZTSN5vmime3net4imap10IMAPParser8one_charILc63EEE@Base 0.9.1-3~
 _ZTSN5vmime3net4imap10IMAPParser8one_charILc91EEE@Base 0.9.1-3~
 _ZTSN5vmime3net4imap10IMAPParser8one_charILc92EEE@Base 0.9.1-3~
 _ZTSN5vmime3net4imap10IMAPParser8one_charILc93EEE@Base 0.9.1-3~
 _ZTSN5vmime3net4imap10IMAPParser8responseE@Base 0.9.1-3~
 _ZTSN5vmime3net4imap10IMAPParser9auth_typeE@Base 0.9.1-3~
 _ZTSN5vmime3net4imap10IMAPParser9componentE@Base 0.9.1-3~
 _ZTSN5vmime3net4imap10IMAPParser9date_timeE@Base 0.9.1-3~
 _ZTSN5vmime3net4imap10IMAPParser9flag_listE@Base 0.9.1-3~
 _ZTSN5vmime3net4imap10IMAPParser9nz_numberE@Base 0.9.1-3~
 _ZTSN5vmime3net4imap10IMAPParser9resp_textE@Base 0.9.1-3~
 _ZTSN5vmime3net4imap10IMAPParserE@Base 0.9.1-3~
 _ZTSN5vmime3net4imap10IMAPSStoreE@Base 0.9.1-3~
 _ZTSN5vmime3net4imap11IMAPMessageE@Base 0.9.1-3~
 _ZTSN5vmime3net4imap13IMAPStructureE@Base 0.9.1-3~
 _ZTSN5vmime3net4imap14IMAPConnectionE@Base 0.9.1-3~
 _ZTSN5vmime3net4imap16IMAPServiceInfosE@Base 0.9.1-3~
 _ZTSN5vmime3net4imap26IMAPMessage_literalHandlerE@Base 0.9.1-3~
 _ZTSN5vmime3net4imap29IMAPMessagePartContentHandlerE@Base 0.9.1-3~
 _ZTSN5vmime3net4imap7IMAPTagE@Base 0.9.1-3~
 _ZTSN5vmime3net4imap8IMAPPartE@Base 0.9.1-3~
 _ZTSN5vmime3net4imap9IMAPStoreE@Base 0.9.1-3~
 _ZTSN5vmime3net4partE@Base 0.9.1-3~
 _ZTSN5vmime3net4pop310POP3FolderE@Base 0.9.1-3~
 _ZTSN5vmime3net4pop310POP3SStoreE@Base 0.9.1-3~
 _ZTSN5vmime3net4pop311POP3MessageE@Base 0.9.1-3~
 _ZTSN5vmime3net4pop316POP3ServiceInfosE@Base 0.9.1-3~
 _ZTSN5vmime3net4pop39POP3StoreE@Base 0.9.1-3~
 _ZTSN5vmime3net4smtp12SMTPResponseE@Base 0.9.1-3~
 _ZTSN5vmime3net4smtp13SMTPTransportE@Base 0.9.1-3~
 _ZTSN5vmime3net4smtp14SMTPSTransportE@Base 0.9.1-3~
 _ZTSN5vmime3net4smtp16SMTPServiceInfosE@Base 0.9.1-3~
 _ZTSN5vmime3net5storeE@Base 0.9.1-3~
 _ZTSN5vmime3net6folderE@Base 0.9.1-3~
 _ZTSN5vmime3net6socketE@Base 0.9.1-3~
 _ZTSN5vmime3net7maildir11maildirPartE@Base 0.9.1-3~
 _ZTSN5vmime3net7maildir12maildirStoreE@Base 0.9.1-3~
 _ZTSN5vmime3net7maildir13maildirFolderE@Base 0.9.1-3~
 _ZTSN5vmime3net7maildir13maildirFormat7contextE@Base 0.9.1-3~
 _ZTSN5vmime3net7maildir13maildirFormatE@Base 0.9.1-3~
 _ZTSN5vmime3net7maildir14maildirMessageE@Base 0.9.1-3~
 _ZTSN5vmime3net7maildir16maildirStructureE@Base 0.9.1-3~
 _ZTSN5vmime3net7maildir19maildirServiceInfosE@Base 0.9.1-3~
 _ZTSN5vmime3net7maildir6format18kmailMaildirFormatE@Base 0.9.1-3~
 _ZTSN5vmime3net7maildir6format20courierMaildirFormatE@Base 0.9.1-3~
 _ZTSN5vmime3net7messageE@Base 0.9.1-3~
 _ZTSN5vmime3net7serviceE@Base 0.9.1-3~
 _ZTSN5vmime3net7sessionE@Base 0.9.1-3~
 _ZTSN5vmime3net8sendmail17sendmailTransportE@Base 0.9.1-3~
 _ZTSN5vmime3net8sendmail20sendmailServiceInfosE@Base 0.9.1-3~
 _ZTSN5vmime3net9structureE@Base 0.9.1-3~
 _ZTSN5vmime3net9transportE@Base 0.9.1-3~
 _ZTSN5vmime4bodyE@Base 0.9.1-3~
 _ZTSN5vmime4pathE@Base 0.9.1-3~
 _ZTSN5vmime4textE@Base 0.9.1-3~
 _ZTSN5vmime4wordE@Base 0.9.1-3~
 _ZTSN5vmime5relayE@Base 0.9.1-3~
 _ZTSN5vmime6headerE@Base 0.9.1-3~
 _ZTSN5vmime6objectE@Base 0.9.1-3~
 _ZTSN5vmime7addressE@Base 0.9.1-3~
 _ZTSN5vmime7charsetE@Base 0.9.1-3~
 _ZTSN5vmime7mailboxE@Base 0.9.1-3~
 _ZTSN5vmime7messageE@Base 0.9.1-3~
 _ZTSN5vmime7utility10fileReaderE@Base 0.9.1-3~
 _ZTSN5vmime7utility10fileWriterE@Base 0.9.1-3~
 _ZTSN5vmime7utility10refManagerE@Base 0.9.1-3~
 _ZTSN5vmime7utility11inputStreamE@Base 0.9.1-3~
 _ZTSN5vmime7utility12childProcessE@Base 0.9.1-3~
 _ZTSN5vmime7utility12fileIteratorE@Base 0.9.1-3~
 _ZTSN5vmime7utility12outputStreamE@Base 0.9.1-3~
 _ZTSN5vmime7utility14refManagerImplE@Base 0.9.1-3~
 _ZTSN5vmime7utility16progressListenerE@Base 0.9.1-3~
 _ZTSN5vmime7utility17fileSystemFactoryE@Base 0.9.1-3~
 _ZTSN5vmime7utility18inputStreamAdapterE@Base 0.9.1-3~
 _ZTSN5vmime7utility19childProcessFactoryE@Base 0.9.1-3~
 _ZTSN5vmime7utility19filteredInputStreamE@Base 0.9.1-3~
 _ZTSN5vmime7utility19outputStreamAdapterE@Base 0.9.1-3~
 _ZTSN5vmime7utility20filteredOutputStreamE@Base 0.9.1-3~
 _ZTSN5vmime7utility22dotFilteredInputStreamE@Base 0.9.1-3~
 _ZTSN5vmime7utility23dotFilteredOutputStreamE@Base 0.9.1-3~
 _ZTSN5vmime7utility24inputStreamSocketAdapterE@Base 0.9.1-3~
 _ZTSN5vmime7utility24inputStreamStringAdapterE@Base 0.9.1-3~
 _ZTSN5vmime7utility25inputStreamPointerAdapterE@Base 0.9.1-3~
 _ZTSN5vmime7utility25outputStreamSocketAdapterE@Base 0.9.1-3~
 _ZTSN5vmime7utility25outputStreamStringAdapterE@Base 0.9.1-3~
 _ZTSN5vmime7utility27charsetFilteredOutputStreamE@Base 0.9.1-3~
 _ZTSN5vmime7utility27progressListenerSizeAdapterE@Base 0.9.1-3~
 _ZTSN5vmime7utility28CRLFToLFFilteredOutputStreamE@Base 0.9.1-3~
 _ZTSN5vmime7utility28inputStreamByteBufferAdapterE@Base 0.9.1-3~
 _ZTSN5vmime7utility28outputStreamByteArrayAdapterE@Base 0.9.1-3~
 _ZTSN5vmime7utility29inputStreamStringProxyAdapterE@Base 0.9.1-3~
 _ZTSN5vmime7utility31stopSequenceFilteredInputStreamILi3EEE@Base 0.9.1-3~
 _ZTSN5vmime7utility31stopSequenceFilteredInputStreamILi5EEE@Base 0.9.1-3~
 _ZTSN5vmime7utility3refIKNS0_7encoder14encoderFactory17registeredEncoderEEE@Base 0.9.1-3~
 _ZTSN5vmime7utility3refIKNS_10attachmentEEE@Base 0.9.1-3~
 _ZTSN5vmime7utility3refIKNS_11addressListEEE@Base 0.9.1-3~
 _ZTSN5vmime7utility3refIKNS_11dispositionEEE@Base 0.9.1-3~
 _ZTSN5vmime7utility3refIKNS_11headerFieldEEE@Base 0.9.1-3~
 _ZTSN5vmime7utility3refIKNS_11mailboxListEEE@Base 0.9.1-3~
 _ZTSN5vmime7utility3refIKNS_11propertySet8propertyEEE@Base 0.9.1-3~
 _ZTSN5vmime7utility3refIKNS_12htmlTextPart14embeddedObjectEEE@Base 0.9.1-3~
 _ZTSN5vmime7utility3refIKNS_12mailboxGroupEEE@Base 0.9.1-3~
 _ZTSN5vmime7utility3refIKNS_14contentHandlerEEE@Base 0.9.1-3~
 _ZTSN5vmime7utility3refIKNS_16contentTypeFieldEEE@Base 0.9.1-3~
 _ZTSN5vmime7utility3refIKNS_16headerFieldValueEEE@Base 0.9.1-3~
 _ZTSN5vmime7utility3refIKNS_18contentDispositionEEE@Base 0.9.1-3~
 _ZTSN5vmime7utility3refIKNS_23contentDispositionFieldEEE@Base 0.9.1-3~
 _ZTSN5vmime7utility3refIKNS_3net14serviceFactory17registeredServiceEEE@Base 0.9.1-3~
 _ZTSN5vmime7utility3refIKNS_3net4imap10IMAPFolderEEE@Base 0.9.1-3~
 _ZTSN5vmime7utility3refIKNS_3net4imap10IMAPParserEEE@Base 0.9.1-3~
 _ZTSN5vmime7utility3refIKNS_3net4imap11IMAPMessageEEE@Base 0.9.1-3~
 _ZTSN5vmime7utility3refIKNS_3net4imap7IMAPTagEEE@Base 0.9.1-3~
 _ZTSN5vmime7utility3refIKNS_3net4imap8IMAPPartEEE@Base 0.9.1-3~
 _ZTSN5vmime7utility3refIKNS_3net4imap9IMAPStoreEEE@Base 0.9.1-3~
 _ZTSN5vmime7utility3refIKNS_3net4partEEE@Base 0.9.1-3~
 _ZTSN5vmime7utility3refIKNS_3net4pop310POP3FolderEEE@Base 0.9.1-3~
 _ZTSN5vmime7utility3refIKNS_3net4pop39POP3StoreEEE@Base 0.9.1-3~
 _ZTSN5vmime7utility3refIKNS_3net5storeEEE@Base 0.9.1-3~
 _ZTSN5vmime7utility3refIKNS_3net6socketEEE@Base 0.9.1-3~
 _ZTSN5vmime7utility3refIKNS_3net7maildir11maildirPartEEE@Base 0.9.1-3~
 _ZTSN5vmime7utility3refIKNS_3net7maildir12maildirStoreEEE@Base 0.9.1-3~
 _ZTSN5vmime7utility3refIKNS_3net7maildir13maildirFolderEEE@Base 0.9.1-3~
 _ZTSN5vmime7utility3refIKNS_3net7maildir13maildirFormat7contextEEE@Base 0.9.1-3~
 _ZTSN5vmime7utility3refIKNS_3net7maildir13maildirFormatEEE@Base 0.9.1-3~
 _ZTSN5vmime7utility3refIKNS_3net7serviceEEE@Base 0.9.1-3~
 _ZTSN5vmime7utility3refIKNS_3net7sessionEEE@Base 0.9.1-3~
 _ZTSN5vmime7utility3refIKNS_3net9structureEEE@Base 0.9.1-3~
 _ZTSN5vmime7utility3refIKNS_4bodyEEE@Base 0.9.1-3~
 _ZTSN5vmime7utility3refIKNS_4pathEEE@Base 0.9.1-3~
 _ZTSN5vmime7utility3refIKNS_4textEEE@Base 0.9.1-3~
 _ZTSN5vmime7utility3refIKNS_4wordEEE@Base 0.9.1-3~
 _ZTSN5vmime7utility3refIKNS_5relayEEE@Base 0.9.1-3~
 _ZTSN5vmime7utility3refIKNS_6headerEEE@Base 0.9.1-3~
 _ZTSN5vmime7utility3refIKNS_6objectEEE@Base 0.9.1-3~
 _ZTSN5vmime7utility3refIKNS_7addressEEE@Base 0.9.1-3~
 _ZTSN5vmime7utility3refIKNS_7mailboxEEE@Base 0.9.1-3~
 _ZTSN5vmime7utility3refIKNS_7messageEEE@Base 0.9.1-3~
 _ZTSN5vmime7utility3refIKNS_8bodyPartEEE@Base 0.9.1-3~
 _ZTSN5vmime7utility3refIKNS_8datetimeEEE@Base 0.9.1-3~
 _ZTSN5vmime7utility3refIKNS_8encodingEEE@Base 0.9.1-3~
 _ZTSN5vmime7utility3refIKNS_8security13authenticatorEEE@Base 0.9.1-3~
 _ZTSN5vmime7utility3refIKNS_8security4cert11certificateEEE@Base 0.9.1-3~
 _ZTSN5vmime7utility3refIKNS_8security4cert15X509CertificateEEE@Base 0.9.1-3~
 _ZTSN5vmime7utility3refIKNS_8security4cert16certificateChainEEE@Base 0.9.1-3~
 _ZTSN5vmime7utility3refIKNS_8security4sasl11SASLSessionEEE@Base 0.9.1-3~
 _ZTSN5vmime7utility3refIKNS_8textPartEEE@Base 0.9.1-3~
 _ZTSN5vmime7utility3refIKNS_9componentEEE@Base 0.9.1-3~
 _ZTSN5vmime7utility3refIKNS_9mediaTypeEEE@Base 0.9.1-3~
 _ZTSN5vmime7utility3refIKNS_9messageIdEEE@Base 0.9.1-3~
 _ZTSN5vmime7utility3refIKNS_9parameterEEE@Base 0.9.1-3~
 _ZTSN5vmime7utility3refINS0_10fileReaderEEE@Base 0.9.1-3~
 _ZTSN5vmime7utility3refINS0_10fileWriterEEE@Base 0.9.1-3~
 _ZTSN5vmime7utility3refINS0_11inputStreamEEE@Base 0.9.1-3~
 _ZTSN5vmime7utility3refINS0_12childProcessEEE@Base 0.9.1-3~
 _ZTSN5vmime7utility3refINS0_12fileIteratorEEE@Base 0.9.1-3~
 _ZTSN5vmime7utility3refINS0_12outputStreamEEE@Base 0.9.1-3~
 _ZTSN5vmime7utility3refINS0_17fileSystemFactoryEEE@Base 0.9.1-3~
 _ZTSN5vmime7utility3refINS0_19childProcessFactoryEEE@Base 0.9.1-3~
 _ZTSN5vmime7utility3refINS0_25inputStreamPointerAdapterEEE@Base 0.9.1-3~
 _ZTSN5vmime7utility3refINS0_4fileEEE@Base 0.9.1-3~
 _ZTSN5vmime7utility3refINS0_7encoder10b64EncoderEEE@Base 0.9.1-3~
 _ZTSN5vmime7utility3refINS0_7encoder13binaryEncoderEEE@Base 0.9.1-3~
 _ZTSN5vmime7utility3refINS0_7encoder14encoderFactory17registeredEncoderEEE@Base 0.9.1-3~
 _ZTSN5vmime7utility3refINS0_7encoder14encoderFactory21registeredEncoderImplINS2_10b64EncoderEEEEE@Base 0.9.1-3~
 _ZTSN5vmime7utility3refINS0_7encoder14encoderFactory21registeredEncoderImplINS2_13binaryEncoderEEEEE@Base 0.9.1-3~
 _ZTSN5vmime7utility3refINS0_7encoder14encoderFactory21registeredEncoderImplINS2_15eightBitEncoderEEEEE@Base 0.9.1-3~
 _ZTSN5vmime7utility3refINS0_7encoder14encoderFactory21registeredEncoderImplINS2_15sevenBitEncoderEEEEE@Base 0.9.1-3~
 _ZTSN5vmime7utility3refINS0_7encoder14encoderFactory21registeredEncoderImplINS2_9qpEncoderEEEEE@Base 0.9.1-3~
 _ZTSN5vmime7utility3refINS0_7encoder14encoderFactory21registeredEncoderImplINS2_9uuEncoderEEEEE@Base 0.9.1-3~
 _ZTSN5vmime7utility3refINS0_7encoder15eightBitEncoderEEE@Base 0.9.1-3~
 _ZTSN5vmime7utility3refINS0_7encoder15sevenBitEncoderEEE@Base 0.9.1-3~
 _ZTSN5vmime7utility3refINS0_7encoder7encoderEEE@Base 0.9.1-3~
 _ZTSN5vmime7utility3refINS0_7encoder9qpEncoderEEE@Base 0.9.1-3~
 _ZTSN5vmime7utility3refINS0_7encoder9uuEncoderEEE@Base 0.9.1-3~
 _ZTSN5vmime7utility3refINS_10attachmentEEE@Base 0.9.1-3~
 _ZTSN5vmime7utility3refINS_11addressListEEE@Base 0.9.1-3~
 _ZTSN5vmime7utility3refINS_11dispositionEEE@Base 0.9.1-3~
 _ZTSN5vmime7utility3refINS_11headerFieldEEE@Base 0.9.1-3~
 _ZTSN5vmime7utility3refINS_11mailboxListEEE@Base 0.9.1-3~
 _ZTSN5vmime7utility3refINS_11propertySet8propertyEEE@Base 0.9.1-3~
 _ZTSN5vmime7utility3refINS_12htmlTextPart14embeddedObjectEEE@Base 0.9.1-3~
 _ZTSN5vmime7utility3refINS_12htmlTextPartEEE@Base 0.9.1-3~
 _ZTSN5vmime7utility3refINS_12mailboxFieldEEE@Base 0.9.1-3~
 _ZTSN5vmime7utility3refINS_12mailboxGroupEEE@Base 0.9.1-3~
 _ZTSN5vmime7utility3refINS_13plainTextPartEEE@Base 0.9.1-3~
 _ZTSN5vmime7utility3refINS_14contentHandlerEEE@Base 0.9.1-3~
 _ZTSN5vmime7utility3refINS_16contentTypeFieldEEE@Base 0.9.1-3~
 _ZTSN5vmime7utility3refINS_16headerFieldValueEEE@Base 0.9.1-3~
 _ZTSN5vmime7utility3refINS_17messageIdSequenceEEE@Base 0.9.1-3~
 _ZTSN5vmime7utility3refINS_18bodyPartAttachmentEEE@Base 0.9.1-3~
 _ZTSN5vmime7utility3refINS_18contentDispositionEEE@Base 0.9.1-3~
 _ZTSN5vmime7utility3refINS_19emptyContentHandlerEEE@Base 0.9.1-3~
 _ZTSN5vmime7utility3refINS_20streamContentHandlerEEE@Base 0.9.1-3~
 _ZTSN5vmime7utility3refINS_20stringContentHandlerEEE@Base 0.9.1-3~
 _ZTSN5vmime7utility3refINS_23contentDispositionFieldEEE@Base 0.9.1-3~
 _ZTSN5vmime7utility3refINS_23parsedMessageAttachmentEEE@Base 0.9.1-3~
 _ZTSN5vmime7utility3refINS_24parameterizedHeaderFieldEEE@Base 0.9.1-3~
 _ZTSN5vmime7utility3refINS_26generatedMessageAttachmentEEE@Base 0.9.1-3~
 _ZTSN5vmime7utility3refINS_3net13socketFactoryEEE@Base 0.9.1-3~
 _ZTSN5vmime7utility3refINS_3net14serviceFactory17registeredServiceEEE@Base 0.9.1-3~
 _ZTSN5vmime7utility3refINS_3net14timeoutHandlerEEE@Base 0.9.1-3~
 _ZTSN5vmime7utility3refINS_3net15connectionInfosEEE@Base 0.9.1-3~
 _ZTSN5vmime7utility3refINS_3net21registeredServiceImplINS2_4imap10IMAPSStoreEEEEE@Base 0.9.1-3~
 _ZTSN5vmime7utility3refINS_3net21registeredServiceImplINS2_4imap9IMAPStoreEEEEE@Base 0.9.1-3~
 _ZTSN5vmime7utility3refINS_3net21registeredServiceImplINS2_4pop310POP3SStoreEEEEE@Base 0.9.1-3~
 _ZTSN5vmime7utility3refINS_3net21registeredServiceImplINS2_4pop39POP3StoreEEEEE@Base 0.9.1-3~
 _ZTSN5vmime7utility3refINS_3net21registeredServiceImplINS2_4smtp13SMTPTransportEEEEE@Base 0.9.1-3~
 _ZTSN5vmime7utility3refINS_3net21registeredServiceImplINS2_4smtp14SMTPSTransportEEEEE@Base 0.9.1-3~
 _ZTSN5vmime7utility3refINS_3net21registeredServiceImplINS2_7maildir12maildirStoreEEEEE@Base 0.9.1-3~
 _ZTSN5vmime7utility3refINS_3net21registeredServiceImplINS2_8sendmail17sendmailTransportEEEEE@Base 0.9.1-3~
 _ZTSN5vmime7utility3refINS_3net21timeoutHandlerFactoryEEE@Base 0.9.1-3~
 _ZTSN5vmime7utility3refINS_3net22defaultConnectionInfosEEE@Base 0.9.1-3~
 _ZTSN5vmime7utility3refINS_3net3tls10TLSSessionEEE@Base 0.9.1-3~
 _ZTSN5vmime7utility3refINS_3net3tls25TLSSecuredConnectionInfosEEE@Base 0.9.1-3~
 _ZTSN5vmime7utility3refINS_3net3tls25TLSSocket_DeleteExWrapperEEE@Base 0.9.1-3~
 _ZTSN5vmime7utility3refINS_3net3tls9TLSSocketEEE@Base 0.9.1-3~
 _ZTSN5vmime7utility3refINS_3net4imap10IMAPFolderEEE@Base 0.9.1-3~
 _ZTSN5vmime7utility3refINS_3net4imap10IMAPParserEEE@Base 0.9.1-3~
 _ZTSN5vmime7utility3refINS_3net4imap10IMAPSStoreEEE@Base 0.9.1-3~
 _ZTSN5vmime7utility3refINS_3net4imap11IMAPMessageEEE@Base 0.9.1-3~
 _ZTSN5vmime7utility3refINS_3net4imap13IMAPStructureEEE@Base 0.9.1-3~
 _ZTSN5vmime7utility3refINS_3net4imap14IMAPConnectionEEE@Base 0.9.1-3~
 _ZTSN5vmime7utility3refINS_3net4imap29IMAPMessagePartContentHandlerEEE@Base 0.9.1-3~
 _ZTSN5vmime7utility3refINS_3net4imap7IMAPTagEEE@Base 0.9.1-3~
 _ZTSN5vmime7utility3refINS_3net4imap8IMAPPartEEE@Base 0.9.1-3~
 _ZTSN5vmime7utility3refINS_3net4imap9IMAPStoreEEE@Base 0.9.1-3~
 _ZTSN5vmime7utility3refINS_3net4partEEE@Base 0.9.1-3~
 _ZTSN5vmime7utility3refINS_3net4pop310POP3FolderEEE@Base 0.9.1-3~
 _ZTSN5vmime7utility3refINS_3net4pop310POP3SStoreEEE@Base 0.9.1-3~
 _ZTSN5vmime7utility3refINS_3net4pop311POP3MessageEEE@Base 0.9.1-3~
 _ZTSN5vmime7utility3refINS_3net4pop39POP3StoreEEE@Base 0.9.1-3~
 _ZTSN5vmime7utility3refINS_3net4smtp12SMTPResponseEEE@Base 0.9.1-3~
 _ZTSN5vmime7utility3refINS_3net4smtp13SMTPTransportEEE@Base 0.9.1-3~
 _ZTSN5vmime7utility3refINS_3net4smtp14SMTPSTransportEEE@Base 0.9.1-3~
 _ZTSN5vmime7utility3refINS_3net5storeEEE@Base 0.9.1-3~
 _ZTSN5vmime7utility3refINS_3net6folderEEE@Base 0.9.1-3~
 _ZTSN5vmime7utility3refINS_3net6socketEEE@Base 0.9.1-3~
 _ZTSN5vmime7utility3refINS_3net7maildir11maildirPartEEE@Base 0.9.1-3~
 _ZTSN5vmime7utility3refINS_3net7maildir12maildirStoreEEE@Base 0.9.1-3~
 _ZTSN5vmime7utility3refINS_3net7maildir13maildirFolderEEE@Base 0.9.1-3~
 _ZTSN5vmime7utility3refINS_3net7maildir13maildirFormat7contextEEE@Base 0.9.1-3~
 _ZTSN5vmime7utility3refINS_3net7maildir13maildirFormatEEE@Base 0.9.1-3~
 _ZTSN5vmime7utility3refINS_3net7maildir14maildirMessageEEE@Base 0.9.1-3~
 _ZTSN5vmime7utility3refINS_3net7maildir16maildirStructureEEE@Base 0.9.1-3~
 _ZTSN5vmime7utility3refINS_3net7maildir6format18kmailMaildirFormatEEE@Base 0.9.1-3~
 _ZTSN5vmime7utility3refINS_3net7maildir6format20courierMaildirFormatEEE@Base 0.9.1-3~
 _ZTSN5vmime7utility3refINS_3net7messageEEE@Base 0.9.1-3~
 _ZTSN5vmime7utility3refINS_3net7serviceEEE@Base 0.9.1-3~
 _ZTSN5vmime7utility3refINS_3net7sessionEEE@Base 0.9.1-3~
 _ZTSN5vmime7utility3refINS_3net8sendmail17sendmailTransportEEE@Base 0.9.1-3~
 _ZTSN5vmime7utility3refINS_3net9structureEEE@Base 0.9.1-3~
 _ZTSN5vmime7utility3refINS_3net9transportEEE@Base 0.9.1-3~
 _ZTSN5vmime7utility3refINS_4bodyEEE@Base 0.9.1-3~
 _ZTSN5vmime7utility3refINS_4pathEEE@Base 0.9.1-3~
 _ZTSN5vmime7utility3refINS_4textEEE@Base 0.9.1-3~
 _ZTSN5vmime7utility3refINS_4wordEEE@Base 0.9.1-3~
 _ZTSN5vmime7utility3refINS_5relayEEE@Base 0.9.1-3~
 _ZTSN5vmime7utility3refINS_6headerEEE@Base 0.9.1-3~
 _ZTSN5vmime7utility3refINS_6objectEEE@Base 0.9.1-3~
 _ZTSN5vmime7utility3refINS_7addressEEE@Base 0.9.1-3~
 _ZTSN5vmime7utility3refINS_7charsetEEE@Base 0.9.1-3~
 _ZTSN5vmime7utility3refINS_7mailboxEEE@Base 0.9.1-3~
 _ZTSN5vmime7utility3refINS_7messageEEE@Base 0.9.1-3~
 _ZTSN5vmime7utility3refINS_8bodyPartEEE@Base 0.9.1-3~
 _ZTSN5vmime7utility3refINS_8datetimeEEE@Base 0.9.1-3~
 _ZTSN5vmime7utility3refINS_8encodingEEE@Base 0.9.1-3~
 _ZTSN5vmime7utility3refINS_8platform7handlerEEE@Base 0.9.1-3~
 _ZTSN5vmime7utility3refINS_8security13authenticatorEEE@Base 0.9.1-3~
 _ZTSN5vmime7utility3refINS_8security4cert11certificateEEE@Base 0.9.1-3~
 _ZTSN5vmime7utility3refINS_8security4cert15X509CertificateEEE@Base 0.9.1-3~
 _ZTSN5vmime7utility3refINS_8security4cert16certificateChainEEE@Base 0.9.1-3~
 _ZTSN5vmime7utility3refINS_8security4cert19certificateVerifierEEE@Base 0.9.1-3~
 _ZTSN5vmime7utility3refINS_8security4cert26defaultCertificateVerifierEEE@Base 0.9.1-3~
 _ZTSN5vmime7utility3refINS_8security4sasl10SASLSocketEEE@Base 0.9.1-3~
 _ZTSN5vmime7utility3refINS_8security4sasl11SASLContextEEE@Base 0.9.1-3~
 _ZTSN5vmime7utility3refINS_8security4sasl11SASLSessionEEE@Base 0.9.1-3~
 _ZTSN5vmime7utility3refINS_8security4sasl13SASLMechanismEEE@Base 0.9.1-3~
 _ZTSN5vmime7utility3refINS_8security4sasl17SASLAuthenticatorEEE@Base 0.9.1-3~
 _ZTSN5vmime7utility3refINS_8security4sasl20SASLMechanismFactory19registeredMechanismEEE@Base 0.9.1-3~
 _ZTSN5vmime7utility3refINS_8security4sasl20builtinSASLMechanismEEE@Base 0.9.1-3~
 _ZTSN5vmime7utility3refINS_8security4sasl24defaultSASLAuthenticatorEEE@Base 0.9.1-3~
 _ZTSN5vmime7utility3refINS_8security6digest13messageDigestEEE@Base 0.9.1-3~
 _ZTSN5vmime7utility3refINS_8security6digest20messageDigestFactory22digestAlgorithmFactoryEEE@Base 0.9.1-3~
 _ZTSN5vmime7utility3refINS_8security6digest20messageDigestFactory26digestAlgorithmFactoryImplINS3_3md516md5MessageDigestEEEEE@Base 0.9.1-3~
 _ZTSN5vmime7utility3refINS_8security6digest20messageDigestFactory26digestAlgorithmFactoryImplINS3_4sha117sha1MessageDigestEEEEE@Base 0.9.1-3~
 _ZTSN5vmime7utility3refINS_8security6digest3md516md5MessageDigestEEE@Base 0.9.1-3~
 _ZTSN5vmime7utility3refINS_8security6digest4sha117sha1MessageDigestEEE@Base 0.9.1-3~
 _ZTSN5vmime7utility3refINS_8textPartEEE@Base 0.9.1-3~
 _ZTSN5vmime7utility3refINS_9componentEEE@Base 0.9.1-3~
 _ZTSN5vmime7utility3refINS_9mediaTypeEEE@Base 0.9.1-3~
 _ZTSN5vmime7utility3refINS_9messageIdEEE@Base 0.9.1-3~
 _ZTSN5vmime7utility3refINS_9parameterEEE@Base 0.9.1-3~
 _ZTSN5vmime7utility3refINS_9platforms5posix11posixSocketEEE@Base 0.9.1-3~
 _ZTSN5vmime7utility3refINS_9platforms5posix15posixFileReaderEEE@Base 0.9.1-3~
 _ZTSN5vmime7utility3refINS_9platforms5posix15posixFileWriterEEE@Base 0.9.1-3~
 _ZTSN5vmime7utility3refINS_9platforms5posix17posixChildProcessEEE@Base 0.9.1-3~
 _ZTSN5vmime7utility3refINS_9platforms5posix17posixFileIteratorEEE@Base 0.9.1-3~
 _ZTSN5vmime7utility3refINS_9platforms5posix18posixSocketFactoryEEE@Base 0.9.1-3~
 _ZTSN5vmime7utility3refINS_9platforms5posix22posixFileSystemFactoryEEE@Base 0.9.1-3~
 _ZTSN5vmime7utility3refINS_9platforms5posix24posixChildProcessFactoryEEE@Base 0.9.1-3~
 _ZTSN5vmime7utility3refINS_9platforms5posix26posixFileReaderInputStreamEEE@Base 0.9.1-3~
 _ZTSN5vmime7utility3refINS_9platforms5posix27inputStreamPosixPipeAdapterEEE@Base 0.9.1-3~
 _ZTSN5vmime7utility3refINS_9platforms5posix27posixFileWriterOutputStreamEEE@Base 0.9.1-3~
 _ZTSN5vmime7utility3refINS_9platforms5posix28outputStreamPosixPipeAdapterEEE@Base 0.9.1-3~
 _ZTSN5vmime7utility3refINS_9platforms5posix9posixFileEEE@Base 0.9.1-3~
 _ZTSN5vmime7utility4fileE@Base 0.9.1-3~
 _ZTSN5vmime7utility4pathE@Base 0.9.1-3~
 _ZTSN5vmime7utility6streamE@Base 0.9.1-3~
 _ZTSN5vmime7utility7encoder10b64EncoderE@Base 0.9.1-3~
 _ZTSN5vmime7utility7encoder13binaryEncoderE@Base 0.9.1-3~
 _ZTSN5vmime7utility7encoder14defaultEncoderE@Base 0.9.1-3~
 _ZTSN5vmime7utility7encoder14encoderFactory17registeredEncoderE@Base 0.9.1-3~
 _ZTSN5vmime7utility7encoder14encoderFactory21registeredEncoderImplINS1_10b64EncoderEEE@Base 0.9.1-3~
 _ZTSN5vmime7utility7encoder14encoderFactory21registeredEncoderImplINS1_13binaryEncoderEEE@Base 0.9.1-3~
 _ZTSN5vmime7utility7encoder14encoderFactory21registeredEncoderImplINS1_15eightBitEncoderEEE@Base 0.9.1-3~
 _ZTSN5vmime7utility7encoder14encoderFactory21registeredEncoderImplINS1_15sevenBitEncoderEEE@Base 0.9.1-3~
 _ZTSN5vmime7utility7encoder14encoderFactory21registeredEncoderImplINS1_9qpEncoderEEE@Base 0.9.1-3~
 _ZTSN5vmime7utility7encoder14encoderFactory21registeredEncoderImplINS1_9uuEncoderEEE@Base 0.9.1-3~
 _ZTSN5vmime7utility7encoder15eightBitEncoderE@Base 0.9.1-3~
 _ZTSN5vmime7utility7encoder15sevenBitEncoderE@Base 0.9.1-3~
 _ZTSN5vmime7utility7encoder7encoderE@Base 0.9.1-3~
 _ZTSN5vmime7utility7encoder9qpEncoderE@Base 0.9.1-3~
 _ZTSN5vmime7utility7encoder9uuEncoderE@Base 0.9.1-3~
 _ZTSN5vmime8bodyPartE@Base 0.9.1-3~
 _ZTSN5vmime8datetimeE@Base 0.9.1-3~
 _ZTSN5vmime8encodingE@Base 0.9.1-3~
 _ZTSN5vmime8platform7handlerE@Base 0.9.1-3~
 _ZTSN5vmime8security13authenticatorE@Base 0.9.1-3~
 _ZTSN5vmime8security20defaultAuthenticatorE@Base 0.9.1-3~
 _ZTSN5vmime8security4cert11certificateE@Base 0.9.1-3~
 _ZTSN5vmime8security4cert15X509CertificateE@Base 0.9.1-3~
 _ZTSN5vmime8security4cert16certificateChainE@Base 0.9.1-3~
 _ZTSN5vmime8security4cert19certificateVerifierE@Base 0.9.1-3~
 _ZTSN5vmime8security4cert26defaultCertificateVerifierE@Base 0.9.1-3~
 _ZTSN5vmime8security4sasl10SASLSocketE@Base 0.9.1-3~
 _ZTSN5vmime8security4sasl11SASLContextE@Base 0.9.1-3~
 _ZTSN5vmime8security4sasl11SASLSessionE@Base 0.9.1-3~
 _ZTSN5vmime8security4sasl13SASLMechanismE@Base 0.9.1-3~
 _ZTSN5vmime8security4sasl17SASLAuthenticatorE@Base 0.9.1-3~
 _ZTSN5vmime8security4sasl20SASLMechanismFactoryE@Base 0.9.1-3~
 _ZTSN5vmime8security4sasl20builtinSASLMechanismE@Base 0.9.1-3~
 _ZTSN5vmime8security4sasl24defaultSASLAuthenticatorE@Base 0.9.1-3~
 _ZTSN5vmime8security6digest13messageDigestE@Base 0.9.1-3~
 _ZTSN5vmime8security6digest20messageDigestFactory22digestAlgorithmFactoryE@Base 0.9.1-3~
 _ZTSN5vmime8security6digest20messageDigestFactory26digestAlgorithmFactoryImplINS1_3md516md5MessageDigestEEE@Base 0.9.1-3~
 _ZTSN5vmime8security6digest20messageDigestFactory26digestAlgorithmFactoryImplINS1_4sha117sha1MessageDigestEEE@Base 0.9.1-3~
 _ZTSN5vmime8security6digest3md516md5MessageDigestE@Base 0.9.1-3~
 _ZTSN5vmime8security6digest4sha117sha1MessageDigestE@Base 0.9.1-3~
 _ZTSN5vmime8textPartE@Base 0.9.1-3~
 _ZTSN5vmime9componentE@Base 0.9.1-3~
 _ZTSN5vmime9exceptionE@Base 0.9.1-3~
 _ZTSN5vmime9mediaTypeE@Base 0.9.1-3~
 _ZTSN5vmime9messageIdE@Base 0.9.1-3~
 _ZTSN5vmime9parameterE@Base 0.9.1-3~
 _ZTSN5vmime9platforms5posix11posixSocketE@Base 0.9.1-3~
 _ZTSN5vmime9platforms5posix12posixHandlerE@Base 0.9.1-3~
 _ZTSN5vmime9platforms5posix15posixFileReaderE@Base 0.9.1-3~
 _ZTSN5vmime9platforms5posix15posixFileWriterE@Base 0.9.1-3~
 _ZTSN5vmime9platforms5posix17posixChildProcessE@Base 0.9.1-3~
 _ZTSN5vmime9platforms5posix17posixFileIteratorE@Base 0.9.1-3~
 _ZTSN5vmime9platforms5posix18posixSocketFactoryE@Base 0.9.1-3~
 _ZTSN5vmime9platforms5posix22posixFileSystemFactoryE@Base 0.9.1-3~
 _ZTSN5vmime9platforms5posix24posixChildProcessFactoryE@Base 0.9.1-3~
 _ZTSN5vmime9platforms5posix26posixFileReaderInputStreamE@Base 0.9.1-3~
 _ZTSN5vmime9platforms5posix27inputStreamPosixPipeAdapterE@Base 0.9.1-3~
 _ZTSN5vmime9platforms5posix27posixFileWriterOutputStreamE@Base 0.9.1-3~
 _ZTSN5vmime9platforms5posix28outputStreamPosixPipeAdapterE@Base 0.9.1-3~
 _ZTSN5vmime9platforms5posix9posixFileE@Base 0.9.1-3~
 _ZTTN5vmime16contentTypeFieldE@Base 0.9.1-3~
 _ZTTN5vmime23contentDispositionFieldE@Base 0.9.1-3~
 _ZTTN5vmime24parameterizedHeaderFieldE@Base 0.9.1-3~
 _ZTVN5vmime10attachmentE@Base 0.9.1-3~
 _ZTVN5vmime10exceptions12no_expeditorE@Base 0.9.1-3~
 _ZTVN5vmime10exceptions12no_recipientE@Base 0.9.1-3~
 _ZTVN5vmime10exceptions12no_such_partE@Base 0.9.1-3~
 _ZTVN5vmime10exceptions12system_errorE@Base 0.9.1-3~
 _ZTVN5vmime10exceptions13command_errorE@Base 0.9.1-3~
 _ZTVN5vmime10exceptions13illegal_stateE@Base 0.9.1-3~
 _ZTVN5vmime10exceptions13malformed_urlE@Base 0.9.1-3~
 _ZTVN5vmime10exceptions13net_exceptionE@Base 0.9.1-3~
 _ZTVN5vmime10exceptions13no_such_fieldE@Base 0.9.1-3~
 _ZTVN5vmime10exceptions13not_connectedE@Base 0.9.1-3~
 _ZTVN5vmime10exceptions13tls_exceptionE@Base 0.9.1-3~
 _ZTVN5vmime10exceptions14bad_field_typeE@Base 0.9.1-3~
 _ZTVN5vmime10exceptions14file_not_foundE@Base 0.9.1-3~
 _ZTVN5vmime10exceptions14sasl_exceptionE@Base 0.9.1-3~
 _ZTVN5vmime10exceptions15no_object_foundE@Base 0.9.1-3~
 _ZTVN5vmime10exceptions15no_such_addressE@Base 0.9.1-3~
 _ZTVN5vmime10exceptions15no_such_mailboxE@Base 0.9.1-3~
 _ZTVN5vmime10exceptions15not_a_directoryE@Base 0.9.1-3~
 _ZTVN5vmime10exceptions15open_file_errorE@Base 0.9.1-3~
 _ZTVN5vmime10exceptions16connection_errorE@Base 0.9.1-3~
 _ZTVN5vmime10exceptions16folder_not_foundE@Base 0.9.1-3~
 _ZTVN5vmime10exceptions16invalid_argumentE@Base 0.9.1-3~
 _ZTVN5vmime10exceptions16invalid_responseE@Base 0.9.1-3~
 _ZTVN5vmime10exceptions16no_such_propertyE@Base 0.9.1-3~
 _ZTVN5vmime10exceptions16socket_exceptionE@Base 0.9.1-3~
 _ZTVN5vmime10exceptions16unfetched_objectE@Base 0.9.1-3~
 _ZTVN5vmime10exceptions17already_connectedE@Base 0.9.1-3~
 _ZTVN5vmime10exceptions17illegal_operationE@Base 0.9.1-3~
 _ZTVN5vmime10exceptions17message_not_foundE@Base 0.9.1-3~
 _ZTVN5vmime10exceptions17no_such_mechanismE@Base 0.9.1-3~
 _ZTVN5vmime10exceptions17no_such_parameterE@Base 0.9.1-3~
 _ZTVN5vmime10exceptions18charset_conv_errorE@Base 0.9.1-3~
 _ZTVN5vmime10exceptions18no_such_message_idE@Base 0.9.1-3~
 _ZTVN5vmime10exceptions18unsupported_optionE@Base 0.9.1-3~
 _ZTVN5vmime10exceptions19invalid_folder_nameE@Base 0.9.1-3~
 _ZTVN5vmime10exceptions19no_auth_informationE@Base 0.9.1-3~
 _ZTVN5vmime10exceptions19no_platform_handlerE@Base 0.9.1-3~
 _ZTVN5vmime10exceptions19operation_cancelledE@Base 0.9.1-3~
 _ZTVN5vmime10exceptions19operation_timed_outE@Base 0.9.1-3~
 _ZTVN5vmime10exceptions20authentication_errorE@Base 0.9.1-3~
 _ZTVN5vmime10exceptions20filesystem_exceptionE@Base 0.9.1-3~
 _ZTVN5vmime10exceptions20no_encoder_availableE@Base 0.9.1-3~
 _ZTVN5vmime10exceptions20no_factory_availableE@Base 0.9.1-3~
 _ZTVN5vmime10exceptions20no_service_availableE@Base 0.9.1-3~
 _ZTVN5vmime10exceptions21certificate_exceptionE@Base 0.9.1-3~
 _ZTVN5vmime10exceptions21invalid_property_typeE@Base 0.9.1-3~
 _ZTVN5vmime10exceptions23operation_not_supportedE@Base 0.9.1-3~
 _ZTVN5vmime10exceptions24authentication_exceptionE@Base 0.9.1-3~
 _ZTVN5vmime10exceptions25connection_greeting_errorE@Base 0.9.1-3~
 _ZTVN5vmime10exceptions27partial_fetch_not_supportedE@Base 0.9.1-3~
 _ZTVN5vmime10exceptions28unsupported_certificate_typeE@Base 0.9.1-3~
 _ZTVN5vmime10exceptions29no_digest_algorithm_availableE@Base 0.9.1-3~
 _ZTVN5vmime10exceptions34certificate_verification_exceptionE@Base 0.9.1-3~
 _ZTVN5vmime11addressListE@Base 0.9.1-3~
 _ZTVN5vmime11dispositionE@Base 0.9.1-3~
 _ZTVN5vmime11headerFieldE@Base 0.9.1-3~
 _ZTVN5vmime11mailboxListE@Base 0.9.1-3~
 _ZTVN5vmime11propertySet8propertyE@Base 0.9.1-3~
 _ZTVN5vmime11propertySetE@Base 0.9.1-3~
 _ZTVN5vmime12htmlTextPart14embeddedObjectE@Base 0.9.1-3~
 _ZTVN5vmime12htmlTextPartE@Base 0.9.1-3~
 _ZTVN5vmime12mailboxFieldE@Base 0.9.1-3~
 _ZTVN5vmime12mailboxGroupE@Base 0.9.1-3~
 _ZTVN5vmime13plainTextPartE@Base 0.9.1-3~
 _ZTVN5vmime14contentHandlerE@Base 0.9.1-3~
 _ZTVN5vmime14fileAttachmentE@Base 0.9.1-3~
 _ZTVN5vmime16charsetConverterE@Base 0.9.1-3~
 _ZTVN5vmime16contentTypeFieldE@Base 0.9.1-3~
 _ZTVN5vmime16headerFieldValueE@Base 0.9.1-3~
 _ZTVN5vmime17defaultAttachmentE@Base 0.9.1-3~
 _ZTVN5vmime17messageIdSequenceE@Base 0.9.1-3~
 _ZTVN5vmime18bodyPartAttachmentE@Base 0.9.1-3~
 _ZTVN5vmime18contentDispositionE@Base 0.9.1-3~
 _ZTVN5vmime19emptyContentHandlerE@Base 0.9.1-3~
 _ZTVN5vmime20streamContentHandlerE@Base 0.9.1-3~
 _ZTVN5vmime20stringContentHandlerE@Base 0.9.1-3~
 _ZTVN5vmime23contentDispositionFieldE@Base 0.9.1-3~
 _ZTVN5vmime23parsedMessageAttachmentE@Base 0.9.1-3~
 _ZTVN5vmime24parameterizedHeaderFieldE@Base 0.9.1-3~
 _ZTVN5vmime26generatedMessageAttachmentE@Base 0.9.1-3~
 _ZTVN5vmime3mdn16receivedMDNInfosE@Base 0.9.1-3~
 _ZTVN5vmime3mdn16sendableMDNInfosE@Base 0.9.1-3~
 _ZTVN5vmime3mdn8MDNInfosE@Base 0.9.1-3~
 _ZTVN5vmime3net12serviceInfosE@Base 0.9.1-3~
 _ZTVN5vmime3net13socketFactoryE@Base 0.9.1-3~
 _ZTVN5vmime3net14serviceFactory17registeredServiceE@Base 0.9.1-3~
 _ZTVN5vmime3net15connectionInfosE@Base 0.9.1-3~
 _ZTVN5vmime3net21registeredServiceImplINS0_4imap10IMAPSStoreEEE@Base 0.9.1-3~
 _ZTVN5vmime3net21registeredServiceImplINS0_4imap9IMAPStoreEEE@Base 0.9.1-3~
 _ZTVN5vmime3net21registeredServiceImplINS0_4pop310POP3SStoreEEE@Base 0.9.1-3~
 _ZTVN5vmime3net21registeredServiceImplINS0_4pop39POP3StoreEEE@Base 0.9.1-3~
 _ZTVN5vmime3net21registeredServiceImplINS0_4smtp13SMTPTransportEEE@Base 0.9.1-3~
 _ZTVN5vmime3net21registeredServiceImplINS0_4smtp14SMTPSTransportEEE@Base 0.9.1-3~
 _ZTVN5vmime3net21registeredServiceImplINS0_7maildir12maildirStoreEEE@Base 0.9.1-3~
 _ZTVN5vmime3net21registeredServiceImplINS0_8sendmail17sendmailTransportEEE@Base 0.9.1-3~
 _ZTVN5vmime3net22defaultConnectionInfosE@Base 0.9.1-3~
 _ZTVN5vmime3net3tls10TLSSessionE@Base 0.9.1-3~
 _ZTVN5vmime3net3tls25TLSSecuredConnectionInfosE@Base 0.9.1-3~
 _ZTVN5vmime3net3tls25TLSSocket_DeleteExWrapperE@Base 0.9.1-3~
 _ZTVN5vmime3net3tls9TLSSocketE@Base 0.9.1-3~
 _ZTVN5vmime3net4imap10IMAPFolderE@Base 0.9.1-3~
 _ZTVN5vmime3net4imap10IMAPParser10capabilityE@Base 0.9.1-3~
 _ZTVN5vmime3net4imap10IMAPParser10env_senderE@Base 0.9.1-3~
 _ZTVN5vmime3net4imap10IMAPParser10media_textE@Base 0.9.1-3~
 _ZTVN5vmime3net4imap10IMAPParser10status_attE@Base 0.9.1-3~
 _ZTVN5vmime3net4imap10IMAPParser10text_mime2E@Base 0.9.1-3~
 _ZTVN5vmime3net4imap10IMAPParser11QUOTED_CHARE@Base 0.9.1-3~
 _ZTVN5vmime3net4imap10IMAPParser11body_fieldsE@Base 0.9.1-3~
 _ZTVN5vmime3net4imap10IMAPParser11env_subjectE@Base 0.9.1-3~
 _ZTVN5vmime3net4imap10IMAPParser11header_listE@Base 0.9.1-3~
 _ZTVN5vmime3net4imap10IMAPParser11media_basicE@Base 0.9.1-3~
 _ZTVN5vmime3net4imap10IMAPParser11quoted_textE@Base 0.9.1-3~
 _ZTVN5vmime3net4imap10IMAPParser11status_infoE@Base 0.9.1-3~
 _ZTVN5vmime3net4imap10IMAPParser11text_exceptILc93EEE@Base 0.9.1-3~
 _ZTVN5vmime3net4imap10IMAPParser12address_listE@Base 0.9.1-3~
 _ZTVN5vmime3net4imap10IMAPParser12body_fld_dspE@Base 0.9.1-3~
 _ZTVN5vmime3net4imap10IMAPParser12continue_reqE@Base 0.9.1-3~
 _ZTVN5vmime3net4imap10IMAPParser12env_reply_toE@Base 0.9.1-3~
 _ZTVN5vmime3net4imap10IMAPParser12mailbox_dataE@Base 0.9.1-3~
 _ZTVN5vmime3net4imap10IMAPParser12mailbox_flagE@Base 0.9.1-3~
 _ZTVN5vmime3net4imap10IMAPParser12mailbox_listE@Base 0.9.1-3~
 _ZTVN5vmime3net4imap10IMAPParser12message_dataE@Base 0.9.1-3~
 _ZTVN5vmime3net4imap10IMAPParser12msg_att_itemE@Base 0.9.1-3~
 _ZTVN5vmime3net4imap10IMAPParser12section_textE@Base 0.9.1-3~
 _ZTVN5vmime3net4imap10IMAPParser12special_atomE@Base 0.9.1-3~
 _ZTVN5vmime3net4imap10IMAPParser12text8_exceptILc63EEE@Base 0.9.1-3~
 _ZTVN5vmime3net4imap10IMAPParser13body_fld_langE@Base 0.9.1-3~
 _ZTVN5vmime3net4imap10IMAPParser13body_type_msgE@Base 0.9.1-3~
 _ZTVN5vmime3net4imap10IMAPParser13media_messageE@Base 0.9.1-3~
 _ZTVN5vmime3net4imap10IMAPParser13resp_cond_byeE@Base 0.9.1-3~
 _ZTVN5vmime3net4imap10IMAPParser13response_dataE@Base 0.9.1-3~
 _ZTVN5vmime3net4imap10IMAPParser13response_doneE@Base 0.9.1-3~
 _ZTVN5vmime3net4imap10IMAPParser14body_ext_1partE@Base 0.9.1-3~
 _ZTVN5vmime3net4imap10IMAPParser14body_ext_mpartE@Base 0.9.1-3~
 _ZTVN5vmime3net4imap10IMAPParser14body_extensionE@Base 0.9.1-3~
 _ZTVN5vmime3net4imap10IMAPParser14body_fld_paramE@Base 0.9.1-3~
 _ZTVN5vmime3net4imap10IMAPParser14body_type_textE@Base 0.9.1-3~
 _ZTVN5vmime3net4imap10IMAPParser14env_message_idE@Base 0.9.1-3~
 _ZTVN5vmime3net4imap10IMAPParser14literalHandler12targetStreamE@Base 0.9.1-3~
 _ZTVN5vmime3net4imap10IMAPParser14literalHandler12targetStringE@Base 0.9.1-3~
 _ZTVN5vmime3net4imap10IMAPParser14resp_cond_authE@Base 0.9.1-3~
 _ZTVN5vmime3net4imap10IMAPParser14resp_text_codeE@Base 0.9.1-3~
 _ZTVN5vmime3net4imap10IMAPParser14response_fatalE@Base 0.9.1-3~
 _ZTVN5vmime3net4imap10IMAPParser15body_type_1partE@Base 0.9.1-3~
 _ZTVN5vmime3net4imap10IMAPParser15body_type_basicE@Base 0.9.1-3~
 _ZTVN5vmime3net4imap10IMAPParser15body_type_mpartE@Base 0.9.1-3~
 _ZTVN5vmime3net4imap10IMAPParser15capability_dataE@Base 0.9.1-3~
 _ZTVN5vmime3net4imap10IMAPParser15env_in_reply_toE@Base 0.9.1-3~
 _ZTVN5vmime3net4imap10IMAPParser15resp_cond_stateE@Base 0.9.1-3~
 _ZTVN5vmime3net4imap10IMAPParser15response_taggedE@Base 0.9.1-3~
 _ZTVN5vmime3net4imap10IMAPParser17mailbox_flag_listE@Base 0.9.1-3~
 _ZTVN5vmime3net4imap10IMAPParser19body_fld_param_itemE@Base 0.9.1-3~
 _ZTVN5vmime3net4imap10IMAPParser29continue_req_or_response_dataE@Base 0.9.1-3~
 _ZTVN5vmime3net4imap10IMAPParser4CRLFE@Base 0.9.1-3~
 _ZTVN5vmime3net4imap10IMAPParser4atomE@Base 0.9.1-3~
 _ZTVN5vmime3net4imap10IMAPParser4flagE@Base 0.9.1-3~
 _ZTVN5vmime3net4imap10IMAPParser4textE@Base 0.9.1-3~
 _ZTVN5vmime3net4imap10IMAPParser4xtagE@Base 0.9.1-3~
 _ZTVN5vmime3net4imap10IMAPParser5SPACEE@Base 0.9.1-3~
 _ZTVN5vmime3net4imap10IMAPParser5xbodyE@Base 0.9.1-3~
 _ZTVN5vmime3net4imap10IMAPParser6env_ccE@Base 0.9.1-3~
 _ZTVN5vmime3net4imap10IMAPParser6env_toE@Base 0.9.1-3~
 _ZTVN5vmime3net4imap10IMAPParser6numberE@Base 0.9.1-3~
 _ZTVN5vmime3net4imap10IMAPParser7addressE@Base 0.9.1-3~
 _ZTVN5vmime3net4imap10IMAPParser7astringE@Base 0.9.1-3~
 _ZTVN5vmime3net4imap10IMAPParser7env_bccE@Base 0.9.1-3~
 _ZTVN5vmime3net4imap10IMAPParser7mailboxE@Base 0.9.1-3~
 _ZTVN5vmime3net4imap10IMAPParser7msg_attE@Base 0.9.1-3~
 _ZTVN5vmime3net4imap10IMAPParser7nstringE@Base 0.9.1-3~
 _ZTVN5vmime3net4imap10IMAPParser7sectionE@Base 0.9.1-3~
 _ZTVN5vmime3net4imap10IMAPParser7xstringE@Base 0.9.1-3~
 _ZTVN5vmime3net4imap10IMAPParser8env_dateE@Base 0.9.1-3~
 _ZTVN5vmime3net4imap10IMAPParser8env_fromE@Base 0.9.1-3~
 _ZTVN5vmime3net4imap10IMAPParser8envelopeE@Base 0.9.1-3~
 _ZTVN5vmime3net4imap10IMAPParser8greetingE@Base 0.9.1-3~
 _ZTVN5vmime3net4imap10IMAPParser8one_charILc123EEE@Base 0.9.1-3~
 _ZTVN5vmime3net4imap10IMAPParser8one_charILc125EEE@Base 0.9.1-3~
 _ZTVN5vmime3net4imap10IMAPParser8one_charILc34EEE@Base 0.9.1-3~
 _ZTVN5vmime3net4imap10IMAPParser8one_charILc40EEE@Base 0.9.1-3~
 _ZTVN5vmime3net4imap10IMAPParser8one_charILc41EEE@Base 0.9.1-3~
 _ZTVN5vmime3net4imap10IMAPParser8one_charILc42EEE@Base 0.9.1-3~
 _ZTVN5vmime3net4imap10IMAPParser8one_charILc43EEE@Base 0.9.1-3~
 _ZTVN5vmime3net4imap10IMAPParser8one_charILc45EEE@Base 0.9.1-3~
 _ZTVN5vmime3net4imap10IMAPParser8one_charILc46EEE@Base 0.9.1-3~
 _ZTVN5vmime3net4imap10IMAPParser8one_charILc58EEE@Base 0.9.1-3~
 _ZTVN5vmime3net4imap10IMAPParser8one_charILc60EEE@Base 0.9.1-3~
 _ZTVN5vmime3net4imap10IMAPParser8one_charILc61EEE@Base 0.9.1-3~
 _ZTVN5vmime3net4imap10IMAPParser8one_charILc62EEE@Base 0.9.1-3~
 _ZTVN5vmime3net4imap10IMAPParser8one_charILc63EEE@Base 0.9.1-3~
 _ZTVN5vmime3net4imap10IMAPParser8one_charILc91EEE@Base 0.9.1-3~
 _ZTVN5vmime3net4imap10IMAPParser8one_charILc92EEE@Base 0.9.1-3~
 _ZTVN5vmime3net4imap10IMAPParser8one_charILc93EEE@Base 0.9.1-3~
 _ZTVN5vmime3net4imap10IMAPParser8responseE@Base 0.9.1-3~
 _ZTVN5vmime3net4imap10IMAPParser9auth_typeE@Base 0.9.1-3~
 _ZTVN5vmime3net4imap10IMAPParser9date_timeE@Base 0.9.1-3~
 _ZTVN5vmime3net4imap10IMAPParser9flag_listE@Base 0.9.1-3~
 _ZTVN5vmime3net4imap10IMAPParser9nz_numberE@Base 0.9.1-3~
 _ZTVN5vmime3net4imap10IMAPParser9resp_textE@Base 0.9.1-3~
 _ZTVN5vmime3net4imap10IMAPParserE@Base 0.9.1-3~
 _ZTVN5vmime3net4imap10IMAPSStoreE@Base 0.9.1-3~
 _ZTVN5vmime3net4imap11IMAPMessageE@Base 0.9.1-3~
 _ZTVN5vmime3net4imap13IMAPStructureE@Base 0.9.1-3~
 _ZTVN5vmime3net4imap14IMAPConnectionE@Base 0.9.1-3~
 _ZTVN5vmime3net4imap16IMAPServiceInfosE@Base 0.9.1-3~
 _ZTVN5vmime3net4imap26IMAPMessage_literalHandlerE@Base 0.9.1-3~
 _ZTVN5vmime3net4imap29IMAPMessagePartContentHandlerE@Base 0.9.1-3~
 _ZTVN5vmime3net4imap7IMAPTagE@Base 0.9.1-3~
 _ZTVN5vmime3net4imap8IMAPPartE@Base 0.9.1-3~
 _ZTVN5vmime3net4imap9IMAPStoreE@Base 0.9.1-3~
 _ZTVN5vmime3net4partE@Base 0.9.1-3~
 _ZTVN5vmime3net4pop310POP3FolderE@Base 0.9.1-3~
 _ZTVN5vmime3net4pop310POP3SStoreE@Base 0.9.1-3~
 _ZTVN5vmime3net4pop311POP3MessageE@Base 0.9.1-3~
 _ZTVN5vmime3net4pop316POP3ServiceInfosE@Base 0.9.1-3~
 _ZTVN5vmime3net4pop39POP3StoreE@Base 0.9.1-3~
 _ZTVN5vmime3net4smtp12SMTPResponseE@Base 0.9.1-3~
 _ZTVN5vmime3net4smtp13SMTPTransportE@Base 0.9.1-3~
 _ZTVN5vmime3net4smtp14SMTPSTransportE@Base 0.9.1-3~
 _ZTVN5vmime3net4smtp16SMTPServiceInfosE@Base 0.9.1-3~
 _ZTVN5vmime3net5storeE@Base 0.9.1-3~
 _ZTVN5vmime3net6folderE@Base 0.9.1-3~
 _ZTVN5vmime3net6socketE@Base 0.9.1-3~
 _ZTVN5vmime3net7maildir11maildirPartE@Base 0.9.1-3~
 _ZTVN5vmime3net7maildir12maildirStoreE@Base 0.9.1-3~
 _ZTVN5vmime3net7maildir13maildirFolderE@Base 0.9.1-3~
 _ZTVN5vmime3net7maildir13maildirFormat7contextE@Base 0.9.1-3~
 _ZTVN5vmime3net7maildir13maildirFormatE@Base 0.9.1-3~
 _ZTVN5vmime3net7maildir14maildirMessageE@Base 0.9.1-3~
 _ZTVN5vmime3net7maildir16maildirStructureE@Base 0.9.1-3~
 _ZTVN5vmime3net7maildir19maildirServiceInfosE@Base 0.9.1-3~
 _ZTVN5vmime3net7maildir6format18kmailMaildirFormatE@Base 0.9.1-3~
 _ZTVN5vmime3net7maildir6format20courierMaildirFormatE@Base 0.9.1-3~
 _ZTVN5vmime3net7messageE@Base 0.9.1-3~
 _ZTVN5vmime3net7serviceE@Base 0.9.1-3~
 _ZTVN5vmime3net7sessionE@Base 0.9.1-3~
 _ZTVN5vmime3net8sendmail17sendmailTransportE@Base 0.9.1-3~
 _ZTVN5vmime3net8sendmail20sendmailServiceInfosE@Base 0.9.1-3~
 _ZTVN5vmime3net9structureE@Base 0.9.1-3~
 _ZTVN5vmime3net9transportE@Base 0.9.1-3~
 _ZTVN5vmime4bodyE@Base 0.9.1-3~
 _ZTVN5vmime4pathE@Base 0.9.1-3~
 _ZTVN5vmime4textE@Base 0.9.1-3~
 _ZTVN5vmime4wordE@Base 0.9.1-3~
 _ZTVN5vmime5relayE@Base 0.9.1-3~
 _ZTVN5vmime6headerE@Base 0.9.1-3~
 _ZTVN5vmime6objectE@Base 0.9.1-3~
 _ZTVN5vmime7addressE@Base 0.9.1-3~
 _ZTVN5vmime7charsetE@Base 0.9.1-3~
 _ZTVN5vmime7mailboxE@Base 0.9.1-3~
 _ZTVN5vmime7messageE@Base 0.9.1-3~
 _ZTVN5vmime7utility10fileReaderE@Base 0.9.1-3~
 _ZTVN5vmime7utility10fileWriterE@Base 0.9.1-3~
 _ZTVN5vmime7utility12childProcessE@Base 0.9.1-3~
 _ZTVN5vmime7utility12fileIteratorE@Base 0.9.1-3~
 _ZTVN5vmime7utility14refManagerImplE@Base 0.9.1-3~
 _ZTVN5vmime7utility17fileSystemFactoryE@Base 0.9.1-3~
 _ZTVN5vmime7utility18inputStreamAdapterE@Base 0.9.1-3~
 _ZTVN5vmime7utility19childProcessFactoryE@Base 0.9.1-3~
 _ZTVN5vmime7utility19filteredInputStreamE@Base 0.9.1-3~
 _ZTVN5vmime7utility19outputStreamAdapterE@Base 0.9.1-3~
 _ZTVN5vmime7utility20filteredOutputStreamE@Base 0.9.1-3~
 _ZTVN5vmime7utility22dotFilteredInputStreamE@Base 0.9.1-3~
 _ZTVN5vmime7utility23dotFilteredOutputStreamE@Base 0.9.1-3~
 _ZTVN5vmime7utility24inputStreamSocketAdapterE@Base 0.9.1-3~
 _ZTVN5vmime7utility24inputStreamStringAdapterE@Base 0.9.1-3~
 _ZTVN5vmime7utility25inputStreamPointerAdapterE@Base 0.9.1-3~
 _ZTVN5vmime7utility25outputStreamSocketAdapterE@Base 0.9.1-3~
 _ZTVN5vmime7utility25outputStreamStringAdapterE@Base 0.9.1-3~
 _ZTVN5vmime7utility27charsetFilteredOutputStreamE@Base 0.9.1-3~
 _ZTVN5vmime7utility27progressListenerSizeAdapterE@Base 0.9.1-3~
 _ZTVN5vmime7utility28CRLFToLFFilteredOutputStreamE@Base 0.9.1-3~
 _ZTVN5vmime7utility28inputStreamByteBufferAdapterE@Base 0.9.1-3~
 _ZTVN5vmime7utility28outputStreamByteArrayAdapterE@Base 0.9.1-3~
 _ZTVN5vmime7utility29inputStreamStringProxyAdapterE@Base 0.9.1-3~
 _ZTVN5vmime7utility31stopSequenceFilteredInputStreamILi3EEE@Base 0.9.1-3~
 _ZTVN5vmime7utility31stopSequenceFilteredInputStreamILi5EEE@Base 0.9.1-3~
 _ZTVN5vmime7utility3refIKNS0_7encoder14encoderFactory17registeredEncoderEEE@Base 0.9.1-3~
 _ZTVN5vmime7utility3refIKNS_10attachmentEEE@Base 0.9.1-3~
 _ZTVN5vmime7utility3refIKNS_11addressListEEE@Base 0.9.1-3~
 _ZTVN5vmime7utility3refIKNS_11dispositionEEE@Base 0.9.1-3~
 _ZTVN5vmime7utility3refIKNS_11headerFieldEEE@Base 0.9.1-3~
 _ZTVN5vmime7utility3refIKNS_11mailboxListEEE@Base 0.9.1-3~
 _ZTVN5vmime7utility3refIKNS_11propertySet8propertyEEE@Base 0.9.1-3~
 _ZTVN5vmime7utility3refIKNS_12htmlTextPart14embeddedObjectEEE@Base 0.9.1-3~
 _ZTVN5vmime7utility3refIKNS_12mailboxGroupEEE@Base 0.9.1-3~
 _ZTVN5vmime7utility3refIKNS_14contentHandlerEEE@Base 0.9.1-3~
 _ZTVN5vmime7utility3refIKNS_16contentTypeFieldEEE@Base 0.9.1-3~
 _ZTVN5vmime7utility3refIKNS_16headerFieldValueEEE@Base 0.9.1-3~
 _ZTVN5vmime7utility3refIKNS_18contentDispositionEEE@Base 0.9.1-3~
 _ZTVN5vmime7utility3refIKNS_23contentDispositionFieldEEE@Base 0.9.1-3~
 _ZTVN5vmime7utility3refIKNS_3net14serviceFactory17registeredServiceEEE@Base 0.9.1-3~
 _ZTVN5vmime7utility3refIKNS_3net4imap10IMAPFolderEEE@Base 0.9.1-3~
 _ZTVN5vmime7utility3refIKNS_3net4imap10IMAPParserEEE@Base 0.9.1-3~
 _ZTVN5vmime7utility3refIKNS_3net4imap11IMAPMessageEEE@Base 0.9.1-3~
 _ZTVN5vmime7utility3refIKNS_3net4imap7IMAPTagEEE@Base 0.9.1-3~
 _ZTVN5vmime7utility3refIKNS_3net4imap8IMAPPartEEE@Base 0.9.1-3~
 _ZTVN5vmime7utility3refIKNS_3net4imap9IMAPStoreEEE@Base 0.9.1-3~
 _ZTVN5vmime7utility3refIKNS_3net4partEEE@Base 0.9.1-3~
 _ZTVN5vmime7utility3refIKNS_3net4pop310POP3FolderEEE@Base 0.9.1-3~
 _ZTVN5vmime7utility3refIKNS_3net4pop39POP3StoreEEE@Base 0.9.1-3~
 _ZTVN5vmime7utility3refIKNS_3net5storeEEE@Base 0.9.1-3~
 _ZTVN5vmime7utility3refIKNS_3net6socketEEE@Base 0.9.1-3~
 _ZTVN5vmime7utility3refIKNS_3net7maildir11maildirPartEEE@Base 0.9.1-3~
 _ZTVN5vmime7utility3refIKNS_3net7maildir12maildirStoreEEE@Base 0.9.1-3~
 _ZTVN5vmime7utility3refIKNS_3net7maildir13maildirFolderEEE@Base 0.9.1-3~
 _ZTVN5vmime7utility3refIKNS_3net7maildir13maildirFormat7contextEEE@Base 0.9.1-3~
 _ZTVN5vmime7utility3refIKNS_3net7maildir13maildirFormatEEE@Base 0.9.1-3~
 _ZTVN5vmime7utility3refIKNS_3net7serviceEEE@Base 0.9.1-3~
 _ZTVN5vmime7utility3refIKNS_3net7sessionEEE@Base 0.9.1-3~
 _ZTVN5vmime7utility3refIKNS_3net9structureEEE@Base 0.9.1-3~
 _ZTVN5vmime7utility3refIKNS_4bodyEEE@Base 0.9.1-3~
 _ZTVN5vmime7utility3refIKNS_4pathEEE@Base 0.9.1-3~
 _ZTVN5vmime7utility3refIKNS_4textEEE@Base 0.9.1-3~
 _ZTVN5vmime7utility3refIKNS_4wordEEE@Base 0.9.1-3~
 _ZTVN5vmime7utility3refIKNS_5relayEEE@Base 0.9.1-3~
 _ZTVN5vmime7utility3refIKNS_6headerEEE@Base 0.9.1-3~
 _ZTVN5vmime7utility3refIKNS_6objectEEE@Base 0.9.1-3~
 _ZTVN5vmime7utility3refIKNS_7addressEEE@Base 0.9.1-3~
 _ZTVN5vmime7utility3refIKNS_7mailboxEEE@Base 0.9.1-3~
 _ZTVN5vmime7utility3refIKNS_7messageEEE@Base 0.9.1-3~
 _ZTVN5vmime7utility3refIKNS_8bodyPartEEE@Base 0.9.1-3~
 _ZTVN5vmime7utility3refIKNS_8datetimeEEE@Base 0.9.1-3~
 _ZTVN5vmime7utility3refIKNS_8encodingEEE@Base 0.9.1-3~
 _ZTVN5vmime7utility3refIKNS_8security13authenticatorEEE@Base 0.9.1-3~
 _ZTVN5vmime7utility3refIKNS_8security4cert11certificateEEE@Base 0.9.1-3~
 _ZTVN5vmime7utility3refIKNS_8security4cert15X509CertificateEEE@Base 0.9.1-3~
 _ZTVN5vmime7utility3refIKNS_8security4cert16certificateChainEEE@Base 0.9.1-3~
 _ZTVN5vmime7utility3refIKNS_8security4sasl11SASLSessionEEE@Base 0.9.1-3~
 _ZTVN5vmime7utility3refIKNS_8textPartEEE@Base 0.9.1-3~
 _ZTVN5vmime7utility3refIKNS_9componentEEE@Base 0.9.1-3~
 _ZTVN5vmime7utility3refIKNS_9mediaTypeEEE@Base 0.9.1-3~
 _ZTVN5vmime7utility3refIKNS_9messageIdEEE@Base 0.9.1-3~
 _ZTVN5vmime7utility3refIKNS_9parameterEEE@Base 0.9.1-3~
 _ZTVN5vmime7utility3refINS0_10fileReaderEEE@Base 0.9.1-3~
 _ZTVN5vmime7utility3refINS0_10fileWriterEEE@Base 0.9.1-3~
 _ZTVN5vmime7utility3refINS0_11inputStreamEEE@Base 0.9.1-3~
 _ZTVN5vmime7utility3refINS0_12childProcessEEE@Base 0.9.1-3~
 _ZTVN5vmime7utility3refINS0_12fileIteratorEEE@Base 0.9.1-3~
 _ZTVN5vmime7utility3refINS0_12outputStreamEEE@Base 0.9.1-3~
 _ZTVN5vmime7utility3refINS0_17fileSystemFactoryEEE@Base 0.9.1-3~
 _ZTVN5vmime7utility3refINS0_19childProcessFactoryEEE@Base 0.9.1-3~
 _ZTVN5vmime7utility3refINS0_25inputStreamPointerAdapterEEE@Base 0.9.1-3~
 _ZTVN5vmime7utility3refINS0_4fileEEE@Base 0.9.1-3~
 _ZTVN5vmime7utility3refINS0_7encoder10b64EncoderEEE@Base 0.9.1-3~
 _ZTVN5vmime7utility3refINS0_7encoder13binaryEncoderEEE@Base 0.9.1-3~
 _ZTVN5vmime7utility3refINS0_7encoder14encoderFactory17registeredEncoderEEE@Base 0.9.1-3~
 _ZTVN5vmime7utility3refINS0_7encoder14encoderFactory21registeredEncoderImplINS2_10b64EncoderEEEEE@Base 0.9.1-3~
 _ZTVN5vmime7utility3refINS0_7encoder14encoderFactory21registeredEncoderImplINS2_13binaryEncoderEEEEE@Base 0.9.1-3~
 _ZTVN5vmime7utility3refINS0_7encoder14encoderFactory21registeredEncoderImplINS2_15eightBitEncoderEEEEE@Base 0.9.1-3~
 _ZTVN5vmime7utility3refINS0_7encoder14encoderFactory21registeredEncoderImplINS2_15sevenBitEncoderEEEEE@Base 0.9.1-3~
 _ZTVN5vmime7utility3refINS0_7encoder14encoderFactory21registeredEncoderImplINS2_9qpEncoderEEEEE@Base 0.9.1-3~
 _ZTVN5vmime7utility3refINS0_7encoder14encoderFactory21registeredEncoderImplINS2_9uuEncoderEEEEE@Base 0.9.1-3~
 _ZTVN5vmime7utility3refINS0_7encoder15eightBitEncoderEEE@Base 0.9.1-3~
 _ZTVN5vmime7utility3refINS0_7encoder15sevenBitEncoderEEE@Base 0.9.1-3~
 _ZTVN5vmime7utility3refINS0_7encoder7encoderEEE@Base 0.9.1-3~
 _ZTVN5vmime7utility3refINS0_7encoder9qpEncoderEEE@Base 0.9.1-3~
 _ZTVN5vmime7utility3refINS0_7encoder9uuEncoderEEE@Base 0.9.1-3~
 _ZTVN5vmime7utility3refINS_10attachmentEEE@Base 0.9.1-3~
 _ZTVN5vmime7utility3refINS_11addressListEEE@Base 0.9.1-3~
 _ZTVN5vmime7utility3refINS_11dispositionEEE@Base 0.9.1-3~
 _ZTVN5vmime7utility3refINS_11headerFieldEEE@Base 0.9.1-3~
 _ZTVN5vmime7utility3refINS_11mailboxListEEE@Base 0.9.1-3~
 _ZTVN5vmime7utility3refINS_11propertySet8propertyEEE@Base 0.9.1-3~
 _ZTVN5vmime7utility3refINS_12htmlTextPart14embeddedObjectEEE@Base 0.9.1-3~
 _ZTVN5vmime7utility3refINS_12htmlTextPartEEE@Base 0.9.1-3~
 _ZTVN5vmime7utility3refINS_12mailboxFieldEEE@Base 0.9.1-3~
 _ZTVN5vmime7utility3refINS_12mailboxGroupEEE@Base 0.9.1-3~
 _ZTVN5vmime7utility3refINS_13plainTextPartEEE@Base 0.9.1-3~
 _ZTVN5vmime7utility3refINS_14contentHandlerEEE@Base 0.9.1-3~
 _ZTVN5vmime7utility3refINS_16contentTypeFieldEEE@Base 0.9.1-3~
 _ZTVN5vmime7utility3refINS_16headerFieldValueEEE@Base 0.9.1-3~
 _ZTVN5vmime7utility3refINS_17messageIdSequenceEEE@Base 0.9.1-3~
 _ZTVN5vmime7utility3refINS_18bodyPartAttachmentEEE@Base 0.9.1-3~
 _ZTVN5vmime7utility3refINS_18contentDispositionEEE@Base 0.9.1-3~
 _ZTVN5vmime7utility3refINS_19emptyContentHandlerEEE@Base 0.9.1-3~
 _ZTVN5vmime7utility3refINS_20streamContentHandlerEEE@Base 0.9.1-3~
 _ZTVN5vmime7utility3refINS_20stringContentHandlerEEE@Base 0.9.1-3~
 _ZTVN5vmime7utility3refINS_23contentDispositionFieldEEE@Base 0.9.1-3~
 _ZTVN5vmime7utility3refINS_23parsedMessageAttachmentEEE@Base 0.9.1-3~
 _ZTVN5vmime7utility3refINS_24parameterizedHeaderFieldEEE@Base 0.9.1-3~
 _ZTVN5vmime7utility3refINS_26generatedMessageAttachmentEEE@Base 0.9.1-3~
 _ZTVN5vmime7utility3refINS_3net13socketFactoryEEE@Base 0.9.1-3~
 _ZTVN5vmime7utility3refINS_3net14serviceFactory17registeredServiceEEE@Base 0.9.1-3~
 _ZTVN5vmime7utility3refINS_3net14timeoutHandlerEEE@Base 0.9.1-3~
 _ZTVN5vmime7utility3refINS_3net15connectionInfosEEE@Base 0.9.1-3~
 _ZTVN5vmime7utility3refINS_3net21registeredServiceImplINS2_4imap10IMAPSStoreEEEEE@Base 0.9.1-3~
 _ZTVN5vmime7utility3refINS_3net21registeredServiceImplINS2_4imap9IMAPStoreEEEEE@Base 0.9.1-3~
 _ZTVN5vmime7utility3refINS_3net21registeredServiceImplINS2_4pop310POP3SStoreEEEEE@Base 0.9.1-3~
 _ZTVN5vmime7utility3refINS_3net21registeredServiceImplINS2_4pop39POP3StoreEEEEE@Base 0.9.1-3~
 _ZTVN5vmime7utility3refINS_3net21registeredServiceImplINS2_4smtp13SMTPTransportEEEEE@Base 0.9.1-3~
 _ZTVN5vmime7utility3refINS_3net21registeredServiceImplINS2_4smtp14SMTPSTransportEEEEE@Base 0.9.1-3~
 _ZTVN5vmime7utility3refINS_3net21registeredServiceImplINS2_7maildir12maildirStoreEEEEE@Base 0.9.1-3~
 _ZTVN5vmime7utility3refINS_3net21registeredServiceImplINS2_8sendmail17sendmailTransportEEEEE@Base 0.9.1-3~
 _ZTVN5vmime7utility3refINS_3net21timeoutHandlerFactoryEEE@Base 0.9.1-3~
 _ZTVN5vmime7utility3refINS_3net22defaultConnectionInfosEEE@Base 0.9.1-3~
 _ZTVN5vmime7utility3refINS_3net3tls10TLSSessionEEE@Base 0.9.1-3~
 _ZTVN5vmime7utility3refINS_3net3tls25TLSSecuredConnectionInfosEEE@Base 0.9.1-3~
 _ZTVN5vmime7utility3refINS_3net3tls25TLSSocket_DeleteExWrapperEEE@Base 0.9.1-3~
 _ZTVN5vmime7utility3refINS_3net3tls9TLSSocketEEE@Base 0.9.1-3~
 _ZTVN5vmime7utility3refINS_3net4imap10IMAPFolderEEE@Base 0.9.1-3~
 _ZTVN5vmime7utility3refINS_3net4imap10IMAPParserEEE@Base 0.9.1-3~
 _ZTVN5vmime7utility3refINS_3net4imap10IMAPSStoreEEE@Base 0.9.1-3~
 _ZTVN5vmime7utility3refINS_3net4imap11IMAPMessageEEE@Base 0.9.1-3~
 _ZTVN5vmime7utility3refINS_3net4imap13IMAPStructureEEE@Base 0.9.1-3~
 _ZTVN5vmime7utility3refINS_3net4imap14IMAPConnectionEEE@Base 0.9.1-3~
 _ZTVN5vmime7utility3refINS_3net4imap29IMAPMessagePartContentHandlerEEE@Base 0.9.1-3~
 _ZTVN5vmime7utility3refINS_3net4imap7IMAPTagEEE@Base 0.9.1-3~
 _ZTVN5vmime7utility3refINS_3net4imap8IMAPPartEEE@Base 0.9.1-3~
 _ZTVN5vmime7utility3refINS_3net4imap9IMAPStoreEEE@Base 0.9.1-3~
 _ZTVN5vmime7utility3refINS_3net4partEEE@Base 0.9.1-3~
 _ZTVN5vmime7utility3refINS_3net4pop310POP3FolderEEE@Base 0.9.1-3~
 _ZTVN5vmime7utility3refINS_3net4pop310POP3SStoreEEE@Base 0.9.1-3~
 _ZTVN5vmime7utility3refINS_3net4pop311POP3MessageEEE@Base 0.9.1-3~
 _ZTVN5vmime7utility3refINS_3net4pop39POP3StoreEEE@Base 0.9.1-3~
 _ZTVN5vmime7utility3refINS_3net4smtp12SMTPResponseEEE@Base 0.9.1-3~
 _ZTVN5vmime7utility3refINS_3net4smtp13SMTPTransportEEE@Base 0.9.1-3~
 _ZTVN5vmime7utility3refINS_3net4smtp14SMTPSTransportEEE@Base 0.9.1-3~
 _ZTVN5vmime7utility3refINS_3net5storeEEE@Base 0.9.1-3~
 _ZTVN5vmime7utility3refINS_3net6folderEEE@Base 0.9.1-3~
 _ZTVN5vmime7utility3refINS_3net6socketEEE@Base 0.9.1-3~
 _ZTVN5vmime7utility3refINS_3net7maildir11maildirPartEEE@Base 0.9.1-3~
 _ZTVN5vmime7utility3refINS_3net7maildir12maildirStoreEEE@Base 0.9.1-3~
 _ZTVN5vmime7utility3refINS_3net7maildir13maildirFolderEEE@Base 0.9.1-3~
 _ZTVN5vmime7utility3refINS_3net7maildir13maildirFormat7contextEEE@Base 0.9.1-3~
 _ZTVN5vmime7utility3refINS_3net7maildir13maildirFormatEEE@Base 0.9.1-3~
 _ZTVN5vmime7utility3refINS_3net7maildir14maildirMessageEEE@Base 0.9.1-3~
 _ZTVN5vmime7utility3refINS_3net7maildir16maildirStructureEEE@Base 0.9.1-3~
 _ZTVN5vmime7utility3refINS_3net7maildir6format18kmailMaildirFormatEEE@Base 0.9.1-3~
 _ZTVN5vmime7utility3refINS_3net7maildir6format20courierMaildirFormatEEE@Base 0.9.1-3~
 _ZTVN5vmime7utility3refINS_3net7messageEEE@Base 0.9.1-3~
 _ZTVN5vmime7utility3refINS_3net7serviceEEE@Base 0.9.1-3~
 _ZTVN5vmime7utility3refINS_3net7sessionEEE@Base 0.9.1-3~
 _ZTVN5vmime7utility3refINS_3net8sendmail17sendmailTransportEEE@Base 0.9.1-3~
 _ZTVN5vmime7utility3refINS_3net9structureEEE@Base 0.9.1-3~
 _ZTVN5vmime7utility3refINS_3net9transportEEE@Base 0.9.1-3~
 _ZTVN5vmime7utility3refINS_4bodyEEE@Base 0.9.1-3~
 _ZTVN5vmime7utility3refINS_4pathEEE@Base 0.9.1-3~
 _ZTVN5vmime7utility3refINS_4textEEE@Base 0.9.1-3~
 _ZTVN5vmime7utility3refINS_4wordEEE@Base 0.9.1-3~
 _ZTVN5vmime7utility3refINS_5relayEEE@Base 0.9.1-3~
 _ZTVN5vmime7utility3refINS_6headerEEE@Base 0.9.1-3~
 _ZTVN5vmime7utility3refINS_6objectEEE@Base 0.9.1-3~
 _ZTVN5vmime7utility3refINS_7addressEEE@Base 0.9.1-3~
 _ZTVN5vmime7utility3refINS_7charsetEEE@Base 0.9.1-3~
 _ZTVN5vmime7utility3refINS_7mailboxEEE@Base 0.9.1-3~
 _ZTVN5vmime7utility3refINS_7messageEEE@Base 0.9.1-3~
 _ZTVN5vmime7utility3refINS_8bodyPartEEE@Base 0.9.1-3~
 _ZTVN5vmime7utility3refINS_8datetimeEEE@Base 0.9.1-3~
 _ZTVN5vmime7utility3refINS_8encodingEEE@Base 0.9.1-3~
 _ZTVN5vmime7utility3refINS_8platform7handlerEEE@Base 0.9.1-3~
 _ZTVN5vmime7utility3refINS_8security13authenticatorEEE@Base 0.9.1-3~
 _ZTVN5vmime7utility3refINS_8security4cert11certificateEEE@Base 0.9.1-3~
 _ZTVN5vmime7utility3refINS_8security4cert15X509CertificateEEE@Base 0.9.1-3~
 _ZTVN5vmime7utility3refINS_8security4cert16certificateChainEEE@Base 0.9.1-3~
 _ZTVN5vmime7utility3refINS_8security4cert19certificateVerifierEEE@Base 0.9.1-3~
 _ZTVN5vmime7utility3refINS_8security4cert26defaultCertificateVerifierEEE@Base 0.9.1-3~
 _ZTVN5vmime7utility3refINS_8security4sasl10SASLSocketEEE@Base 0.9.1-3~
 _ZTVN5vmime7utility3refINS_8security4sasl11SASLContextEEE@Base 0.9.1-3~
 _ZTVN5vmime7utility3refINS_8security4sasl11SASLSessionEEE@Base 0.9.1-3~
 _ZTVN5vmime7utility3refINS_8security4sasl13SASLMechanismEEE@Base 0.9.1-3~
 _ZTVN5vmime7utility3refINS_8security4sasl17SASLAuthenticatorEEE@Base 0.9.1-3~
 _ZTVN5vmime7utility3refINS_8security4sasl20SASLMechanismFactory19registeredMechanismEEE@Base 0.9.1-3~
 _ZTVN5vmime7utility3refINS_8security4sasl20builtinSASLMechanismEEE@Base 0.9.1-3~
 _ZTVN5vmime7utility3refINS_8security4sasl24defaultSASLAuthenticatorEEE@Base 0.9.1-3~
 _ZTVN5vmime7utility3refINS_8security6digest13messageDigestEEE@Base 0.9.1-3~
 _ZTVN5vmime7utility3refINS_8security6digest20messageDigestFactory22digestAlgorithmFactoryEEE@Base 0.9.1-3~
 _ZTVN5vmime7utility3refINS_8security6digest20messageDigestFactory26digestAlgorithmFactoryImplINS3_3md516md5MessageDigestEEEEE@Base 0.9.1-3~
 _ZTVN5vmime7utility3refINS_8security6digest20messageDigestFactory26digestAlgorithmFactoryImplINS3_4sha117sha1MessageDigestEEEEE@Base 0.9.1-3~
 _ZTVN5vmime7utility3refINS_8security6digest3md516md5MessageDigestEEE@Base 0.9.1-3~
 _ZTVN5vmime7utility3refINS_8security6digest4sha117sha1MessageDigestEEE@Base 0.9.1-3~
 _ZTVN5vmime7utility3refINS_8textPartEEE@Base 0.9.1-3~
 _ZTVN5vmime7utility3refINS_9componentEEE@Base 0.9.1-3~
 _ZTVN5vmime7utility3refINS_9mediaTypeEEE@Base 0.9.1-3~
 _ZTVN5vmime7utility3refINS_9messageIdEEE@Base 0.9.1-3~
 _ZTVN5vmime7utility3refINS_9parameterEEE@Base 0.9.1-3~
 _ZTVN5vmime7utility3refINS_9platforms5posix11posixSocketEEE@Base 0.9.1-3~
 _ZTVN5vmime7utility3refINS_9platforms5posix15posixFileReaderEEE@Base 0.9.1-3~
 _ZTVN5vmime7utility3refINS_9platforms5posix15posixFileWriterEEE@Base 0.9.1-3~
 _ZTVN5vmime7utility3refINS_9platforms5posix17posixChildProcessEEE@Base 0.9.1-3~
 _ZTVN5vmime7utility3refINS_9platforms5posix17posixFileIteratorEEE@Base 0.9.1-3~
 _ZTVN5vmime7utility3refINS_9platforms5posix18posixSocketFactoryEEE@Base 0.9.1-3~
 _ZTVN5vmime7utility3refINS_9platforms5posix22posixFileSystemFactoryEEE@Base 0.9.1-3~
 _ZTVN5vmime7utility3refINS_9platforms5posix24posixChildProcessFactoryEEE@Base 0.9.1-3~
 _ZTVN5vmime7utility3refINS_9platforms5posix26posixFileReaderInputStreamEEE@Base 0.9.1-3~
 _ZTVN5vmime7utility3refINS_9platforms5posix27inputStreamPosixPipeAdapterEEE@Base 0.9.1-3~
 _ZTVN5vmime7utility3refINS_9platforms5posix27posixFileWriterOutputStreamEEE@Base 0.9.1-3~
 _ZTVN5vmime7utility3refINS_9platforms5posix28outputStreamPosixPipeAdapterEEE@Base 0.9.1-3~
 _ZTVN5vmime7utility3refINS_9platforms5posix9posixFileEEE@Base 0.9.1-3~
 _ZTVN5vmime7utility4fileE@Base 0.9.1-3~
 _ZTVN5vmime7utility4pathE@Base 0.9.1-3~
 _ZTVN5vmime7utility6streamE@Base 0.9.1-3~
 _ZTVN5vmime7utility7encoder10b64EncoderE@Base 0.9.1-3~
 _ZTVN5vmime7utility7encoder13binaryEncoderE@Base 0.9.1-3~
 _ZTVN5vmime7utility7encoder14defaultEncoderE@Base 0.9.1-3~
 _ZTVN5vmime7utility7encoder14encoderFactory17registeredEncoderE@Base 0.9.1-3~
 _ZTVN5vmime7utility7encoder14encoderFactory21registeredEncoderImplINS1_10b64EncoderEEE@Base 0.9.1-3~
 _ZTVN5vmime7utility7encoder14encoderFactory21registeredEncoderImplINS1_13binaryEncoderEEE@Base 0.9.1-3~
 _ZTVN5vmime7utility7encoder14encoderFactory21registeredEncoderImplINS1_15eightBitEncoderEEE@Base 0.9.1-3~
 _ZTVN5vmime7utility7encoder14encoderFactory21registeredEncoderImplINS1_15sevenBitEncoderEEE@Base 0.9.1-3~
 _ZTVN5vmime7utility7encoder14encoderFactory21registeredEncoderImplINS1_9qpEncoderEEE@Base 0.9.1-3~
 _ZTVN5vmime7utility7encoder14encoderFactory21registeredEncoderImplINS1_9uuEncoderEEE@Base 0.9.1-3~
 _ZTVN5vmime7utility7encoder15eightBitEncoderE@Base 0.9.1-3~
 _ZTVN5vmime7utility7encoder15sevenBitEncoderE@Base 0.9.1-3~
 _ZTVN5vmime7utility7encoder7encoderE@Base 0.9.1-3~
 _ZTVN5vmime7utility7encoder9qpEncoderE@Base 0.9.1-3~
 _ZTVN5vmime7utility7encoder9uuEncoderE@Base 0.9.1-3~
 _ZTVN5vmime8bodyPartE@Base 0.9.1-3~
 _ZTVN5vmime8datetimeE@Base 0.9.1-3~
 _ZTVN5vmime8encodingE@Base 0.9.1-3~
 _ZTVN5vmime8platform7handlerE@Base 0.9.1-3~
 _ZTVN5vmime8security13authenticatorE@Base 0.9.1-3~
 _ZTVN5vmime8security20defaultAuthenticatorE@Base 0.9.1-3~
 _ZTVN5vmime8security4cert11certificateE@Base 0.9.1-3~
 _ZTVN5vmime8security4cert15X509CertificateE@Base 0.9.1-3~
 _ZTVN5vmime8security4cert16certificateChainE@Base 0.9.1-3~
 _ZTVN5vmime8security4cert19certificateVerifierE@Base 0.9.1-3~
 _ZTVN5vmime8security4cert26defaultCertificateVerifierE@Base 0.9.1-3~
 _ZTVN5vmime8security4sasl10SASLSocketE@Base 0.9.1-3~
 _ZTVN5vmime8security4sasl11SASLContextE@Base 0.9.1-3~
 _ZTVN5vmime8security4sasl11SASLSessionE@Base 0.9.1-3~
 _ZTVN5vmime8security4sasl13SASLMechanismE@Base 0.9.1-3~
 _ZTVN5vmime8security4sasl20SASLMechanismFactoryE@Base 0.9.1-3~
 _ZTVN5vmime8security4sasl20builtinSASLMechanismE@Base 0.9.1-3~
 _ZTVN5vmime8security4sasl24defaultSASLAuthenticatorE@Base 0.9.1-3~
 _ZTVN5vmime8security6digest13messageDigestE@Base 0.9.1-3~
 _ZTVN5vmime8security6digest20messageDigestFactory22digestAlgorithmFactoryE@Base 0.9.1-3~
 _ZTVN5vmime8security6digest20messageDigestFactory26digestAlgorithmFactoryImplINS1_3md516md5MessageDigestEEE@Base 0.9.1-3~
 _ZTVN5vmime8security6digest20messageDigestFactory26digestAlgorithmFactoryImplINS1_4sha117sha1MessageDigestEEE@Base 0.9.1-3~
 _ZTVN5vmime8security6digest3md516md5MessageDigestE@Base 0.9.1-3~
 _ZTVN5vmime8security6digest4sha117sha1MessageDigestE@Base 0.9.1-3~
 _ZTVN5vmime8textPartE@Base 0.9.1-3~
 _ZTVN5vmime9componentE@Base 0.9.1-3~
 _ZTVN5vmime9exceptionE@Base 0.9.1-3~
 _ZTVN5vmime9mediaTypeE@Base 0.9.1-3~
 _ZTVN5vmime9messageIdE@Base 0.9.1-3~
 _ZTVN5vmime9parameterE@Base 0.9.1-3~
 _ZTVN5vmime9platforms5posix11posixSocketE@Base 0.9.1-3~
 _ZTVN5vmime9platforms5posix12posixHandlerE@Base 0.9.1-3~
 _ZTVN5vmime9platforms5posix15posixFileReaderE@Base 0.9.1-3~
 _ZTVN5vmime9platforms5posix15posixFileWriterE@Base 0.9.1-3~
 _ZTVN5vmime9platforms5posix17posixChildProcessE@Base 0.9.1-3~
 _ZTVN5vmime9platforms5posix17posixFileIteratorE@Base 0.9.1-3~
 _ZTVN5vmime9platforms5posix18posixSocketFactoryE@Base 0.9.1-3~
 _ZTVN5vmime9platforms5posix22posixFileSystemFactoryE@Base 0.9.1-3~
 _ZTVN5vmime9platforms5posix24posixChildProcessFactoryE@Base 0.9.1-3~
 _ZTVN5vmime9platforms5posix26posixFileReaderInputStreamE@Base 0.9.1-3~
 _ZTVN5vmime9platforms5posix27inputStreamPosixPipeAdapterE@Base 0.9.1-3~
 _ZTVN5vmime9platforms5posix27posixFileWriterOutputStreamE@Base 0.9.1-3~
 _ZTVN5vmime9platforms5posix28outputStreamPosixPipeAdapterE@Base 0.9.1-3~
 _ZTVN5vmime9platforms5posix9posixFileE@Base 0.9.1-3~
 _ZTv0_n24_N5vmime16contentTypeFieldD0Ev@Base 0.9.1-3~
 _ZTv0_n24_N5vmime16contentTypeFieldD1Ev@Base 0.9.1-3~
 _ZTv0_n24_N5vmime23contentDispositionFieldD0Ev@Base 0.9.1-3~
 _ZTv0_n24_N5vmime23contentDispositionFieldD1Ev@Base 0.9.1-3~
 _ZTv0_n24_N5vmime24parameterizedHeaderFieldD0Ev@Base 0.9.1-3~
 _ZTv0_n24_N5vmime24parameterizedHeaderFieldD1Ev@Base 0.9.1-3~
 _ZTv0_n32_N5vmime24parameterizedHeaderField5parseERKNSt7__cxx1112basic_stringIcSt11char_traitsIcESaIcEEEmmPm@Base 0.9.1-3~
 _ZTv0_n40_NK5vmime24parameterizedHeaderField8generateERNS_7utility12outputStreamEmmPm@Base 0.9.1-3~
 _ZTv0_n56_N5vmime24parameterizedHeaderField8copyFromERKNS_9componentE@Base 0.9.1-3~
 _ZTv0_n64_NK5vmime24parameterizedHeaderField18getChildComponentsEv@Base 0.9.1-3~
 imap@Base 0.9.1-3~
 imaps@Base 0.9.1-3~
 maildir@Base 0.9.1-3~
 pop3@Base 0.9.1-3~
 pop3s@Base 0.9.1-3~
 sendmail@Base 0.9.1-3~
 smtp@Base 0.9.1-3~
 smtps@Base 0.9.1-3~
